(dp1
(I1
S'Pt'
p2
cnumpy.core._multiarray_umath
scalar
p3
(cnumpy
dtype
p4
(S'i8'
I0
I1
tRp5
(I3
S'<'
NNNI-1
I-1
I0
tbS'\x06\x00\x00\x00\x00\x00\x00\x00'
tRp6
g2
I1
tp7
(lp8
F0
aF-0.017602587630375283
aF0
aF-0.008037718280651418
aF0
aF0.032927534308258705
aF0
aF0.12115029576811384
aF0
aF0.069651280527216489
aF-0.13413640421353398
aF0
aF0.00013189478637014307
aF0.2957553505774107
aF0
aF0.090795908493082653
aF-0.251446575112524
aF0
aF0.0052102097607724975
aF0.15713889411376616
as(I4
g2
g3
(g5
S'\x01\x00\x00\x00\x00\x00\x00\x00'
tRp9
g2
I1
tp10
(lp11
F0
aF-0.013882350555981443
aF0
aF-0.0032662901089179214
aF0
aF0.036747207211505498
aF0
aF0.095534776753762984
aF0
aF0.047184007803269465
aF0.035318349138932018
aF0
aF0.04663766249681562
aF0.13688587519306208
aF0
aF0.056566445756963103
aF-0.08375567373812369
aF0
aF0.033185382875513834
aF0.055320186713682343
as(I9
S'Cu'
p12
g3
(g5
S'\x00\x00\x00\x00\x00\x00\x00\x00'
tRp13
g2
I2
tp14
(lp15
F-0.14483843201202598
aF0
aF-0.13486829893702229
aF0
aF-0.096024759847130561
aF0
aF-0.017206383312002554
aF0
aF-0.076113569836224831
aF-0.37427031824808837
aF0
aF-0.0099701044732244271
aF-0.076991905571235378
aF0
aF-0.052208287747880451
aF-0.25418862344121157
aF0
aF-1.1389662090540905e-05
aF-0.0045870038188250157
aF0
as(I3
g2
g3
(g5
S'\x08\x00\x00\x00\x00\x00\x00\x00'
tRp16
g12
I1
tp17
(lp18
F0
aF0.0031149497416251143
aF0
aF0.0058796367515698694
aF0
aF0.013937654759675983
aF0
aF0.010849404749138689
aF0
aF-0.03580026436238077
aF0.048662872302725368
aF0
aF0.011156293066363586
aF0.016230185704120458
aF0
aF-0.057823280910673083
aF0.053196577014784044
aF0
aF-0.00047947122000150923
aF0.009404183277247416
as(I2
g2
I2
g2
I1
tp19
(lp20
F-0.027631651617907347
aF-0.0040742533412917725
aF-0.025409810747128198
aF-0.0021040501878833856
aF-0.014881743991015092
aF0.0027309196497415228
aF0.0059437669732602975
aF-0.0031816201958306534
aF-0.020878683183316399
aF-0.05279685641627014
aF-0.001072739677392538
aF-0.0028818395772238652
aF0.022166913402678099
aF0.0058111974840447658
aF-0.014183634617786467
aF-0.10189511762056225
aF0.062720572972070815
aF-3.4006191538563391e-05
aF-0.00059837748386336635
aF0.020028902946590189
as(I1
g2
g3
(g5
S'\x03\x00\x00\x00\x00\x00\x00\x00'
tRp21
g2
I1
tp22
(lp23
F0
aF0.0064622674126817159
aF0
aF0.0044346607829880147
aF0
aF-0.0051314986293991283
aF0
aF-0.037656936119336598
aF0
aF0.12587085283835692
aF-0.03296722015413342
aF0
aF-0.071170243721460927
aF-0.0099984010354522059
aF0
aF0.085540328236288987
aF-0.028375237548249669
aF0
aF-0.040791059568445989
aF0.0046966643726656255
as(I2
g2
g3
(g5
S'\x08\x00\x00\x00\x00\x00\x00\x00'
tRp24
g12
I2
tp25
(lp26
F0
aF0.31286974509884702
aF0
aF0.30014311311796932
aF0
aF0.24274779442147393
aF0
aF0.071194918980036659
aF0
aF0.063423753449691728
aF1.1167260968383645
aF0
aF0.037611442405261652
aF0.22856442646993946
aF0
aF0.020737438144239138
aF0.7507317252568686
aF0
aF0.0049124563395280905
aF0.012253603732192619
as(I9
g12
g3
(g5
S'\x06\x00\x00\x00\x00\x00\x00\x00'
tRp27
g2
I2
tp28
(lp29
F-0.19918332890607063
aF0
aF-0.18884655018731111
aF0
aF-0.14634386569535335
aF0
aF-0.040619383781907159
aF0
aF-0.036489367459094368
aF-0.54667855435649382
aF0
aF-0.0061073190202787855
aF-0.11003594280243692
aF0
aF-0.027089688359510158
aF-0.37144480238338701
aF0
aF-0.00065238834041915646
aF-0.0077785779586625921
aF0
as(I0
g2
g3
(g5
S'\x02\x00\x00\x00\x00\x00\x00\x00'
tRp30
g2
I1
tp31
(lp32
F0
aF2.7755575615628914e-17
aF0
aF0
aF0
aF0
aF0
aF-1.1102230246251565e-16
aF0
aF-0.0072120058142679695
aF0.0026386687451805668
aF0
aF0.0034915905640041534
aF-0.0088637064946835986
aF0
aF-0.0041233847357903903
aF0.0021119957966759667
aF0
aF0.0026176871357709778
aF-0.0040502522345188747
as(I9
g12
g3
(g5
S'\x03\x00\x00\x00\x00\x00\x00\x00'
tRp33
g2
I0
tp34
(lp35
F0.21787848971414403
aF0
aF0.22382996972634117
aF0
aF0.23924188193966026
aF0
aF0.21142120324592534
aF0
aF-0.0072265317427736417
aF0.36634395605913939
aF0
aF0.024234429713260709
aF0.40060126464899298
aF0
aF-0.025140494985088184
aF0.12173293769926725
aF0
aF0.0045040081444212791
aF0.16609059235751095
aF0
as(I5
g2
g3
(g5
S'\x08\x00\x00\x00\x00\x00\x00\x00'
tRp36
g12
I1
tp37
(lp38
F0
aF-0.037388283480692119
aF0
aF-0.024228840736813917
aF0
aF0.02737187408851427
aF0
aF0.11948072641133817
aF0
aF0.0013729078290005067
aF0.19880997758829103
aF0
aF0.044933232604756214
aF0.11285691299909303
aF0
aF-0.056489010111005572
aF-0.034501039206384768
aF0
aF-0.0040794048745396517
aF-0.0080219787316180412
as(I2
g2
g3
(g5
S'\x03\x00\x00\x00\x00\x00\x00\x00'
tRp39
g2
I1
tp40
(lp41
F0
aF-0.0014073160344491259
aF0
aF-0.0013219648708307306
aF0
aF-0.00098023924527437844
aF0
aF-0.00021935068683322763
aF0
aF1.0637534437094379e-05
aF-0.0081237992927628826
aF0
aF-0.00075541244435726844
aF-0.00026658254657044918
aF0
aF0.0013178070767323607
aF-0.0092549047974136607
aF0
aF2.6803551143168065e-05
aF-0.00027371559862792312
as(I9
g12
g3
(g5
S'\x08\x00\x00\x00\x00\x00\x00\x00'
tRp42
g12
I2
tp43
(lp44
F-0.074914457652357949
aF0
aF-0.074157187979411732
aF0
aF-0.070741707664604192
aF0
aF-0.054668158261248365
aF0
aF-0.004740547894905146
aF-0.73156888200620329
aF0
aF-0.0020159562130330688
aF-0.12677106545182162
aF0
aF-0.0031992984295547422
aF-0.48774213875507999
aF0
aF-0.00045779225343317722
aF-0.0098296808078054375
aF0
as(I1
g2
g3
(g5
S'\x02\x00\x00\x00\x00\x00\x00\x00'
tRp45
g2
I1
tp46
(lp47
F0
aF-0.0053232184771015573
aF0
aF-0.0064217911989160048
aF0
aF-0.0088112886129013204
aF0
aF-0.0036277340328763914
aF0
aF0.0027492659458036427
aF-0.033523716711678891
aF0
aF-0.0029477957937346765
aF-0.003851167890829166
aF0
aF0.0074961039271290624
aF-0.038085334583952121
aF0
aF-3.8025861170672732e-05
aF-0.0011303424438398706
as(I4
g2
I4
g2
I0
tp48
(lp49
F0.13535980961439364
aF0.25164976621933288
aF0.13904081975098007
aF0.25502528734417212
aF0.15303098892783104
aF0.25565301175449739
aF0.15689339129251503
aF0.14007410454395022
aF0.092508079811300423
aF0.40430338802609528
aF0.92745744606470604
aF0.0058821094210152226
aF0.50526963968110605
aF0.41901212961642975
aF0.079673255961407272
aF0.01139089104735562
aF0.26110542084074778
aF-3.2645094747119747e-05
aF0.1089041803971607
aF-0.021504242246538088
as(I3
g2
g3
(g5
S'\x08\x00\x00\x00\x00\x00\x00\x00'
tRp50
g12
I2
tp51
(lp52
F0
aF0.067744721641273764
aF0
aF0.063645378023213975
aF0
aF0.04702872605772257
aF0
aF0.009815935464105181
aF0
aF0.044279465177430484
aF-0.15464195326938279
aF0
aF0.0025275329347997384
aF0.011616242739521429
aF0
aF0.041767729594858541
aF-0.16441759531628347
aF0
aF0.00025194904931083467
aF0.0019246688089076317
as(I2
g2
g3
(g5
S'\x06\x00\x00\x00\x00\x00\x00\x00'
tRp53
g2
I1
tp54
(lp55
F0
aF0.022777792069942342
aF0
aF0.011526193538869007
aF0
aF-0.032715890785550039
aF0
aF-0.10682615104625535
aF0
aF-0.0058908434110752188
aF-0.005056970955075582
aF0
aF-0.02363527084574597
aF-0.2192810034640949
aF0
aF0.015348241711890059
aF0.13174275865811053
aF0
aF-0.00072830456698334378
aF-0.10454512518300826
as(I4
g2
g3
(g5
S'\x08\x00\x00\x00\x00\x00\x00\x00'
tRp56
g12
I0
tp57
(lp58
F0
aF0.18408388814038584
aF0
aF0.18754907867621048
aF0
aF0.19589845414101983
aF0
aF0.16714626548249292
aF0
aF0.019316940753224522
aF0.86027589773523538
aF0
aF0.084752387722905859
aF0.2757632132279596
aF0
aF0.0023747422221781635
aF0.42679969118710104
aF0
aF0.056408891043699783
aF0.013783957133338846
as(I9
g12
g3
(g5
S'\x02\x00\x00\x00\x00\x00\x00\x00'
tRp59
g2
I2
tp60
(lp61
F-0.15240672408299749
aF0
aF-0.13998603703042373
aF0
aF-0.094198432900312226
aF0
aF-0.014208642853412046
aF0
aF-0.049751610564979939
aF-0.35472371114310186
aF0
aF-0.0076314983101552396
aF-0.063743672287327566
aF0
aF-0.034436731340108384
aF-0.24990578523445786
aF0
aF-9.7300602255812353e-05
aF-0.002991095871799875
aF0
as(I4
g2
g3
(g5
S'\x00\x00\x00\x00\x00\x00\x00\x00'
tRp62
g2
I1
tp63
(lp64
F0
aF-0.037288137146916749
aF0
aF-0.024142553396691021
aF0
aF0.027180240392565662
aF0
aF0.11736242377081149
aF0
aF0.085945216362638022
aF-0.038882985432263886
aF0
aF0.0032364225644685393
aF0.24422423606004978
aF0
aF0.06459008272570671
aF-0.24677723385825515
aF0
aF-0.00047276335869084521
aF0.01695857467272786
as(I5
g2
g3
(g5
S'\x04\x00\x00\x00\x00\x00\x00\x00'
tRp65
g2
I0
tp66
(lp67
F0
aF-0.064938239144607224
aF0
aF-0.073115198043824187
aF0
aF-0.10465157548977252
aF0
aF-0.12903721609978386
aF0
aF-0.20085057177964105
aF-0.4487511561866766
aF0
aF-0.044937441228766625
aF-0.3485875698019153
aF0
aF-0.10974871579884861
aF-0.14020531130360761
aF0
aF-0.00028655100441330806
aF-0.10096065840686967
as(I2
g2
g3
(g5
S'\x07\x00\x00\x00\x00\x00\x00\x00'
tRp68
g2
I1
tp69
(lp70
F0
aF0.038333667628903209
aF0
aF0.02517104038189874
aF0
aF-0.027762909943896588
aF0
aF-0.13203385091031405
aF0
aF0.08339237063369595
aF0.02804419719409575
aF0
aF-0.17394584543719838
aF-0.24554120986837497
aF0
aF0.04245685230747874
aF0.29417505576453928
aF0
aF-0.14983710342771048
aF-0.03010632653647553
as(I6
g2
g3
(g5
S'\x08\x00\x00\x00\x00\x00\x00\x00'
tRp71
g12
I1
tp72
(lp73
F0
aF-0.0026131172055280927
aF0
aF-0.0087391715204873793
aF0
aF-0.030433045016903817
aF0
aF-0.042904970442932518
aF0
aF0.0018935414063779108
aF-0.16928478850049777
aF0
aF-0.01114999463364089
aF-0.084416978678627685
aF0
aF0.0005464340360446982
aF-0.044432538644364694
aF0
aF-0.0074733459399044383
aF-0.0053523826177204557
as(I4
g2
g3
(g5
S'\x00\x00\x00\x00\x00\x00\x00\x00'
tRp74
g2
I0
tp75
(lp76
F0
aF0.20486365621228919
aF0
aF0.20622016852910235
aF0
aF0.20942813538153279
aF0
aF0.18954845514386098
aF0
aF0.18992141056423109
aF0.84335116363156615
aF0
aF0.019769574915795268
aF0.36465550630387383
aF0
aF0.13348444346218691
aF0.34824886221208007
aF0
aF-1.545609636854794e-05
aF0.046155256088286752
as(I2
g2
g3
(g5
S'\x08\x00\x00\x00\x00\x00\x00\x00'
tRp77
g12
I1
tp78
(lp79
F0
aF-0.0012125038320040249
aF0
aF0.00094533133187502116
aF0
aF0.008226309376183516
aF0
aF0.011062248156032586
aF0
aF-0.017489159221409842
aF0.055426537420577127
aF0
aF-0.0075332155938784414
aF0.035469100667860853
aF0
aF-0.0045015165393700683
aF-0.0047444715156066937
aF0
aF0.0016955114534299835
aF0.001133712266617739
as(I0
g2
I0
g2
I2
tp80
(lp81
F0.39660513463969327
aF1.2014144203823045
aF0.38533292693454013
aF1.175881730685111
aF0.33598777718518918
aF1.0706682728427386
aF0.16613473372137136
aF0.74636531312760701
aF0.11196234332130009
aF1.2364462099727909
aF1.9049505527793154
aF0.013270466289531092
aF0.62517967512683936
aF1.4469383940723344
aF0.079861892868171094
aF0.42864847744711693
aF0.73688895746203209
aF1.707635141927925e-05
aF0.05124331641974799
aF0.38893473844606913
as(I5
g2
g3
(g5
S'\x01\x00\x00\x00\x00\x00\x00\x00'
tRp82
g2
I1
tp83
(lp84
F0
aF-0.025030506435258337
aF0
aF-0.013597764720728767
aF0
aF0.034176811568274748
aF0
aF0.1365610574040072
aF0
aF0.11414668121854638
aF-0.046686615978262916
aF0
aF0.03531463437293323
aF0.19961529681371198
aF0
aF0.070614628754553849
aF0.0038419543593386993
aF0
aF-0.0037139504504060767
aF0.16297368732603576
as(I1
g2
g3
(g5
S'\x04\x00\x00\x00\x00\x00\x00\x00'
tRp85
g2
I2
tp86
(lp87
F0
aF-0.057964165560426772
aF0
aF-0.057217750724709929
aF0
aF-0.054284756327133962
aF0
aF-0.043806657834776434
aF0
aF0.068716430734414857
aF-0.13889564755753372
aF0
aF-0.00059864203882936174
aF-0.15150133147842121
aF0
aF0.056154197224646693
aF-0.038808775413457966
aF0
aF-0.016413899515897418
aF-0.027087124304194434
as(I6
g2
g3
(g5
S'\x00\x00\x00\x00\x00\x00\x00\x00'
tRp88
g2
I1
tp89
(lp90
F0
aF0.01764255883448182
aF0
aF0.0074673751158801094
aF0
aF-0.033761238556829401
aF0
aF-0.10646518081831732
aF0
aF-0.056805627135847435
aF0.025766141207937139
aF0
aF-0.015619239940267621
aF-0.23063282346673342
aF0
aF-0.024575204518269184
aF0.18592472387584011
aF0
aF0.00028198257196076538
aF-0.044642799610426102
as(I6
g2
g3
(g5
S'\x07\x00\x00\x00\x00\x00\x00\x00'
tRp91
g2
I0
tp92
(lp93
F0
aF0.11091980531872855
aF0
aF0.12391073190803691
aF0
aF0.17222326604105453
aF0
aF0.21502143066170501
aF0
aF0.090797486825953497
aF0.7185619894142522
aF0
aF0.24371554098583434
aF0.37271544991173705
aF0
aF-0.010685936347106002
aF0.27690762423160503
aF0
aF0.1057031419869339
aF0.063398714364023487
as(I4
g2
g3
(g5
S'\x02\x00\x00\x00\x00\x00\x00\x00'
tRp94
g2
I2
tp95
(lp96
F0
aF-0.19763967784911562
aF0
aF-0.19804951016492955
aF0
aF-0.19660603670033269
aF0
aF-0.15847281918855577
aF0
aF0.031644667725994516
aF-0.49030843679629887
aF0
aF-0.012332319151511789
aF-0.29115631091463245
aF0
aF0.049251511866718944
aF-0.27073876593760915
aF0
aF-0.0010767308312527846
aF-0.075437526445762626
as(I6
g2
g3
(g5
S'\t\x00\x00\x00\x00\x00\x00\x00'
tRp97
g12
I1
tp98
(lp99
F0
aF-0.021944794123015081
aF0
aF-0.020805951419039029
aF0
aF-0.016123267049950492
aF0
aF-0.0044751938798956586
aF0
aF-0.014309684336301913
aF-0.056262560503728243
aF0
aF-0.0020090871065345829
aF-0.013421903507966374
aF0
aF-0.013911214845970405
aF-0.031904655949161871
aF0
aF-0.0010705284515480896
aF-0.000728707675577297
as(I2
g2
g3
(g5
S'\x01\x00\x00\x00\x00\x00\x00\x00'
tRp100
g2
I1
tp101
(lp102
F0
aF0.0053232184771016405
aF0
aF0.0064217911989160881
aF0
aF0.0088112886129013968
aF0
aF0.0036277340328764
aF0
aF-0.0012679429384771087
aF0.044019302485669161
aF0
aF-0.0026192238238002021
aF0.00015844971687608753
aF0
aF0.0027456020946079519
aF0.043703481494097682
aF0
aF0.00034765487368170188
aF-2.8070216942354723e-05
as(I2
g2
g3
(g5
S'\t\x00\x00\x00\x00\x00\x00\x00'
tRp103
g12
I1
tp104
(lp105
F0
aF-0.026419147785903305
aF0
aF-0.026355142079003222
aF0
aF-0.023108053367198601
aF0
aF-0.005118481182772288
aF0
aF-0.015143938439731676
aF-0.10355722236942431
aF0
aF-0.0073547322660605817
aF-0.017328860293428065
aF0
aF-0.0025589223820448727
aF-0.077855495591354004
aF0
aF-5.136658653375924e-05
aF-0.00078209422541373563
as(I0
g2
g3
(g5
S'\x01\x00\x00\x00\x00\x00\x00\x00'
tRp106
g2
I0
tp107
(lp108
F0
aF0.016681473239019917
aF0
aF0.019244072192824868
aF0
aF0.027091838831792586
aF0
aF0.021615787841162724
aF0
aF0.063064544215713239
aF-0.042132825153752822
aF0
aF0.046031531643036569
aF0.016566271703397153
aF0
aF0.013213707805145372
aF-0.052589192099853181
aF0
aF0.0044256829884442381
aF0.0091883876030830411
as(I5
g2
g3
(g5
S'\x00\x00\x00\x00\x00\x00\x00\x00'
tRp109
g2
I1
tp110
(lp111
F0
aF-0.031030727550609649
aF0
aF-0.019126824648692364
aF0
aF0.028406974910840876
aF0
aF0.114880502356007
aF0
aF0.12329622231230872
aF-0.067099375759115135
aF0
aF-0.015292738163690535
aF0.2600620682827357
aF0
aF0.12401608996149766
aF-0.23998571729020218
aF0
aF-0.00091764372144865873
aF0.049233006273122201
as(I1
g2
g3
(g5
S'\x07\x00\x00\x00\x00\x00\x00\x00'
tRp112
g2
I0
tp113
(lp114
F0
aF-0.14400308581418511
aF0
aF-0.15216925305023246
aF0
aF-0.17414821338600295
aF0
aF-0.1340728552814919
aF0
aF-0.35387101517021669
aF-0.31570994599840635
aF0
aF-0.14166207323074093
aF-0.29048281730509667
aF0
aF-0.13987586099546559
aF-0.10549215037117855
aF0
aF-0.0046027173466593879
aF-0.07808842366728394
as(I6
g2
g3
(g5
S'\x04\x00\x00\x00\x00\x00\x00\x00'
tRp115
g2
I2
tp116
(lp117
F0
aF0.058785479502030391
aF0
aF0.060260705290657711
aF0
aF0.065072946293783102
aF0
aF0.061365837459011092
aF0
aF0.18071241045351299
aF0.2239521217084201
aF0
aF0.050659046747241074
aF0.091300334682819326
aF0
aF0.083961183843876894
aF0.19039930539987271
aF0
aF-0.0050779612907176225
aF0.057030786222148577
as(I8
g12
g3
(g5
S'\x04\x00\x00\x00\x00\x00\x00\x00'
tRp118
g2
I0
tp119
(lp120
F-0.18408388814038584
aF0
aF-0.18754907867621046
aF0
aF-0.19589845414101983
aF0
aF-0.16714626548249292
aF0
aF-0.0012472441944692022
aF-0.4867898017980774
aF0
aF-0.0093727464616389072
aF-0.58053775462478152
aF0
aF0.0090704407981855601
aF-0.021450542623660002
aF0
aF-0.0008344478107622736
aF-0.10705425037844853
aF0
as(I0
g2
g3
(g5
S'\x04\x00\x00\x00\x00\x00\x00\x00'
tRp121
g2
I2
tp122
(lp123
F0
aF0.19339707552628155
aF0
aF0.19429734388564876
aF0
aF0.19624262882118076
aF0
aF0.17690780407348897
aF0
aF0.23269879164473486
aF0.84004504599555341
aF0
aF0.054945251880848298
aF0.37281158183260871
aF0
aF0.095998034357835813
aF0.55155016759066977
aF0
aF-0.0062472836773351682
aF0.16470236507714889
as(I5
g2
I5
g2
I1
tp124
(lp125
F-0.037877726220599317
aF-0.023189398829954966
aF-0.024481018677465827
aF-0.022036576836069396
aF0.028081080114274237
aF-0.012092415038715471
aF0.12179857551945591
aF0.04045006779093116
aF0.037340361772780883
aF0.0036403922939713257
aF-0.086901860683781321
aF0.017486773221566859
aF0.29982199552377753
aF0.063259556738049047
aF-0.023517589736284358
aF-0.23743661222135862
aF-0.00077078114363102017
aF-0.0067560348927703136
aF0.04526710672515652
aF0.042151122054974212
as(I1
g2
g3
(g5
S'\x00\x00\x00\x00\x00\x00\x00\x00'
tRp126
g2
I2
tp127
(lp128
F0
aF-0.18362210969887427
aF0
aF-0.17633698148233251
aF0
aF-0.14329108576720534
aF0
aF-0.04293440039405811
aF0
aF-0.0033325503831743335
aF-0.35149635884070435
aF0
aF-0.01867696913630295
aF-0.13967525899001562
aF0
aF0.018134347360682604
aF-0.16968403676773852
aF0
aF-0.00088800274027426272
aF-0.014556473442148441
as(I6
g2
g3
(g5
S'\x03\x00\x00\x00\x00\x00\x00\x00'
tRp129
g2
I0
tp130
(lp131
F0
aF-0.16331609481182061
aF0
aF-0.16464021575426965
aF0
aF-0.16870222708069108
aF0
aF-0.16097910089091996
aF0
aF-0.056719835748514615
aF-0.34353852684221681
aF0
aF-0.10558717132116363
aF-0.27400523819773204
aF0
aF0.022913692664523019
aF-0.057697751073274087
aF0
aF-0.0087229828822245233
aF-0.032836563610343567
as(I0
g2
g3
(g5
S'\x02\x00\x00\x00\x00\x00\x00\x00'
tRp132
g2
I2
tp133
(lp134
F0
aF0
aF0
aF0
aF0
aF0
aF0
aF0
aF0
aF0.16799038350806683
aF0.87283480817371306
aF0
aF-0.0020978333865276227
aF-0.029830319412920824
aF0
aF0.14549042889413377
aF0.76141823399256547
aF0
aF0.00056532724097399349
aF-0.052214892533371964
as(I2
g2
I2
g2
I2
tp135
(lp136
F0.46527646918184451
aF1.225998547181554
aF0.44012915014839304
aF1.1985237534374065
aF0.33694622732178608
aF1.0851395391644019
aF0.085403561833448716
aF0.7559972840241167
aF0.07786007507243195
aF1.3574284372630341
aF1.9000416336665025
aF0.016022323982895718
aF0.37881457305777244
aF1.492960731826263
aF0.050036948777639839
aF0.78099923692902296
aF0.72677258140834011
aF0.00053227909067432078
aF0.021360358253570428
aF0.41681863459839075
as(I1
g2
g3
(g5
S'\x06\x00\x00\x00\x00\x00\x00\x00'
tRp137
g2
I2
tp138
(lp139
F0
aF-0.10779067053578059
aF0
aF-0.10732040297404405
aF0
aF-0.10432304753574864
aF0
aF-0.080936220316526336
aF0
aF0.072652960438571654
aF-0.13711457056721976
aF0
aF-0.013186516105937834
aF-0.20897502230455539
aF0
aF0.078780303112473998
aF-0.028992475065417477
aF0
aF-0.0041927270884235682
aF-0.084041919381870597
as(I0
g2
g3
(g5
S'\x05\x00\x00\x00\x00\x00\x00\x00'
tRp140
g2
I0
tp141
(lp142
F0
aF0.20790231348827265
aF0
aF0.20821095396548778
aF0
aF0.20611474043680489
aF0
aF0.16389852114150771
aF0
aF0.083140043188180829
aF0.374927314020918
aF0
aF0.10724319979745862
aF0.34569143608402425
aF0
aF0.0036679212058062442
aF0.052467364341668779
aF0
aF0.016318935403441186
aF0.066847571292087168
as(I2
g2
I2
g2
I0
tp143
(lp144
F0.12280348156257255
aF-0.13034123059604857
aF0.11382669369461301
aF-0.13869156069541894
aF0.079888390579719554
aF-0.16078139145199763
aF0.014842559454536001
aF-0.12618132915355593
aF0.031835154823066592
aF0.30604522318520061
aF-0.49598147936850895
aF0.0055518469264756801
aF0.039386778878312267
aF-0.27845405351632035
aF0.021138087394524951
aF0.23011111626667716
aF-0.24325956492242362
aF0.00010025589699184661
aF-0.00014201262910849477
aF-0.062687705349286471
as(I0
g2
g3
(g5
S'\x02\x00\x00\x00\x00\x00\x00\x00'
tRp145
g2
I0
tp146
(lp147
F0
aF0
aF0
aF0
aF0
aF0
aF0
aF0
aF0
aF0.024680413237499969
aF-0.14640498384440823
aF0
aF0.0026877748447404911
aF-0.0099563067180791151
aF0
aF0.016805321126864278
aF-0.12311516801273567
aF0
aF2.0565129247097851e-05
aF0.0026580747705260577
as(I1
g2
g3
(g5
S'\x03\x00\x00\x00\x00\x00\x00\x00'
tRp148
g2
I0
tp149
(lp150
F0
aF0.1209567911853156
aF0
aF0.12315081977123779
aF0
aF0.12913445451049127
aF0
aF0.10843746398384078
aF0
aF-0.071650373444492529
aF0.44887436435194328
aF0
aF0.06445724079983832
aF0.13839834327802511
aF0
aF-0.12882702677557853
aF0.28328216819493784
aF0
aF0.023073440024747392
aF0.031009451506089615
as(I6
g2
g3
(g5
S'\x00\x00\x00\x00\x00\x00\x00\x00'
tRp151
g2
I2
tp152
(lp153
F0
aF-0.1581279058436334
aF0
aF-0.15669818832221832
aF0
aF-0.14973064955799109
aF0
aF-0.11198874662281676
aF0
aF0.071315397074177514
aF-0.22067538998313763
aF0
aF-0.015898388607133742
aF-0.21399121157230419
aF0
aF0.050063018556183142
aF-0.045948401933078808
aF0
aF-0.0049516758043388386
aF-0.060154711842524231
as(I3
g2
g3
(g5
S'\x07\x00\x00\x00\x00\x00\x00\x00'
tRp154
g2
I2
tp155
(lp156
F0
aF-0.11549796191985975
aF0
aF-0.10964614376570923
aF0
aF-0.085915283968076517
aF0
aF-0.02582352764170805
aF0
aF0.010533182296968108
aF-0.41222840444835868
aF0
aF-0.031330427676961772
aF-0.089028101313944702
aF0
aF0.043842052587490396
aF-0.29232048397876392
aF0
aF-0.0059603113949587847
aF-0.0087617603047715278
as(I1
g2
g3
(g5
S'\t\x00\x00\x00\x00\x00\x00\x00'
tRp157
g12
I2
tp158
(lp159
F0
aF0.24641556205546253
aF0
aF0.24720680657857463
aF0
aF0.24733567346256408
aF0
aF0.21041435878890097
aF0
aF0.10423775979209546
aF0.3923307007620418
aF0
aF0.083981290426402538
aF0.21935019832089431
aF0
aF0.030080645038466788
aF0.19474438496758603
aF0
aF0.011054950050801565
aF0.02819901845968191
as(I0
g2
g3
(g5
S'\x06\x00\x00\x00\x00\x00\x00\x00'
tRp160
g2
I2
tp161
(lp162
F0
aF0.1581279058436334
aF0
aF0.15669818832221832
aF0
aF0.14973064955799109
aF0
aF0.11198874662281676
aF0
aF0.16881061165107314
aF0.75318086095442216
aF0
aF0.014206652846401413
aF0.24520066943566676
aF0
aF0.11100939177356998
aF0.5254746741254448
aF0
aF-0.0012605091724812113
aF0.085421262218974656
as(I1
g2
g3
(g5
S'\x02\x00\x00\x00\x00\x00\x00\x00'
tRp163
g2
I2
tp164
(lp165
F0
aF-0.21256385943227896
aF0
aF-0.19513686652882103
aF0
aF-0.12998694542283257
aF0
aF-0.017363901018799366
aF0
aF-0.014434382229553316
aF-0.36718539795549571
aF0
aF-0.0072871748248209715
aF-0.072795606225415588
aF0
aF-0.0017767033244497582
aF-0.23726764898051209
aF0
aF-9.9857572145411387e-05
aF-0.0023322207297988783
as(I3
g2
g3
(g5
S'\x06\x00\x00\x00\x00\x00\x00\x00'
tRp166
g2
I0
tp167
(lp168
F0
aF0.16331609481182063
aF0
aF0.16464021575426968
aF0
aF0.16870222708069108
aF0
aF0.16097910089091999
aF0
aF0.065709812052694466
aF0.4409370448175976
aF0
aF0.067138681512322759
aF0.47213558422122859
aF0
aF-0.027954357684402496
aF0.11567666494901038
aF0
aF0.0021873391889090585
aF0.12114800053004725
as(I2
g2
g3
(g5
S'\x06\x00\x00\x00\x00\x00\x00\x00'
tRp169
g2
I0
tp170
(lp171
F0
aF-0.19883482646693956
aF0
aF-0.2061581522146117
aF0
aF-0.22696162380087687
aF0
aF-0.21037191534746288
aF0
aF-0.0081482399018078539
aF-0.56872877432249114
aF0
aF-0.028998461112949521
aF-0.50401367855937673
aF0
aF0.0039585743415377749
aF-0.1824507312419768
aF0
aF-0.0074187651443774379
aF-0.17131652216382051
as(I1
g2
g3
(g5
S'\x08\x00\x00\x00\x00\x00\x00\x00'
tRp172
g12
I0
tp173
(lp174
F0
aF-0.038558148782814605
aF0
aF-0.045805648475906957
aF0
aF-0.070252714201844563
aF0
aF-0.072316030855218164
aF0
aF-0.18629319728909061
aF-0.20966350538095008
aF0
aF-0.046543001606839642
aF-0.12469788412503631
aF0
aF-0.095343493119369252
aF-0.038283987471368894
aF0
aF-0.00044703458391040507
aF-0.012198701558838324
as(I2
g2
g3
(g5
S'\t\x00\x00\x00\x00\x00\x00\x00'
tRp175
g12
I0
tp176
(lp177
F0
aF0.097538233001599806
aF0
aF0.089589162020229332
aF0
aF0.060285717391397091
aF0
aF0.009093338404924288
aF0
aF0.025789719657862694
aF0.22320740578082643
aF0
aF0.011262929705896154
aF0.040913008107556513
aF0
aF0.0095002451742393808
aF0.15476724329166788
aF0
aF0.00040177804261964136
aF0.0014158247341130195
as(I4
g2
I4
g2
I1
tp178
(lp179
F-0.01254999012809746
aF0.0068076306507148104
aF-0.00013106483135763569
aF0.0041042203402203818
aF0.041928027591017748
aF-0.0056742244327629828
aF0.079860113283855963
aF-0.024397249664225448
aF0.027461505759080303
aF0.1112008845627727
aF0.012563705376606652
aF-0.0029304478913988528
aF0.22491278537099044
aF-0.06396812574679045
aF0.03141360081510914
aF-0.065189681096755783
aF0.032728667656360205
aF0.00010906358854174942
aF0.023589554277564512
aF-0.025041206295625031
as(I3
g2
I3
g2
I2
tp180
(lp181
F0.20552840837797534
aF-1.226930295034059
aF0.20116243982836374
aF-1.1893314848905367
aF0.18229115794215045
aF-1.0399218642160297
aF0.1211230927774689
aF-0.64207846591732964
aF0.040805700185379198
aF-0.11700744361120563
aF-1.8350526827330189
aF0.0096184156536450165
aF-0.081555278053390162
aF-0.85030531607871829
aF0.034689849596059724
aF-0.073383261545287182
aF-1.0375970455679075
aF0.0021056520592189504
aF-0.043529554272984432
aF-0.22623311286075762
as(I6
g2
I6
g2
I1
tp182
(lp183
F-0.024557911328543153
aF-0.017084358684773149
aF-0.029545122939526394
aF-0.011598065734470392
aF-0.046556312066854288
aF0.0043589403632774068
aF-0.047380164322828176
aF0.005386252717152768
aF-0.012975237005481206
aF-0.17494256605572908
aF0.015611617822721623
aF0.00018762467043147938
aF-0.14491250602730429
aF0.037890566702334767
aF-0.013412325134100515
aF-0.001965232701640506
aF-0.068701922581938871
aF-0.00025504773644072622
aF-0.0138938446333005
aF-0.011815700105418818
as(I3
g2
g3
(g5
S'\x05\x00\x00\x00\x00\x00\x00\x00'
tRp184
g2
I2
tp185
(lp186
F0
aF-0.15929366091025576
aF0
aF-0.15406404752083888
aF0
aF-0.13244261429381221
aF0
aF-0.067883187641998369
aF0
aF-0.0012395142879165792
aF-0.43264947919702518
aF0
aF-0.042376041174774996
aF-0.1402208856808953
aF0
aF0.024199576108412856
aF-0.29944878455272989
aF0
aF-0.016567026837117891
aF-0.039416889076201035
as(I8
g12
g3
(g5
S'\x03\x00\x00\x00\x00\x00\x00\x00'
tRp187
g2
I0
tp188
(lp189
F-0.046730703621378489
aF0
aF-0.05054027535820152
aF0
aF-0.058748591311732809
aF0
aF-0.029155068723025299
aF0
aF0.16996614765241244
aF-0.2119610789806361
aF0
aF0.0046100845730631668
aF-0.096125273053525848
aF0
aF0.14768611687583444
aF-0.075893606646824624
aF0
aF-0.0017396756247662728
aF-0.004828254477763169
aF0
as(I6
g2
g3
(g5
S'\x08\x00\x00\x00\x00\x00\x00\x00'
tRp190
g12
I0
tp191
(lp192
F0
aF0.19443546539281309
aF0
aF0.19262572227721028
aF0
aF0.17662704277759578
aF0
aF0.081795442428876444
aF0
aF0.023752328367125774
aF0.82833483849033351
aF0
aF0.044704741208622001
aF0.19297046489776515
aF0
aF-0.0016520405678673339
aF0.50505346209571544
aF0
aF0.011376550207868059
aF0.012744401589648629
as(I5
g2
g3
(g5
S'\x07\x00\x00\x00\x00\x00\x00\x00'
tRp193
g2
I2
tp194
(lp195
F0
aF0.068020605074074439
aF0
aF0.069418036670377159
aF0
aF0.073548118072282828
aF0
aF0.064518791819274279
aF0
aF0.489629246894773
aF-0.22649257386935945
aF0
aF0.053398627357283263
aF0.11362881139529081
aF0
aF0.34618058317016281
aF-0.23763080004823245
aF0
aF-0.0066946994936172679
aF0.069468125989940982
as(I2
g2
g3
(g5
S'\x08\x00\x00\x00\x00\x00\x00\x00'
tRp196
g12
I0
tp197
(lp198
F0
aF0.025265248560972738
aF0
aF0.024237531674383674
aF0
aF0.019602673188322456
aF0
aF0.0057492210496117111
aF0
aF0.025212296487803078
aF0.062935355424208861
aF0
aF0.012509057647522618
aF0.017485108729445968
aF0
aF0.0084908909482330208
aF0.048254345461908182
aF0
aF0.0013010540556600133
aF0.0006285427989726071
as(I0
g2
I0
g2
I1
tp199
(lp200
F0.034861952561136923
aF-0.0018276714710161179
aF0.030404654026411619
aF-0.0030308881939983545
aF0.014757765700363374
aF-0.0053394147268134434
aF-0.006272987107585188
aF0.0027294705928288879
aF0.017816990704744413
aF0.042031647889709915
aF-0.0063564120227490445
aF0.0032609304452795107
aF-0.025167290091615731
aF-0.0045783417585503472
aF0.010386751324298867
aF0.095439719732040046
aF-0.064309960807303487
aF8.9456110320525632e-06
aF0.0045269667342003788
aF-0.010984755380058539
as(I5
g2
g3
(g5
S'\x01\x00\x00\x00\x00\x00\x00\x00'
tRp201
g2
I0
tp202
(lp203
F0
aF0.20992822329196409
aF0
aF0.21981932179256514
aF0
aF0.25048990976109131
aF0
aF0.25677279360184746
aF0
aF0.10000051336649991
aF0.39037815764888661
aF0
aF0.1454605081400642
aF0.50132771979500468
aF0
aF-0.01814038838577002
aF0.045496419438428332
aF0
aF0.026897651341126365
aF0.1929474906278453
as(I7
g2
g3
(g5
S'\x08\x00\x00\x00\x00\x00\x00\x00'
tRp204
g12
I0
tp205
(lp206
F0
aF-0.062479625538705778
aF0
aF-0.063618758246244134
aF0
aF-0.067542959828215288
aF0
aF-0.070155265085483198
aF0
aF0.18943897485771802
aF-0.36292144005147847
aF0
aF-0.061678804744871044
aF-0.084849137387878887
aF0
aF0.18492468696231767
aF-0.27358848007638087
aF0
aF-0.0066263425825487362
aF-0.0060196775107399314
as(I4
g2
g3
(g5
S'\x01\x00\x00\x00\x00\x00\x00\x00'
tRp207
g2
I2
tp208
(lp209
F0
aF0.057964165560426772
aF0
aF0.057217750724709922
aF0
aF0.054284756327133962
aF0
aF0.043806657834776427
aF0
aF0.10474359261974309
aF0.12997395531621964
aF0
aF0.052398481835777569
aF0.065564022281250384
aF0
aF0.082980435169511771
aF0.046955291960776017
aF0
aF0.010637825009637133
aF0.020112549634779455
as(I3
g2
g3
(g5
S'\x02\x00\x00\x00\x00\x00\x00\x00'
tRp210
g2
I1
tp211
(lp212
F0
aF0.0014073160344491259
aF0
aF0.0013219648708307306
aF0
aF0.00098023924527437844
aF0
aF0.00021935068683322763
aF0
aF0.0014980101217431339
aF-0.00050518996749276956
aF0
aF0.00020535789226930183
aF0.0015037851620398786
aF0
aF3.6720719002478718e-05
aF0.004400821089173855
aF0
aF-4.6314294175032848e-05
aF0.00059619781389690899
as(I0
g2
g3
(g5
S'\x08\x00\x00\x00\x00\x00\x00\x00'
tRp213
g12
I2
tp214
(lp215
F0
aF0.25176670262766726
aF0
aF0.25046462799751784
aF0
aF0.23996301733805864
aF0
aF0.1489283504093688
aF0
aF0.049632935316757026
aF1.1687724834588029
aF0
aF0.076151252678203996
aF0.28725649697520522
aF0
aF0.0037340786057861843
aF0.6389071917160255
aF0
aF0.017365115175324065
aF0.0056811871217314989
as(I6
g2
g3
(g5
S'\t\x00\x00\x00\x00\x00\x00\x00'
tRp216
g12
I2
tp217
(lp218
F0
aF0.19918332890607068
aF0
aF0.18884655018731117
aF0
aF0.14634386569535346
aF0
aF0.040619383781907221
aF0
aF0.048693603035649569
aF0.44587960581755764
aF0
aF0.010046542169235645
aF0.084140687810632747
aF0
aF0.03423079861619438
aF0.30781709618542685
aF0
aF0.0021817262871218204
aF0.0057176653295279694
as(I2
g2
g3
(g5
S'\x01\x00\x00\x00\x00\x00\x00\x00'
tRp219
g2
I0
tp220
(lp221
F0
aF0.03425748025228903
aF0
aF0.035065000781562453
aF0
aF0.033987108628919759
aF0
aF0.010114454745506901
aF0
aF0.045239848447098503
aF0.013177758735161303
aF0
aF0.023441323659581226
aF0.021132114256152735
aF0
aF0.013151152286524017
aF-0.0093182825785804793
aF0
aF0.0012773074781618318
aF0.002076403264206406
as(I2
g2
g3
(g5
S'\t\x00\x00\x00\x00\x00\x00\x00'
tRp222
g12
I2
tp223
(lp224
F0
aF0.15240672408299749
aF0
aF0.13998603703042373
aF0
aF0.094198432900312226
aF0
aF0.014208642853412046
aF0
aF0.066123023019300647
aF0.33553812510693126
aF0
aF0.020606579236401277
aF0.047391590958919087
aF0
aF0.030936682374838733
aF0.25964639120628163
aF0
aF0.00040341977198050992
aF0.0023315541949916279
as(I0
g2
g3
(g5
S'\x01\x00\x00\x00\x00\x00\x00\x00'
tRp225
g2
I1
tp226
(lp227
F0
aF-0.015821601904534605
aF0
aF-0.015193886654695482
aF0
aF-0.012346522535848777
aF0
aF-0.0036993965060017247
aF0
aF0.0010186921875111981
aF-0.052730568678744684
aF0
aF0.0017946159081998576
aF0.00058208952857535367
aF0
aF-0.003388842320253709
aF-0.052202447705937564
aF0
aF-0.00069262603639329398
aF2.3373919269121932e-05
as(I8
g12
g3
(g5
S'\x07\x00\x00\x00\x00\x00\x00\x00'
tRp228
g2
I0
tp229
(lp230
F0.062479625538705778
aF0
aF0.063618758246244134
aF0
aF0.067542959828215288
aF0
aF0.070155265085483198
aF0
aF0.27521215267411375
aF0.014754640555535433
aF0
aF-0.018814800564228008
aF0.14016611310186389
aF0
aF0.18931312306377804
aF0.0398877406297743
aF0
aF-0.0070483641543688819
aF0.12952060965327589
aF0
as(I6
g2
g3
(g5
S'\x00\x00\x00\x00\x00\x00\x00\x00'
tRp231
g2
I0
tp232
(lp233
F0
aF0.21058111627676923
aF0
aF0.21654006359751782
aF0
aF0.2308289548868443
aF0
aF0.19143132964076862
aF0
aF0.13141492960039688
aF0.96844054221952902
aF0
aF0.052153157170440799
aF0.36599976490332753
aF0
aF0.046238075648046051
aF0.52747204291629846
aF0
aF0.0007548629386760049
aF0.078928483068623753
as(I4
g2
g3
(g5
S'\x07\x00\x00\x00\x00\x00\x00\x00'
tRp234
g2
I0
tp235
(lp236
F0
aF0.23561617068957799
aF0
aF0.24324495804479535
aF0
aF0.25522260692260079
aF0
aF0.151663003883861
aF0
aF0.30650826072276355
aF0.94731560239222656
aF0
aF0.14932995889452333
aF0.3270897766149472
aF0
aF0.18117560510231731
aF0.47893126659192919
aF0
aF0.050387363093946501
aF0.038866947939537627
as(I9
g12
g3
(g5
S'\x01\x00\x00\x00\x00\x00\x00\x00'
tRp237
g2
I2
tp238
(lp239
F-0.2464155620554625
aF0
aF-0.24720680657857458
aF0
aF-0.24733567346256402
aF0
aF-0.21041435878890094
aF0
aF-0.10526079047376269
aF-0.8583771757010038
aF0
aF-0.023562873976425956
aF-0.45256021001534741
aF0
aF-0.068407442578832536
aF-0.46332384838487872
aF0
aF-0.0026588424594744123
aF-0.13215480215356673
aF0
as(I0
g2
g3
(g5
S'\t\x00\x00\x00\x00\x00\x00\x00'
tRp240
g12
I0
tp241
(lp242
F0
aF0.092694628889745986
aF0
aF0.086313879163788493
aF0
aF0.061454541827114628
aF0
aF0.011011851574783458
aF0
aF0.043360165568792471
aF0.23954377129586937
aF0
aF0.01142713147341293
aF0.040005236764409674
aF0
aF0.020454074170447895
aF0.16332434364086307
aF0
aF6.891161488080467e-05
aF0.0014654001294804235
as(I5
g2
I5
g2
I0
tp243
(lp244
F-0.059224081735245106
aF-0.29917295074364197
aF-0.061185934738503964
aF-0.29879428787207141
aF-0.070906213278602054
aF-0.29949793759111842
aF-0.1034626553241451
aF-0.25549379499003311
aF-0.027035820757746378
aF-0.14083123782991258
aF-1.0602599172585574
aF-0.0021071688905354305
aF-0.38226095517542152
aF-0.58169929328630576
aF-0.026429003436303986
aF0.033303128420942837
aF-0.31297204980417276
aF-0.0015119531706724969
aF-0.13629590694117116
aF-0.028133130105995538
as(I6
g2
g3
(g5
S'\x03\x00\x00\x00\x00\x00\x00\x00'
tRp245
g2
I1
tp246
(lp247
F0
aF-0.040967269006307511
aF0
aF-0.027375683748072713
aF0
aF0.026534174199014396
aF0
aF0.12951875491859582
aF0
aF-0.058135220494614399
aF0.01979236778973089
aF0
aF0.060703544874156183
aF0.15698462596583476
aF0
aF-0.04008424704627539
aF-0.15078744136399388
aF0
aF0.048263365123141937
aF0.01024190412484966
as(I5
g2
g3
(g5
S'\x08\x00\x00\x00\x00\x00\x00\x00'
tRp248
g12
I2
tp249
(lp250
F0
aF0.2254434416419423
aF0
aF0.22658319074843852
aF0
aF0.22896031205517445
aF0
aF0.20532794841976446
aF0
aF0.23187453391893156
aF0.32633459807404508
aF0
aF0.092535071765253829
aF0.29753653417385606
aF0
aF0.10539067219816903
aF0.087488101157542575
aF0
aF0.0045543183534665754
aF0.044235436615394773
as(I9
g12
g3
(g5
S'\x00\x00\x00\x00\x00\x00\x00\x00'
tRp251
g2
I0
tp252
(lp253
F-0.092694628889745986
aF0
aF-0.086313879163788493
aF0
aF-0.061454541827114628
aF0
aF-0.011011851574783458
aF0
aF-0.073701436639288367
aF-0.2388533989001986
aF0
aF-0.0034617379902747753
aF-0.05761992278341669
aF0
aF-0.063653814835591738
aF-0.15411287374351412
aF0
aF2.7241570633932443e-06
aF-0.0030273164108070949
aF0
as(I0
g2
g3
(g5
S'\x05\x00\x00\x00\x00\x00\x00\x00'
tRp254
g2
I1
tp255
(lp256
F0
aF0.031030727550609649
aF0
aF0.019126824648692364
aF0
aF-0.028406974910840876
aF0
aF-0.114880502356007
aF0
aF0.018237839053209089
aF-0.0043629972359866265
aF0
aF-0.057091095342995973
aF-0.19997889870398167
aF0
aF0.027825656417703976
aF0.16379882129180443
aF0
aF-0.016740936566078859
aF-0.060288759957748718
as(I9
g12
I9
g12
I2
tp257
(lp258
F-0.074914457652357949
aF-1.5935211435948118
aF-0.074157187979411718
aF-1.5394584952045314
aF-0.070741707664604192
aF-1.3224092369825324
aF-0.054668158261248365
aF-0.74316126873794452
aF-0.0047405478949051538
aF-0.57628346029922639
aF-2.3509958672872617
aF-0.0020159562130330684
aF-0.33969263205255334
aF-1.029566219608633
aF-0.0031992984295547491
aF-0.23380558566861792
aF-1.2705373548850298
aF-0.00045779225343317716
aF-0.09582984056574885
aF-0.15895020925999728
as(I4
g2
g3
(g5
S'\x03\x00\x00\x00\x00\x00\x00\x00'
tRp259
g2
I0
tp260
(lp261
F0
aF-0.21871787610131879
aF0
aF-0.2198269785947233
aF0
aF-0.22073088530627494
aF0
aF-0.18454134200901165
aF0
aF-0.032963660852389221
aF-0.59296219068118239
aF0
aF-0.12605706579410025
aF-0.24460002704212189
aF0
aF0.027169544808101222
aF-0.29924956292965854
aF0
aF-0.079917910306519443
aF-0.035954828303329252
as(I4
g2
g3
(g5
S'\x07\x00\x00\x00\x00\x00\x00\x00'
tRp262
g2
I2
tp263
(lp264
F0
aF0.066536017881742432
aF0
aF0.065279021335502507
aF0
aF0.059123641528267309
aF0
aF0.030545211215180695
aF0
aF0.20964442859700155
aF-0.12160835778235252
aF0
aF0.039206322864646898
aF0.088179998512818658
aF0
aF0.17164329165826936
aF-0.21170066549865024
aF0
aF0.011870201642000082
aF0.013248116068643546
as(I3
g2
g3
(g5
S'\x07\x00\x00\x00\x00\x00\x00\x00'
tRp265
g2
I1
tp266
(lp267
F0
aF-0.025232352640213659
aF0
aF-0.033990889554903952
aF0
aF-0.056327969420920714
aF0
aF-0.033913988256341628
aF0
aF-0.094315699706158024
aF-0.12378957795786179
aF0
aF-0.041820987611169751
aF-0.085647117936847109
aF0
aF-0.062452610479471378
aF-0.033228402124359638
aF0
aF-0.0062166423703726992
aF-0.012784352529567828
as(I1
g2
g3
(g5
S'\t\x00\x00\x00\x00\x00\x00\x00'
tRp268
g12
I1
tp269
(lp270
F0
aF-0.034592148122535513
aF0
aF-0.021879099050904405
aF0
aF0.028233203323298331
aF0
aF0.11741119143779186
aF0
aF-0.033298908517874704
aF0.13621918158155522
aF0
aF0.047728861040476821
aF0.10496137391800489
aF0
aF-0.032763482708972398
aF-0.075398167764313559
aF0
aF0.014451545694671686
aF-0.00680904646695271
as(I9
g12
g3
(g5
S'\x03\x00\x00\x00\x00\x00\x00\x00'
tRp271
g2
I2
tp272
(lp273
F-0.13778368673670158
aF0
aF-0.1375170618051498
aF0
aF-0.13526243188442785
aF0
aF-0.11130715731336371
aF0
aF-0.03900424557253724
aF-0.69638682351060499
aF0
aF-0.0056047462003387056
aF-0.21568222421233399
aF0
aF-0.040419631786409456
aF-0.48347034832440572
aF0
aF-0.0018356592089808343
aF-0.061697986581148431
aF0
as(I7
g2
g3
(g5
S'\x01\x00\x00\x00\x00\x00\x00\x00'
tRp274
g2
I2
tp275
(lp276
F0
aF-0.0058369432917170653
aF0
aF-0.005626916705700237
aF0
aF-0.0047510540905406507
aF0
aF-0.0022047019602685924
aF0
aF0.19664275002228604
aF-0.14523822151613727
aF0
aF-0.030737368171913679
aF0.013530735073310313
aF0
aF0.22532610076345796
aF-0.17189063409822258
aF0
aF-0.00050748587333770934
aF-0.00068662789929199058
as(I9
g12
g3
(g5
S'\x08\x00\x00\x00\x00\x00\x00\x00'
tRp277
g12
I0
tp278
(lp279
F-0.20761716089338739
aF0
aF-0.21704091440037449
aF0
aF-0.24433773161593392
aF0
aF-0.22532633275416497
aF0
aF-0.019803179220748073
aF-0.47891273447393995
aF0
aF-0.0084214616269947494
aF-0.42911589620172513
aF0
aF-0.013364759007966548
aF-0.12564808232870542
aF0
aF-0.0019123827543965201
aF-0.11923945715419028
aF0
as(I6
g2
g3
(g5
S'\x05\x00\x00\x00\x00\x00\x00\x00'
tRp280
g2
I1
tp281
(lp282
F0
aF0.0034820160919786791
aF0
aF0.0066751795306114886
aF0
aF0.015943344581062849
aF0
aF0.012102736234796199
aF0
aF-0.035890506183006245
aF0.056165448354394389
aF0
aF0.0086776816670135221
aF0.030196825941569676
aF0
aF-0.033680393862414795
aF-0.00054169470008827479
aF0
aF0.0011755412584253202
aF0.00078112898700375809
as(I3
g2
g3
(g5
S'\x06\x00\x00\x00\x00\x00\x00\x00'
tRp283
g2
I1
tp284
(lp285
F0
aF0.040967269006307455
aF0
aF0.027375683748072685
aF0
aF-0.026534174199014493
aF0
aF-0.12951875491859585
aF0
aF-0.071914993894976645
aF0.17984259565305855
aF0
aF-0.005658877482683981
aF-0.33476168701152936
aF0
aF-0.094471661911518373
aF0.35132588292555977
aF0
aF-0.0027986149865266039
aF-0.13473306918141795
as(I8
g12
g3
(g5
S'\x02\x00\x00\x00\x00\x00\x00\x00'
tRp286
g2
I1
tp287
(lp288
F0.0012125038320040249
aF0
aF-0.00094533133187502116
aF0
aF-0.008226309376183516
aF0
aF-0.011062248156032586
aF0
aF0.012179820012748076
aF-0.031346895870176
aF0
aF-0.0017046404721363598
aF-0.039794778230967533
aF0
aF0.014911154121952243
aF0.0430416635474489
aF0
aF2.6352945604049003e-05
aF-0.0023622090935155296
aF0
as(I1
g2
g3
(g5
S'\x08\x00\x00\x00\x00\x00\x00\x00'
tRp289
g12
I1
tp290
(lp291
F0
aF-0.0099672993718900229
aF0
aF-0.0097081264251736195
aF0
aF-0.008428997107872295
aF0
aF-0.0035275625360429047
aF0
aF0.048499634527663878
aF-0.042283324653726632
aF0
aF-0.017325730548457173
aF-0.0038529193716808135
aF0
aF0.071091544211914992
aF-0.07021435529599894
aF0
aF-0.00014810434639508176
aF-0.0031101995391540549
as(I3
g2
I3
g2
I1
tp292
(lp293
F0.02779873422139767
aF-0.007637307064403534
aF0.019639014215644762
aF-0.0088285792377838235
aF-0.017903673858831681
aF-0.0030371740468341443
aF-0.11492108088142507
aF0.054751317975580166
aF-0.026465496098867253
aF0.03581057477277505
aF-0.046968424791942305
aF0.011329764892895481
aF-0.16076553923522832
aF0.046881410382233646
aF-0.040113880271443768
aF0.098111940622230109
aF-0.02872879792294606
aF0.00075054699991482351
aF-0.075126694499906749
aF0.022784721998634294
as(I7
g2
g3
(g5
S'\t\x00\x00\x00\x00\x00\x00\x00'
tRp294
g12
I1
tp295
(lp296
F0
aF0.016685059510377249
aF0
aF0.012198539812515771
aF0
aF-0.0028459797452964654
aF0
aF-0.018650168686391525
aF0
aF-0.11768846527828417
aF-0.03346997123481537
aF0
aF0.044699233810828437
aF-0.0042688820864629443
aF0
aF-0.17278957429737116
aF-0.011814662786890084
aF0
aF0.00052201799139735847
aF-0.0094227344325402869
as(I1
g2
g3
(g5
S'\x05\x00\x00\x00\x00\x00\x00\x00'
tRp297
g2
I2
tp298
(lp299
F0
aF-0.052949856399280494
aF0
aF-0.052834235891035267
aF0
aF-0.052275861362085077
aF0
aF-0.046954251809345607
aF0
aF0.22281835154017809
aF-0.11344967089681435
aF0
aF-0.033911530514129776
aF-0.14234117979864983
aF0
aF0.18033634326633402
aF-0.018698925685897341
aF0
aF-0.028219586659568707
aF-0.029172758880313236
as(I6
g2
I6
g2
I0
tp300
(lp301
F0.13691058818950136
aF0.23439009074403533
aF0.13063978445592986
aF0.25680009174772211
aF0.10496320243015669
aF0.33007949633632855
aF0.044331743245694208
aF0.33709941984041264
aF0.055505197029939307
aF0.40793647272108879
aF0.9816208645483524
aF0.0076892807782513702
aF0.22138774448813198
aF0.73505476925114244
aF0.039502144081367631
aF0.18048363420812458
aF0.26152586222415358
aF8.2228651875967322e-05
aF0.031672742415243801
aF0.18975459094994132
as(I8
g12
g3
(g5
S'\t\x00\x00\x00\x00\x00\x00\x00'
tRp302
g12
I2
tp303
(lp304
F0.074914457652357949
aF0
aF0.074157187979411718
aF0
aF0.070741707664604192
aF0
aF0.054668158261248365
aF0
aF0.0047405478949051538
aF-0.41214933362087608
aF0
aF0.0020159562130330684
aF0.098740031943198373
aF0
aF0.0031992984295547491
aF-0.44421524391016803
aF0
aF0.00045779225343317716
aF0.03844069174937044
aF0
as(I8
g12
g3
(g5
S'\x03\x00\x00\x00\x00\x00\x00\x00'
tRp305
g2
I1
tp306
(lp307
F-0.0031149497416251143
aF0
aF-0.0058796367515698694
aF0
aF-0.013937654759675983
aF0
aF-0.010849404749138689
aF0
aF0.036732763992619911
aF-0.03855935175348707
aF0
aF-0.0080516305921102642
aF-0.016799117523506435
aF0
aF0.055435885889328122
aF-0.013703156195905411
aF0
aF0.0010435583724949047
aF-0.001164092129924284
aF0
as(I1
g2
g3
(g5
S'\x00\x00\x00\x00\x00\x00\x00\x00'
tRp308
g2
I1
tp309
(lp310
F0
aF0.015821601904534612
aF0
aF0.015193886654695487
aF0
aF0.012346522535848784
aF0
aF0.0036993965060017277
aF0
aF0.012813692380068515
aF0.028649929021948232
aF0
aF0.000601444245128674
aF0.017678721092392033
aF0
aF0.012569430883741073
aF-0.0080297420794372982
aF0
aF6.7771373375277377e-05
aF0.0014353035820003622
as(I0
g2
g3
(g5
S'\t\x00\x00\x00\x00\x00\x00\x00'
tRp311
g12
I1
tp312
(lp313
F0
aF0.034475398865147472
aF0
aF0.032974985160830105
aF0
aF0.025626787987927609
aF0
aF0.005153678516275342
aF0
aF0.013827826126302612
aF0.1085188476868168
aF0
aF0.0061939749855426038
aF0.016313605330853527
aF0
aF0.0025605934819598638
aF0.083167660379664138
aF0
aF7.3332099628692986e-05
aF0.00081119968571275131
as(I2
g2
g3
(g5
S'\x03\x00\x00\x00\x00\x00\x00\x00'
tRp314
g2
I0
tp315
(lp316
F0
aF-0.046173881276972348
aF0
aF-0.049154310605009785
aF0
aF-0.054481184545593177
aF0
aF-0.024524419594370187
aF0
aF0.0096826873615156461
aF-0.29400936520659515
aF0
aF0.0029877724922554097
aF-0.053551572500934161
aF0
aF0.00504777473213785
aF-0.20068001096799837
aF0
aF0.00012933284620369239
aF-0.0029354576109698188
as(I9
g12
g3
(g5
S'\x05\x00\x00\x00\x00\x00\x00\x00'
tRp317
g2
I1
tp318
(lp319
F0.00048944273990719767
aF0
aF0.00025217794065193755
aF0
aF-0.00070920602575999525
aF0
aF-0.0023178491081177477
aF0
aF-0.09422844491775352
aF-0.011728086091033721
aF0
aF0.029615934771441768
aF-0.0023936051896702266
aF0
aF-0.087585436926140375
aF-0.0015204717055544779
aF0
aF0.0060718824660218511
aF-0.0076007546082011287
aF0
as(I9
g12
g3
(g5
S'\x05\x00\x00\x00\x00\x00\x00\x00'
tRp320
g2
I2
tp321
(lp322
F-0.29445612445129588
aF0
aF-0.29155378058574266
aF0
aF-0.27063389042364072
aF0
aF-0.13737832694431909
aF0
aF-0.15524676618049529
aF-1.0024150549403987
aF0
aF-0.077683378878189407
aF-0.32630196080658247
aF0
aF-0.068884382378416764
aF-0.6124916124914217
aF0
aF-0.011709799499782582
aF-0.054268753592022496
aF0
as(I8
g12
g3
(g5
S'\x06\x00\x00\x00\x00\x00\x00\x00'
tRp323
g2
I1
tp324
(lp325
F0.0026131172055280927
aF0
aF0.0087391715204873793
aF0
aF0.030433045016903817
aF0
aF0.042904970442932518
aF0
aF0.017405065310872166
aF0.071101644938975486
aF0
aF-6.0999006148711264e-05
aF0.15359532389335606
aF0
aF0.019775080828626283
aF-0.0322680009334122
aF0
aF0.00036549197535806814
aF0.021692094599924057
aF0
as(I7
g2
g3
(g5
S'\x08\x00\x00\x00\x00\x00\x00\x00'
tRp326
g12
I1
tp327
(lp328
F0
aF0.042482742111601496
aF0
aF0.029822643130559628
aF0
aF-0.026473439300157942
aF0
aF-0.19112034416378962
aF0
aF-0.0061405894852899767
aF-0.23009994416413257
aF0
aF-0.049396362093776722
aF-0.092484573922768459
aF0
aF0.052876097602781363
aF-0.031981554810063574
aF0
aF0.0014580722655740108
aF0.013895483419739892
as(I1
g2
g3
(g5
S'\x04\x00\x00\x00\x00\x00\x00\x00'
tRp329
g2
I0
tp330
(lp331
F0
aF0.1774323390627488
aF0
aF0.18880755011163614
aF0
aF0.22677005478112197
aF0
aF0.24299956517402097
aF0
aF0.02595463222752711
aF0.54856081001018864
aF0
aF0.11001333801474926
aF0.58803872469620011
aF0
aF-0.019059290653617802
aF0.18195713855874959
aF0
aF0.029511975948984109
aF0.23047519651771692
as(I6
g2
g3
(g5
S'\x02\x00\x00\x00\x00\x00\x00\x00'
tRp332
g2
I0
tp333
(lp334
F0
aF0.19883482646693962
aF0
aF0.20615815221461176
aF0
aF0.22696162380087689
aF0
aF0.21037191534746291
aF0
aF0.11435438533257823
aF0.94575010369478962
aF0
aF0.03224398958327182
aF0.39822726677618203
aF0
aF0.064573615215199082
aF0.48715846841321886
aF0
aF0.0019053640284767694
aF0.078313742651245258
as(I7
g2
g3
(g5
S'\x01\x00\x00\x00\x00\x00\x00\x00'
tRp335
g2
I1
tp336
(lp337
F0
aF-0.014473268751003382
aF0
aF-0.023054739010751196
aF0
aF-0.051076356265492825
aF0
aF-0.062778885274503732
aF0
aF-0.14462212813437836
aF-0.11559057084085916
aF0
aF-0.010004173607415663
aF-0.092325701074902386
aF0
aF-0.12389161084634563
aF-0.035556912316865398
aF0
aF0.0004029867004164993
aF-0.041142168047060342
as(I3
g2
g3
(g5
S'\x02\x00\x00\x00\x00\x00\x00\x00'
tRp338
g2
I0
tp339
(lp340
F0
aF0.046173881276972292
aF0
aF0.049154310605009729
aF0
aF0.054481184545593149
aF0
aF0.02452441959437018
aF0
aF0.011194038913004023
aF0.30293793973200456
aF0
aF0.0086006574660718593
aF0.10901905451981614
aF0
aF-0.0030570939528397467
aF0.16060123472982188
aF0
aF0.00014988858451908392
aF0.0084085278092720303
as(I0
g2
g3
(g5
S'\x08\x00\x00\x00\x00\x00\x00\x00'
tRp341
g12
I1
tp342
(lp343
F0
aF0.00038655369598945138
aF0
aF-0.0025703311344184854
aF0
aF-0.010869022287564235
aF0
aF-0.01142666562386053
aF0
aF0.016420321750384468
aF-0.072948700588023815
aF0
aF0.0057137194378181766
aF-0.035836328086754521
aF0
aF0.0032714210779098188
aF-0.0046577211397922673
aF0
aF-0.0033575098677301254
aF0.00016305569452545785
as(I4
g2
g3
(g5
S'\x02\x00\x00\x00\x00\x00\x00\x00'
tRp344
g2
I0
tp345
(lp346
F0
aF0.21178122494518653
aF0
aF0.21222038165101487
aF0
aF0.2106736245330359
aF0
aF0.16981189270046956
aF0
aF0.15126916030671722
aF0.8707734415906162
aF0
aF0.010252127326024776
aF0.33326883049152478
aF0
aF0.13388627498973854
aF0.40678284287260386
aF0
aF0.0012866944870528966
aF0.043603195871864883
as(I1
g2
I1
g2
I2
tp347
(lp348
F0.39473530487953234
aF-0.45635049044568154
aF0.39166989140836939
aF-0.42774621754991027
aF0.37276450194044131
aF-0.3163834336640014
aF0.26290672895059863
aF-0.092892663482514987
aF0.1271940160864739
aF0.42346497037133335
aF-0.76174890337193668
aF0.053082898257711494
aF0.44273581332352335
aF-0.16751901499410332
aF0.0462853081444261
aF0.14537379324626909
aF-0.49670371460546969
aF0.0036785688697408602
aF0.1840076308306608
aF-0.061736194176130382
as(I9
g12
g3
(g5
S'\x04\x00\x00\x00\x00\x00\x00\x00'
tRp349
g2
I1
tp350
(lp351
F-0.012663430225401034
aF0
aF-0.013878660683520755
aF0
aF-0.015576815823217495
aF0
aF-0.0049006669781903834
aF0
aF-0.034619100730790234
aF-0.043164907486531671
aF0
aF4.3284084874293643e-05
aF-0.01638567505351271
aF0
aF-0.038231267982506895
aF-0.014113841481915971
aF0
aF-0.00043309680338642152
aF-0.00046654147087702417
aF0
as(I8
g12
g3
(g5
S'\x07\x00\x00\x00\x00\x00\x00\x00'
tRp352
g2
I1
tp353
(lp354
F-0.042482742111601496
aF0
aF-0.029822643130559628
aF0
aF0.026473439300157942
aF0
aF0.19112034416378962
aF0
aF0.13241792679555101
aF-0.36014765420532546
aF0
aF-0.0088081922900629713
aF0.59282099751388417
aF0
aF0.078539976014767948
aF-0.42618002047160752
aF0
aF-0.011504717365904324
aF0.31304622799742043
aF0
as(I1
g2
g3
(g5
S'\x07\x00\x00\x00\x00\x00\x00\x00'
tRp355
g2
I2
tp356
(lp357
F0
aF0.0058369432917170644
aF0
aF0.0056269167057002361
aF0
aF0.004751054090540649
aF0
aF0.0022047019602685924
aF0
aF0.21326392918020695
aF-0.12330854764635445
aF0
aF-0.015960393496281079
aF-0.037786489463694894
aF0
aF0.1776104959910301
aF-0.059200051967007554
aF0
aF-0.0061707357323344484
aF0.006861090676507582
as(I7
g2
g3
(g5
S'\x00\x00\x00\x00\x00\x00\x00\x00'
tRp358
g2
I1
tp359
(lp360
F0
aF0.037730214921321725
aF0
aF0.024682515493185425
aF0
aF-0.027913858288270282
aF0
aF-0.13198950052378472
aF0
aF-0.17000383073740666
aF0.066315865138199023
aF0
aF0.04563966702726769
aF-0.29024936836835019
aF0
aF-0.24315522927111829
aF0.37316784467455072
aF0
aF0.00047783449183939962
aF-0.016666800047436953
as(I9
g12
g3
(g5
S'\x01\x00\x00\x00\x00\x00\x00\x00'
tRp361
g2
I1
tp362
(lp363
F0.034592148122535485
aF0
aF0.021879099050904349
aF0
aF-0.028233203323298359
aF0
aF-0.11741119143779188
aF0
aF-0.089060744344229947
aF0.13720313452302771
aF0
aF0.015178677206307504
aF-0.30156584352414978
aF0
aF-0.09639533242236191
aF0.2931885555522088
aF0
aF0.00087778380663556621
aF-0.078677187106453703
aF0
as(I3
g2
g3
(g5
S'\t\x00\x00\x00\x00\x00\x00\x00'
tRp364
g12
I2
tp365
(lp366
F0
aF0.13778368673670155
aF0
aF0.13751706180514975
aF0
aF0.13526243188442783
aF0
aF0.11130715731336371
aF0
aF0.017909934572088504
aF-0.18476301162681846
aF0
aF0.036131298993729681
aF0.12330729222350524
aF0
aF0.011461602184306271
aF-0.21120945918997802
aF0
aF0.037311263170224415
aF0.044615369790515599
as(I2
g2
g3
(g5
S'\x05\x00\x00\x00\x00\x00\x00\x00'
tRp367
g2
I0
tp368
(lp369
F0
aF0.20252045838351951
aF0
aF0.20348276506942969
aF0
aF0.20551546459221842
aF0
aF0.1846836947673923
aF0
aF0.041646214254605143
aF0.31098548885893984
aF0
aF0.12828149464047134
aF0.4103815987180931
aF0
aF0.0055177207962885614
aF0.020573150385968783
aF0
aF0.063286541663414964
aF0.13664202594253699
as(I7
g2
g3
(g5
S'\x03\x00\x00\x00\x00\x00\x00\x00'
tRp370
g2
I1
tp371
(lp372
F0
aF0.025232352640213694
aF0
aF0.033990889554903987
aF0
aF0.056327969420920741
aF0
aF0.033913988256341655
aF0
aF0.039549851574076617
aF0.14610153237829582
aF0
aF0.026765647091807506
aF0.06936769317850297
aF0
aF-0.015466963468146968
aF0.05873054559803581
aF0
aF0.00030155739542185876
aF0.0092739949757581069
as(I1
g2
g3
(g5
S'\x00\x00\x00\x00\x00\x00\x00\x00'
tRp373
g2
I0
tp374
(lp375
F0
aF-0.016681473239019806
aF0
aF-0.019244072192824813
aF0
aF-0.027091838831792475
aF0
aF-0.021615787841162661
aF0
aF-0.094596108475413054
aF-0.0050208986465123387
aF0
aF-0.0068627845003926442
aF-0.055137246950998531
aF0
aF-0.070526734979894354
aF0.04793057553296913
aF0
aF0.00033620431520666865
aF-0.010327899354270378
as(I4
g2
g3
(g5
S'\x02\x00\x00\x00\x00\x00\x00\x00'
tRp376
g2
I1
tp377
(lp378
F0
aF0.03170585402372772
aF0
aF0.019683310032271972
aF0
aF-0.028406498808809133
aF0
aF-0.11692234671631795
aF0
aF0.015200581926352024
aF0.025751654404533975
aF0
aF-0.019500184656175753
aF-0.24699524737967013
aF0
aF0.035804011797432346
aF0.23484453349628256
aF0
aF-0.0011645416569041041
aF-0.0267192434774528
as(I0
g2
g3
(g5
S'\x05\x00\x00\x00\x00\x00\x00\x00'
tRp379
g2
I2
tp380
(lp381
F0
aF0.20363613975568612
aF0
aF0.20393844690320129
aF0
aF0.20188524786023479
aF0
aF0.1605353090926763
aF0
aF0.3008772572005754
aF0.81205211020104673
aF0
aF0.11152922934797919
aF0.26706315740549041
aF0
aF0.10790540087575837
aF0.56003042591248309
aF0
aF-0.00015702488213907443
aF0.067048231704274694
as(I5
g2
g3
(g5
S'\x02\x00\x00\x00\x00\x00\x00\x00'
tRp382
g2
I2
tp383
(lp384
F0
aF-0.19836472079036427
aF0
aF-0.19930728085856139
aF0
aF-0.20129826920861293
aF0
aF-0.18089396913022124
aF0
aF0.040313487928633027
aF-0.39046625659293177
aF0
aF-0.020021359540666969
aF-0.33424097138109088
aF0
aF0.069132669107645858
aF-0.17112228789317294
aF0
aF-0.0011920140499085473
aF-0.10496026987233531
as(I6
g2
I6
g2
I2
tp385
(lp386
F0.42500378343360351
aF0.22884403168920955
aF0.40670001912316345
aF0.22940385477323089
aF0.33001977656252185
aF0.2292075219313536
aF0.11791935674836188
aF0.20230286733804531
aF0.053139184519085655
aF0.87514787045075426
aF0.14014034802575165
aF0.010534356077780862
aF0.37443174042089483
aF0.38217148421827835
aF0.038979153632182177
aF0.42657103978219135
aF0.074435582360491234
aF0.0012897269011680245
aF0.057383041512999812
aF0.24192545110275321
as(I9
g12
I9
g12
I1
tp387
(lp388
F0.01225102487921842
aF-0.0050621403093371806
aF0.0024037715237725521
aF-0.0035191926313428434
aF-0.038159513124660913
aF0.0037726156207498439
aF-0.11506160758835374
aF0.024230943339247916
aF0.017565117032542005
aF-0.13839545586265381
aF-0.041382260639372247
aF0.0065729343012362589
aF-0.14007040286906813
aF0.030783894393000336
aF0.010563700709266044
aF-0.022293034835054671
aF0.021076261827182387
aF0.0012183978822946052
aF-0.021600048780612967
aF0.029027107427039074
as(I1
g2
g3
(g5
S'\x03\x00\x00\x00\x00\x00\x00\x00'
tRp389
g2
I2
tp390
(lp391
F0
aF0.15270322788924234
aF0
aF0.15547310334533215
aF0
aF0.16302720866046339
aF0
aF0.13689806593072235
aF0
aF0.33109263337324851
aF-0.026420652374874013
aF0
aF0.049160365408641382
aF0.15296918236113036
aF0
aF0.26783673290482296
aF-0.090871798815298013
aF0
aF0.011877701988715347
aF0.072147444772744096
as(I4
g2
g3
(g5
S'\x03\x00\x00\x00\x00\x00\x00\x00'
tRp392
g2
I1
tp393
(lp394
F0
aF0.033036769485208922
aF0
aF0.020929495079259203
aF0
aF-0.028280932881077775
aF0
aF-0.12552504701660913
aF0
aF0.048543084993360977
aF-0.028858325877802925
aF0
aF-0.060315032356374268
aF-0.140877901154707
aF0
aF0.034114213100951106
aF0.10298491463764961
aF0
aF-0.069750240252523202
aF-0.028136910747335736
as(I4
g2
g3
(g5
S'\x07\x00\x00\x00\x00\x00\x00\x00'
tRp395
g2
I1
tp396
(lp397
F0
aF0.0013199250695921372
aF0
aF0.0023145783205055226
aF0
aF0.0067745534695195231
aF0
aF0.015959435335660369
aF0
aF0.099185695791894277
aF-0.01000220362063443
aF0
aF-0.006298630345921377
aF0.03735099179062161
aF0
aF0.042493682896085988
aF-0.025852015746008754
aF0
aF-0.020670649035984128
aF0.016141469420079334
as(I8
g12
g3
(g5
S'\x01\x00\x00\x00\x00\x00\x00\x00'
tRp398
g2
I2
tp399
(lp400
F-0.1483197428240699
aF0
aF-0.14446308482979475
aF0
aF-0.12542882847787731
aF0
aF-0.052492370161697638
aF0
aF-0.021933225612711205
aF-0.64162427486449203
aF0
aF-0.029520024281285535
aF-0.082463334390382656
aF0
aF0.022122134434406419
aF-0.50699222892687235
aF0
aF-0.0010197264102664476
aF-0.015483110316316806
aF0
as(I1
g2
g3
(g5
S'\t\x00\x00\x00\x00\x00\x00\x00'
tRp401
g12
I0
tp402
(lp403
F0
aF-0.14716955388982683
aF0
aF-0.14764211780792047
aF0
aF-0.14771908243495013
aF0
aF-0.12566814797194767
aF0
aF-0.18491567145876822
aF-0.43535991902605731
aF0
aF-0.057407270756497437
aF-0.1619838864321857
aF0
aF-0.061671480373833965
aF-0.18193314942711405
aF0
aF0.0091415816839500209
aF-0.0030769219472872745
as(I9
g12
g3
(g5
S'\x08\x00\x00\x00\x00\x00\x00\x00'
tRp404
g12
I1
tp405
(lp406
F0.012251024879218423
aF0
aF0.0024037715237725417
aF0
aF-0.03815951312466092
aF0
aF-0.11506160758835372
aF0
aF0.017565117032541981
aF-0.073035641021424097
aF0
aF0.0065729343012362555
aF-0.20146719663564094
aF0
aF0.010563700709266027
aF0.049061921415538307
aF0
aF0.0012183978822946052
aF-0.062719838251745277
aF0
as(I0
g2
g3
(g5
S'\x04\x00\x00\x00\x00\x00\x00\x00'
tRp407
g2
I0
tp408
(lp409
F0
aF-0.20486365621228908
aF0
aF-0.20622016852910227
aF0
aF-0.20942813538153277
aF0
aF-0.18954845514386098
aF0
aF-0.0002405916922312701
aF-0.52963040790143345
aF0
aF-0.062444875628401099
aF-0.48714235609977968
aF0
aF0.025219037993544722
aF-0.15561161853022332
aF0
aF-0.010759173444896252
aF-0.15947031145631013
as(I8
g12
g3
(g5
S'\x02\x00\x00\x00\x00\x00\x00\x00'
tRp410
g2
I0
tp411
(lp412
F-0.025265248560972738
aF0
aF-0.024237531674383674
aF0
aF-0.019602673188322456
aF0
aF-0.0057492210496117111
aF0
aF0.014395976433159936
aF-0.13517735362366781
aF0
aF-0.00060583516079452883
aF-0.036916011182664674
aF0
aF0.014568544854653007
aF-0.056505675303277221
aF0
aF-5.6068784290007585e-05
aF-0.00050453144456190163
aF0
as(I3
g2
I3
g2
I0
tp413
(lp414
F-0.17114778609276549
aF0.22415883020969085
aF-0.17328969436813968
aF0.21598568403407697
aF-0.18049329062792743
aF0.17999346395847388
aF-0.18226613452290003
aF0.1199500731800589
aF-0.16273961590963879
aF-0.28496772560306233
aF0.83609372342825661
aF-0.028844514286323873
aF-0.23916508210615703
aF0.17716482201973355
aF-0.12254562189074628
aF-0.11234407923599421
aF0.48678190184979026
aF-0.0027643325196550061
aF-0.099913400309019587
aF-0.013510976070502905
as(I2
g2
g3
(g5
S'\x00\x00\x00\x00\x00\x00\x00\x00'
tRp415
g2
I1
tp416
(lp417
F0
aF-2.7755575615628914e-17
aF0
aF0
aF0
aF0
aF0
aF1.1102230246251565e-16
aF0
aF0.0064492477947647002
aF-0.0012746355031037701
aF0
aF-0.0063802746966188859
aF0.005477704450010704
aF0
aF0.0028931577857578615
aF-0.0050244169979954574
aF0
aF-0.0034169767993685552
aF0.0040232591584672319
as(I7
g2
g3
(g5
S'\t\x00\x00\x00\x00\x00\x00\x00'
tRp418
g12
I0
tp419
(lp420
F0
aF0.16398234091413488
aF0
aF0.16877632209703311
aF0
aF0.18514851212860187
aF0
aF0.18756216512341631
aF0
aF0.072293074084181549
aF0.60016299066270351
aF0
aF0.065133861476956767
aF0.24469838925829379
aF0
aF-0.029320832898861757
aF0.25837666007569071
aF0
aF0.0010915137878298143
aF0.0063936581454256758
as(I1
g2
g3
(g5
S'\x05\x00\x00\x00\x00\x00\x00\x00'
tRp421
g2
I1
tp422
(lp423
F0
aF0.025030506435258271
aF0
aF0.013597764720728715
aF0
aF-0.03417681156827479
aF0
aF-0.1365610574040072
aF0
aF0.074971523203841456
aF0.057341312852238022
aF0
aF-0.12488457146901785
aF-0.23046771303422076
aF0
aF0.1342875918955046
aF-0.010353339155737001
aF0
aF-0.028168647173017442
aF-0.18482098186080806
as(I7
g2
g3
(g5
S'\x02\x00\x00\x00\x00\x00\x00\x00'
tRp424
g2
I2
tp425
(lp426
F0
aF-0.26255366251268608
aF0
aF-0.26437707139032696
aF0
aF-0.2688830777788499
aF0
aF-0.2451555986996431
aF0
aF-0.024059523324654303
aF-0.85418910202587384
aF0
aF-0.015980033610676795
aF-0.40427053761747339
aF0
aF-0.0097418970007380271
aF-0.47333090272295003
aF0
aF-0.0015543779606888067
aF-0.096194459735403734
as(I8
g12
g3
(g5
S'\x03\x00\x00\x00\x00\x00\x00\x00'
tRp427
g2
I2
tp428
(lp429
F-0.067744721641273764
aF0
aF-0.063645378023213975
aF0
aF-0.04702872605772257
aF0
aF-0.009815935464105181
aF0
aF-0.0018014546128419632
aF-0.38234347043578715
aF0
aF-0.004013669453306311
aF-0.028170090393352248
aF0
aF0.0057297821903497205
aF-0.31838338977478531
aF0
aF-0.00026999285023811655
aF-0.00020462331995617429
aF0
as(I6
g2
g3
(g5
S'\x08\x00\x00\x00\x00\x00\x00\x00'
tRp430
g12
I2
tp431
(lp432
F0
aF0.22582045452753285
aF0
aF0.21785346893585228
aF0
aF0.1836759108671685
aF0
aF0.077299972966454703
aF0
aF0.034883470993554579
aF0.5357274171159464
aF0
aF0.033723464995293259
aF0.17889850473553126
aF0
aF0.014484590809809959
aF0.27193938959168124
aF0
aF0.010141058383064458
aF0.014896009038238031
as(I4
g2
g3
(g5
S'\t\x00\x00\x00\x00\x00\x00\x00'
tRp433
g12
I2
tp434
(lp435
F0
aF0.21792216957919311
aF0
aF0.19830710442708785
aF0
aF0.12727570048424891
aF0
aF0.015054863972466795
aF0
aF0.071368858676054719
aF0.33173141002658008
aF0
aF0.0041402592848439404
aF0.048540031078749608
aF0
aF0.065144445344980498
aF0.23784190161900592
aF0
aF0.0003221943554102598
aF0.0012016488611856484
as(I6
g2
g3
(g5
S'\x07\x00\x00\x00\x00\x00\x00\x00'
tRp436
g2
I1
tp437
(lp438
F0
aF0.0069184436011919953
aF0
aF0.0044011761950399735
aF0
aF-0.0034306775025615601
aF0
aF-0.0089920225789766658
aF0
aF-0.066889143552420566
aF0.0072178915422534615
aF0
aF-0.0019121973213150126
aF-0.021729188351384432
aF0
aF-0.019736062224930517
aF0.018079066783436244
aF0
aF0.012081415025984988
aF-0.011792828819409264
as(I9
g12
g3
(g5
S'\x05\x00\x00\x00\x00\x00\x00\x00'
tRp439
g2
I0
tp440
(lp441
F-0.11148180247217428
aF0
aF-0.11038296804946064
aF0
aF-0.1024626469247534
aF0
aF-0.052011767583042899
aF0
aF-0.21645319133600791
aF-0.19663506782128759
aF0
aF-0.020424123507330413
aF-0.16330814171079513
aF0
aF-0.17899554354025182
aF-0.039815111857745937
aF0
aF-0.0015621571155232444
aF-0.030116733015687486
aF0
as(I8
g12
g3
(g5
S'\x06\x00\x00\x00\x00\x00\x00\x00'
tRp442
g2
I0
tp443
(lp444
F-0.19443546539281309
aF0
aF-0.19262572227721028
aF0
aF-0.17662704277759578
aF0
aF-0.081795442428876444
aF0
aF-0.0015427301902168093
aF-0.65067300918350279
aF0
aF-0.013272691639374765
aF-0.31417555343298648
aF0
aF0.011739637885378781
aF-0.25300098944287058
aF0
aF-0.0014043732317537334
aF-0.03028521448159753
aF0
as(I7
g2
g3
(g5
S'\x08\x00\x00\x00\x00\x00\x00\x00'
tRp445
g12
I2
tp446
(lp447
F0
aF0.20825835376659416
aF0
aF0.21205533398771692
aF0
aF0.22513556221032843
aF0
aF0.23384295102266067
aF0
aF0.3060147898717327
aF-0.073190041006319886
aF0
aF0.017061921082921209
aF0.33591747591914789
aF0
aF0.21746895534809868
aF-0.25862792195866524
aF0
aF-0.00059518271167932526
aF0.073413671321217025
as(I1
g2
g3
(g5
S'\x04\x00\x00\x00\x00\x00\x00\x00'
tRp448
g2
I1
tp449
(lp450
F0
aF0.013882350555981443
aF0
aF0.0032662901089178936
aF0
aF-0.036747207211505498
aF0
aF-0.095534776753762998
aF0
aF0.0032707581837504059
aF0.022807035963845441
aF0
aF-0.033893191908792024
aF-0.20543412272895109
aF0
aF0.011451003469623718
aF0.11385545481347958
aF0
aF-0.022008166290339075
aF-0.097564592383503471
as(I7
g2
g3
(g5
S'\x01\x00\x00\x00\x00\x00\x00\x00'
tRp451
g2
I0
tp452
(lp453
F0
aF0.14400308581418492
aF0
aF0.15216925305023238
aF0
aF0.17414821338600284
aF0
aF0.13407285528149185
aF0
aF0.31262582956022361
aF0.23914181461670725
aF0
aF0.065079117236491194
aF0.26388644759204777
aF0
aF0.17498937205627843
aF0.018117407818458903
aF0
aF0.00045086026167551798
aF0.071802758748013867
as(I0
g2
g3
(g5
S'\x08\x00\x00\x00\x00\x00\x00\x00'
tRp454
g12
I0
tp455
(lp456
F0
aF0.020330979332165416
aF0
aF0.020225832574797525
aF0
aF0.019377793389934922
aF0
aF0.012026448225856958
aF0
aF0.031168347581689619
aF0.061772559615696949
aF0
aF0.023573579172390918
aF0.020401335174684329
aF0
aF0.0036875464444131368
aF0.012423182835620206
aF0
aF-0.0012669301529992531
aF-0.00060419465832374389
as(I2
g2
g3
(g5
S'\x04\x00\x00\x00\x00\x00\x00\x00'
tRp457
g2
I1
tp458
(lp459
F0
aF-0.031705854023727692
aF0
aF-0.019683310032271945
aF0
aF0.028406498808809161
aF0
aF0.11692234671631789
aF0
aF0.010142222940350091
aF-0.066587532397595683
aF0
aF0.043892159281632183
aF0.27622509267551371
aF0
aF-0.013518021890146786
aF-0.23662592034498656
aF0
aF0.0066976945341856416
aF0.11224147136619694
as(I7
g2
g3
(g5
S'\x05\x00\x00\x00\x00\x00\x00\x00'
tRp460
g2
I1
tp461
(lp462
F0
aF-0.0076560927221028807
aF0
aF-0.0053257630884228635
aF0
aF0.0058129723004912148
aF0
aF0.045801646933243595
aF0
aF-0.17917299159602687
aF-0.049911212822677929
aF0
aF0.114202486899823
aF0.088079596018201367
aF0
aF-0.20135593471349242
aF-0.028856041588656171
aF0
aF0.027466442289964647
aF0.083889697473766553
as(I1
g2
I1
g2
I1
tp463
(lp464
F-0.044559447494425503
aF0.052744188951982518
aF-0.031587225476077965
aF0.045087831798514055
aF0.019804206215426071
aF0.011483607087519471
aF0.113883628901749
aF-0.08575192676136352
aF0.026573326840857042
aF-0.014397686578772315
aF0.092198989123329342
aF-0.0037713985899526289
aF0.20107002232462295
aF-0.091700246894490287
aF0.021629132330548268
aF-0.16971621192545738
aF0.045680519356412208
aF-0.0010090884545240174
aF0.050853821484199133
aF-0.058420414410277649
as(I3
g2
g3
(g5
S'\x01\x00\x00\x00\x00\x00\x00\x00'
tRp465
g2
I2
tp466
(lp467
F0
aF-0.15270322788924234
aF0
aF-0.15547310334533215
aF0
aF-0.16302720866046339
aF0
aF-0.13689806593072226
aF0
aF0.072910456825891201
aF-0.71662372090655269
aF0
aF-0.065495980845660176
aF-0.20195291146876349
aF0
aF0.092001081225814227
aF-0.51116192248628634
aF0
aF-0.030725795039778181
aF-0.064675824169013768
as(I7
g2
g3
(g5
S'\x06\x00\x00\x00\x00\x00\x00\x00'
tRp468
g2
I2
tp469
(lp470
F0
aF-0.098301607567002972
aF0
aF-0.096933566715881922
aF0
aF-0.091503740072545789
aF0
aF-0.069048367921915405
aF0
aF0.061127818868926695
aF-0.52249031356026676
aF0
aF-0.022854152847091771
aF-0.074112860517556597
aF0
aF0.10626256576948939
aF-0.43209781790210811
aF0
aF0.00039273311520680377
aF-0.047821787825403479
as(I5
g2
g3
(g5
S'\t\x00\x00\x00\x00\x00\x00\x00'
tRp471
g12
I2
tp472
(lp473
F0
aF0.29445612445129588
aF0
aF0.29155378058574266
aF0
aF0.27063389042364072
aF0
aF0.13737832694431909
aF0
aF0.28180233827239515
aF0.52988555582623587
aF0
aF0.052131801641110219
aF0.23276023787530445
aF0
aF0.20740436710244328
aF0.21452445989116151
aF0
aF0.0063819757129661651
aF0.024537047118590637
as(I8
g12
g3
(g5
S'\x07\x00\x00\x00\x00\x00\x00\x00'
tRp474
g2
I2
tp475
(lp476
F-0.20825835376659416
aF0
aF-0.21205533398771692
aF0
aF-0.22513556221032843
aF0
aF-0.23384295102266067
aF0
aF0.023674073766234704
aF-1.2653759931848381
aF0
aF-0.10491128411254814
aF-0.53568703020642439
aF0
aF0.071834927851592872
aF-0.73252068072648058
aF0
aF-0.0220764976350552
aF-0.20260309495459441
aF0
as(I5
g2
g3
(g5
S'\x03\x00\x00\x00\x00\x00\x00\x00'
tRp477
g2
I0
tp478
(lp479
F0
aF0.15299847983098677
aF0
aF0.15876875715803959
aF0
aF0.17407401579298956
aF0
aF0.13248175288528155
aF0
aF0.11324057212115776
aF0.35857926265231171
aF0
aF0.081388940049947359
aF0.24950136393421538
aF0
aF0.022802630822112539
aF0.13496002037158578
aF0
aF0.0065805024170097334
aF0.040555612860638565
as(I7
g2
g3
(g5
S'\x00\x00\x00\x00\x00\x00\x00\x00'
tRp480
g2
I2
tp481
(lp482
F0
aF-0.26312815523733568
aF0
aF-0.26488591390321059
aF0
aF-0.26895598420073619
aF0
aF-0.2427098839444807
aF0
aF-0.0048905405819366027
aF-0.86821170789410818
aF0
aF-0.046252292506347631
aF-0.40160794284885049
aF0
aF0.076967296925024284
aF-0.49919781347555259
aF0
aF-0.00047942386913748164
aF-0.09651182621351842
as(I9
g12
g3
(g5
S'\x01\x00\x00\x00\x00\x00\x00\x00'
tRp483
g2
I0
tp484
(lp485
F0.14716955388982683
aF0
aF0.14764211780792044
aF0
aF0.14771908243495011
aF0
aF0.12566814797194767
aF0
aF-0.06880884284992779
aF0.28491775659622104
aF0
aF0.042576083837916508
aF0.3182846814360909
aF0
aF-0.1088380446780796
aF0.090835425265153813
aF0
aF0.0032752330933055697
aF0.075911210069560364
aF0
as(I2
g2
g3
(g5
S'\x05\x00\x00\x00\x00\x00\x00\x00'
tRp486
g2
I1
tp487
(lp488
F0
aF-0.037395761459061996
aF0
aF-0.024217800404464446
aF0
aF0.026972172202752137
aF0
aF0.11534765169837753
aF0
aF-0.026380457418611111
aF0.0012191505424181629
aF0
aF0.067637686695767377
aF0.20001171444029167
aF0
aF-0.027106955828981986
aF-0.17124102959983034
aF0
aF0.027190689797257493
aF0.07748701723668322
as(I6
g2
g3
(g5
S'\x01\x00\x00\x00\x00\x00\x00\x00'
tRp489
g2
I1
tp490
(lp491
F0
aF0.017602587630375317
aF0
aF0.0080377182806514232
aF0
aF-0.032927534308258684
aF0
aF-0.12115029576811397
aF0
aF-0.025198091784166807
aF0.025864650050789348
aF0
aF-0.061666457096607959
aF-0.18408894785759322
aF0
aF-0.023611689241526516
aF0.099772695006542775
aF0
aF-0.035177418704113186
aF-0.10429609273611996
as(I7
g2
g3
(g5
S'\x05\x00\x00\x00\x00\x00\x00\x00'
tRp492
g2
I0
tp493
(lp494
F0
aF0.15489935617675127
aF0
aF0.15808164563643212
aF0
aF0.16748683909826736
aF0
aF0.14692488111836191
aF0
aF0.23294867721254672
aF0.14821172994294954
aF0
aF0.059947580728712667
aF0.33644631027826177
aF0
aF0.18912091091767713
aF-0.11134240349026697
aF0
aF0.026629572466495943
aF0.10361894723014754
as(I5
g2
g3
(g5
S'\x08\x00\x00\x00\x00\x00\x00\x00'
tRp495
g12
I0
tp496
(lp497
F0
aF-0.17070588420741939
aF0
aF-0.17156890278796461
aF0
aF-0.17336886020335546
aF0
aF-0.15547442290718799
aF0
aF0.026522002110611727
aF-0.78928299381366318
aF0
aF-0.065424897639847032
aF-0.23554816174954982
aF0
aF0.027210672967592518
aF-0.41964533116392444
aF0
aF-0.022585735651145238
aF-0.0086597033258531634
as(I7
g2
g3
(g5
S'\x02\x00\x00\x00\x00\x00\x00\x00'
tRp498
g2
I1
tp499
(lp500
F0
aF-0.038333667628903126
aF0
aF-0.025171040381898685
aF0
aF0.027762909943896644
aF0
aF0.13203385091031411
aF0
aF0.0089135059127859566
aF-0.059349191107796517
aF0
aF0.0125980878621181
aF0.27743753991175069
aF0
aF-0.02635483337731884
aF-0.34432981853264333
aF0
aF-0.0011804516117801961
aF0.014757732717690738
as(I5
g2
g3
(g5
S'\x03\x00\x00\x00\x00\x00\x00\x00'
tRp501
g2
I1
tp502
(lp503
F0
aF-0.015767336924739861
aF0
aF-0.022872328584843102
aF0
aF-0.046351525084691939
aF0
aF-0.054999839211285789
aF0
aF-0.037099814906067251
aF-0.057204694032138841
aF0
aF-0.035228538643811126
aF-0.12146854063433227
aF0
aF0.028660586185593126
aF0.046522990293956054
aF0
aF0.0016651469750063265
aF-0.018614542158223883
as(I6
g2
g3
(g5
S'\x03\x00\x00\x00\x00\x00\x00\x00'
tRp504
g2
I2
tp505
(lp506
F0
aF0.22117526854203148
aF0
aF0.22296849538452823
aF0
aF0.22846958483304353
aF0
aF0.21801033088765109
aF0
aF0.16769510796398532
aF0.47696561169623797
aF0
aF0.13018311497542406
aF0.22815610618744525
aF0
aF0.073195903334527329
aF0.3084218220755337
aF0
aF0.029359095604018452
aF0.073289077828896626
as(I6
g2
g3
(g5
S'\x05\x00\x00\x00\x00\x00\x00\x00'
tRp507
g2
I0
tp508
(lp509
F0
aF0.031839286673441797
aF0
aF0.034491804107501953
aF0
aF0.040293243528135791
aF0
aF0.020204028350116265
aF0
aF0.089611924919164601
aF0.43482454341512988
aF0
aF0.040630695594037647
aF0.040891505074659142
aF0
aF0.039074162167465745
aF0.32693709850475849
aF0
aF0.0029189129928175518
aF0.0012486372080452038
as(I9
g12
I9
g12
I0
tp510
(lp511
F-0.20761716089338741
aF0.005599994055619794
aF-0.21704091440037449
aF0.026903952950260962
aF-0.24433773161593392
aF0.092140851663371437
aF-0.22532633275416497
aF0.12512680190486622
aF-0.019803179220748104
aF-0.61696955749809335
aF0.045017758977747867
aF-0.0084214616269947511
aF-0.27416711790227849
aF0.12668092321018343
aF-0.013364759007966576
aF-0.25455900696396627
aF-0.051253245567537985
aF-0.0019123827543965201
aF-0.034281056305030179
aF0.021667438968093804
as(I7
g2
g3
(g5
S'\x04\x00\x00\x00\x00\x00\x00\x00'
tRp512
g2
I2
tp513
(lp514
F0
aF-0.066536017881742432
aF0
aF-0.065279021335502507
aF0
aF-0.059123641528267316
aF0
aF-0.030545211215180688
aF0
aF0.10557440217793665
aF-0.54165130311502596
aF0
aF-0.028224221482342531
aF-0.024227045355571145
aF0
aF0.14336452424945004
aF-0.49207935785556561
aF0
aF-0.0018615655131686488
aF-0.0066830817387428399
as(I0
g2
g3
(g5
S'\x03\x00\x00\x00\x00\x00\x00\x00'
tRp515
g2
I0
tp516
(lp517
F0
aF-0.092769474885092698
aF0
aF-0.088385555424118731
aF0
aF-0.066687389365742061
aF0
aF-0.01036249776440203
aF0
aF-0.0076715174337653839
aF-0.31072337297812525
aF0
aF-0.0011675287959087783
aF-0.038270618280913181
aF0
aF-0.0046437581571312026
aF-0.24138085868761233
aF0
aF8.5185697029354332e-06
aF-0.00062508551836658853
as(I5
g2
g3
(g5
S'\x02\x00\x00\x00\x00\x00\x00\x00'
tRp518
g2
I1
tp519
(lp520
F0
aF0.037395761459061996
aF0
aF0.024217800404464446
aF0
aF-0.026972172202752137
aF0
aF-0.11534765169837753
aF0
aF-0.0025319000279078394
aF0.089982892254922522
aF0
aF-0.015312971102088582
aF-0.26469956037943243
aF0
aF0.027722534806544269
aF0.26708509395044883
aF0
aF0.0003532740386508612
aF-0.037100569281680346
as(I2
g2
g3
(g5
S'\x03\x00\x00\x00\x00\x00\x00\x00'
tRp521
g2
I2
tp522
(lp523
F0
aF0.19845996949092187
aF0
aF0.18642373248865399
aF0
aF0.13823352107766373
aF0
aF0.030932874742506025
aF0
aF0.071844399792421479
aF0.51299894667524493
aF0
aF0.019138197351309377
aF0.075714540781355436
aF0
aF0.035684507881330499
aF0.37803391235213157
aF0
aF0.0002010865173399192
aF0.0038534460620538035
as(I9
g12
g3
(g5
S'\x00\x00\x00\x00\x00\x00\x00\x00'
tRp524
g2
I1
tp525
(lp526
F-0.034475398865147472
aF0
aF-0.032974985160830105
aF0
aF-0.025626787987927609
aF0
aF-0.005153678516275342
aF0
aF-0.038520462965023837
aF-0.09476042967029194
aF0
aF-0.00073033537270985997
aF-0.023369188438818248
aF0
aF-0.03550678156070998
aF-0.057349385578095664
aF0
aF4.56098906597671e-06
aF-0.0018949297296292111
aF0
as(I6
g2
g3
(g5
S'\x01\x00\x00\x00\x00\x00\x00\x00'
tRp527
g2
I0
tp528
(lp529
F0
aF-0.22386815878828351
aF0
aF-0.23080133454388116
aF0
aF-0.2483473553249394
aF0
aF-0.21139573936971276
aF0
aF-0.066574797995781865
aF-0.44658769896565526
aF0
aF-0.12556272496276369
aF-0.42236637497735424
aF0
aF0.01785469240631642
aF-0.14265035371410706
aF0
aF-0.027242590451787965
aF-0.15625618016952561
as(I0
g2
g3
(g5
S'\x04\x00\x00\x00\x00\x00\x00\x00'
tRp530
g2
I1
tp531
(lp532
F0
aF0.037288137146916728
aF0
aF0.024142553396691007
aF0
aF-0.027180240392565669
aF0
aF-0.11736242377081149
aF0
aF-0.014569484529225608
aF0.073319859890690273
aF0
aF-0.041192207982268386
aF-0.27982011207675256
aF0
aF0.012538041845566193
aF0.247565517654767
aF0
aF-0.0052097700484927548
aF-0.11842831761739386
as(I0
g2
g3
(g5
S'\x07\x00\x00\x00\x00\x00\x00\x00'
tRp533
g2
I0
tp534
(lp535
F0
aF0.089866971732254386
aF0
aF0.090467304479602634
aF0
aF0.091857368161864655
aF0
aF0.082893456460042494
aF0
aF0.04506941681016037
aF0.09519989655257878
aF0
aF0.11426145969677971
aF0.19360491599595248
aF0
aF0.0010119062666255731
aF-0.068984214177506442
aF0
aF0.031706771122503037
aF0.024298884586094378
as(I2
g2
g3
(g5
S'\x00\x00\x00\x00\x00\x00\x00\x00'
tRp536
g2
I0
tp537
(lp538
F0
aF0
aF0
aF0
aF0
aF0
aF0
aF0
aF0
aF0.023985225091049361
aF-0.14945603075675576
aF0
aF0.0084781593676147016
aF0.006128702152782343
aF0
aF0.0076108475372823423
aF-0.11412527700333576
aF0
aF-0.00078985044939262016
aF0.0094846294167645982
as(I1
g2
g3
(g5
S'\x05\x00\x00\x00\x00\x00\x00\x00'
tRp539
g2
I0
tp540
(lp541
F0
aF-0.20992822329196381
aF0
aF-0.21981932179256483
aF0
aF-0.25048990976109109
aF0
aF-0.2567727936018474
aF0
aF-0.37820275896208777
aF-0.41239842586070341
aF0
aF-0.15334852334099242
aF-0.58310612666153327
aF0
aF-0.19974198269620852
aF-0.050355154693799906
aF0
aF-0.01163844886315207
aF-0.26166639855946278
as(I4
g2
I4
g2
I2
tp542
(lp543
F0.42665395275632712
aF-0.13858966079032659
aF0.40546777566906766
aF-0.14276685340000478
aF0.32773484853961593
aF-0.15752928740425101
aF0.17532679663272943
aF-0.16805187504210317
aF0.069516951651568543
aF0.59330291445121941
aF-0.37639371594396542
aF0.0083593156921200184
aF0.4109238359120137
aF-0.30935797559474154
aF0.059291528019229246
aF0.34096752497903332
aF-0.17591175045708787
aF0.0008750176091242986
aF0.15984168854822967
aF-0.16435245521812908
as(I8
g12
g3
(g5
S'\t\x00\x00\x00\x00\x00\x00\x00'
tRp544
g12
I0
tp545
(lp546
F0.20761716089338741
aF0
aF0.21704091440037449
aF0
aF0.24433773161593392
aF0
aF0.22532633275416497
aF0
aF0.019803179220748104
aF0.63670139721482999
aF0
aF0.0084214616269947511
aF0.33993207936824094
aF0
aF0.013364759007966576
aF0.29697311065452392
aF0
aF0.0019123827543965201
aF0.092174989085587369
aF0
as(I2
g2
g3
(g5
S'\x07\x00\x00\x00\x00\x00\x00\x00'
tRp547
g2
I2
tp548
(lp549
F0
aF0.26255366251268614
aF0
aF0.26437707139032696
aF0
aF0.2688830777788499
aF0
aF0.2451555986996431
aF0
aF0.16261961736891153
aF1.0104886285365853
aF0
aF0.35290961696106715
aF0.39904351630703749
aF0
aF0.055382502247841518
aF0.57694595838627905
aF0
aF0.23979429778459291
aF0.084838270998195506
as(I4
g2
g3
(g5
S'\x05\x00\x00\x00\x00\x00\x00\x00'
tRp550
g2
I0
tp551
(lp552
F0
aF0.06493823914460721
aF0
aF0.073115198043824187
aF0
aF0.10465157548977252
aF0
aF0.12903721609978389
aF0
aF0.22482481977522489
aF0.45187366164265513
aF0
aF0.083636463886764101
aF0.28734196216216878
aF0
aF0.10573845238102614
aF0.10758952052726038
aF0
aF0.0079429048964608003
aF0.0571342792911015
as(I7
g2
g3
(g5
S'\x02\x00\x00\x00\x00\x00\x00\x00'
tRp553
g2
I0
tp554
(lp555
F0
aF-0.08967076345724137
aF0
aF-0.090293517924225311
aF0
aF-0.091832468206370158
aF0
aF-0.083728748975847547
aF0
aF-0.039581051336870794
aF-0.54012622726059001
aF0
aF-0.0031647537217182314
aF-0.1474014230918862
aF0
aF-0.037531211090224788
aF-0.26089396233350881
aF0
aF-0.00011477015852517599
aF-0.01042194265770134
as(I5
g2
g3
(g5
S'\x07\x00\x00\x00\x00\x00\x00\x00'
tRp556
g2
I1
tp557
(lp558
F0
aF0.0076560927221028807
aF0
aF0.0053257630884228635
aF0
aF-0.0058129723004912148
aF0
aF-0.045801646933243595
aF0
aF0.18761431483988519
aF0.064303408842550383
aF0
aF-0.12092983272780022
aF-0.10217275677346263
aF0
aF0.088093123020095768
aF0.09765490297555339
aF0
aF-0.14551894264768511
aF-0.032355886801891838
as(I2
g2
g3
(g5
S'\x01\x00\x00\x00\x00\x00\x00\x00'
tRp559
g2
I2
tp560
(lp561
F0
aF0.21256385943227893
aF0
aF0.19513686652882098
aF0
aF0.12998694542283254
aF0
aF0.017363901018799362
aF0
aF0.084688946930748008
aF0.48383073537085697
aF0
aF0.024376104292953497
aF0.05141631386437228
aF0
aF0.0416172689699544
aF0.39485670033467096
aF0
aF0.00079305189076270841
aF0.0014552379982045694
as(I5
g2
g3
(g5
S'\x06\x00\x00\x00\x00\x00\x00\x00'
tRp562
g2
I2
tp563
(lp564
F0
aF-0.057335568492184685
aF0
aF-0.053848164736450939
aF0
aF-0.039700541730333744
aF0
aF-0.0081089786201494728
aF0
aF0.051915345229752476
aF-0.14997914704466186
aF0
aF-0.0039588194685687833
aF-0.018840082908276868
aF0
aF0.055880552764400855
aF-0.11745575887364282
aF0
aF-0.00020127630225916967
aF-0.00092519493857450886
as(I2
g2
g3
(g5
S'\x00\x00\x00\x00\x00\x00\x00\x00'
tRp565
g2
I2
tp566
(lp567
F0
aF0
aF0
aF0
aF0
aF0
aF0
aF0
aF0
aF0.15567386849836706
aF0.87238905972109348
aF0
aF0.0488692627026793
aF-0.028854391572571837
aF0
aF0.043937675837961855
aF0.77839973460510192
aF0
aF-0.01148928504210165
aF-0.04741042368797193
as(I6
g2
g3
(g5
S'\x02\x00\x00\x00\x00\x00\x00\x00'
tRp568
g2
I2
tp569
(lp570
F0
aF-0.15641665710618716
aF0
aF-0.15522929200611366
aF0
aF-0.15013168897611012
aF0
aF-0.12317812124439137
aF0
aF0.048576628992440869
aF-0.17680443939375368
aF0
aF-0.002517369850494001
aF-0.24396503901327424
aF0
aF0.037337624966142839
aF-0.0062007244508451593
aF0
aF-0.002456401372658735
aF-0.076362691360260762
as(I3
g2
g3
(g5
S'\x04\x00\x00\x00\x00\x00\x00\x00'
tRp571
g2
I0
tp572
(lp573
F0
aF0.21871787610131874
aF0
aF0.21982697859472328
aF0
aF0.22073088530627494
aF0
aF0.18454134200901165
aF0
aF0.11423071411260556
aF0.52343924134429221
aF0
aF0.11122543581085854
aF0.52225775582219125
aF0
aF0.011297408393625512
aF0.16903427660175085
aF0
aF0.01181892040403134
aF0.19160291372566102
as(I9
g12
g3
(g5
S'\x04\x00\x00\x00\x00\x00\x00\x00'
tRp574
g2
I0
tp575
(lp576
F0.048724078525992143
aF0
aF0.048508258925230391
aF0
aF0.0428674652131888
aF0
aF0.010252874189977895
aF0
aF-0.091260835616831196
aF0.19079301693999309
aF0
aF0.003490637040623688
aF0.020654232175357754
aF0
aF-0.088743696759592858
aF0.14903603218798867
aF0
aF0.00086709290550939335
aF9.0805938521779154e-05
aF0
as(I1
g2
I1
g2
I0
tp577
(lp578
F-0.18572770267264144
aF0.11738702643888999
aF-0.19344776628382743
aF0.11646205660957019
aF-0.21797179663679467
aF0.11853479400874622
aF-0.19798417882716585
aF0.14025687705756557
aF-0.16773802225581005
aF-0.57166596963283667
aF0.39083360772632686
aF-0.069841548299787892
aF-0.36478259699106008
aF0.22542013935763019
aF-0.045060713337909432
aF-0.16010212481528338
aF0.17511200084409015
aF-0.00035533580048298092
aF-0.021278815908893724
aF0.054371634457853188
as(I5
g2
g3
(g5
S'\t\x00\x00\x00\x00\x00\x00\x00'
tRp579
g12
I1
tp580
(lp581
F0
aF-0.00048944273990719767
aF0
aF-0.00025217794065193755
aF0
aF0.00070920602575999525
aF0
aF0.0023178491081177477
aF0
aF0.092629767871263299
aF0.016169103687792202
aF0
aF-0.029281638316324486
aF-0.01554277562170565
aF0
aF0.088648145561915359
aF0.039532935022459526
aF0
aF-0.005992503087559292
aF0.0067550696710586451
as(I7
g2
g3
(g5
S'\x04\x00\x00\x00\x00\x00\x00\x00'
tRp582
g2
I1
tp583
(lp584
F0
aF-0.00131992506959204
aF0
aF-0.0023145783205054497
aF0
aF-0.0067745534695194823
aF0
aF-0.015959435335660424
aF0
aF-0.1155028211313134
aF0.019717629198285503
aF0
aF0.038174591854236203
aF-0.044313348091701905
aF0
aF-0.15533013371797721
aF0.029758607187933245
aF0
aF0.0012129980716256833
aF-0.028444511649371101
as(I5
g2
g3
(g5
S'\x00\x00\x00\x00\x00\x00\x00\x00'
tRp585
g2
I2
tp586
(lp587
F0
aF-0.20363613975568612
aF0
aF-0.20393844690320129
aF0
aF-0.20188524786023479
aF0
aF-0.1605353090926763
aF0
aF0.067103164582547212
aF-0.44527254076710437
aF0
aF-0.044791518412485208
aF-0.29575893019478738
aF0
aF0.12024288438128083
aF-0.23041769997143485
aF0
aF-0.001237470604045483
aF-0.090041326866668533
as(I6
g2
g3
(g5
S'\x04\x00\x00\x00\x00\x00\x00\x00'
tRp588
g2
I1
tp589
(lp590
F0
aF0.0010150962334489477
aF0
aF0.00072236243028825364
aF0
aF-0.00071501883470037608
aF0
aF-0.0064538903170868467
aF0
aF-0.078122974424628844
aF0.02359170951466022
aF0
aF0.003973803177121293
aF-0.013723062552483688
aF0
aF-0.01638131899836516
aF0.0076271643920742755
aF0
aF0.035722306910981209
aF-0.028107426957380187
as(I2
g2
g3
(g5
S'\x05\x00\x00\x00\x00\x00\x00\x00'
tRp591
g2
I2
tp592
(lp593
F0
aF0.19836472079036427
aF0
aF0.19930728085856139
aF0
aF0.20129826920861293
aF0
aF0.18089396913022124
aF0
aF0.2026972686335409
aF0.80689898394835613
aF0
aF0.18375092626659598
aF0.28537329979015352
aF0
aF0.042564991113370206
aF0.56956004843065278
aF0
aF0.027682156976306119
aF0.13426271037612694
as(I3
g2
g3
(g5
S'\x07\x00\x00\x00\x00\x00\x00\x00'
tRp594
g2
I0
tp595
(lp596
F0
aF-0.022863225849211348
aF0
aF-0.024101799414767158
aF0
aF-0.027399752036346772
aF0
aF-0.019538070209522664
aF0
aF-0.17983294999922861
aF0.082393360862366039
aF0
aF-0.029442645600670909
aF0.007625532129367377
aF0
aF-0.1298686150569997
aF0.055140672523397438
aF0
aF-0.0054407559945810384
aF-0.010273708753775519
as(I3
g2
g3
(g5
S'\x00\x00\x00\x00\x00\x00\x00\x00'
tRp597
g2
I0
tp598
(lp599
F0
aF0.092769474885092726
aF0
aF0.088385555424118759
aF0
aF0.066687389365742089
aF0
aF0.01036249776440204
aF0
aF0.023954093678961254
aF0.32540671702888918
aF0
aF0.0092472464103633394
aF0.056802074978002617
aF0
aF0.0075665093999078888
aF0.22621535332618864
aF0
aF0.0001242754016279124
aF0.0013369890702287887
as(I8
g12
g3
(g5
S'\x00\x00\x00\x00\x00\x00\x00\x00'
tRp600
g2
I2
tp601
(lp602
F-0.25176670262766726
aF0
aF-0.25046462799751784
aF0
aF-0.23996301733805864
aF0
aF-0.1489283504093688
aF0
aF-0.035848773485075279
aF-1.1887430384041102
aF0
aF-0.0033003618163066632
aF-0.42370791737100172
aF0
aF-0.02765360512029064
aF-0.56948501093605719
aF0
aF-5.6866893287383454e-06
aF-0.025167505181005773
aF0
as(I8
g12
I8
g12
I2
tp603
(lp604
F0.074914457652357949
aF-1.6489549453050611
aF0.074157187979411732
aF-1.6223688688824838
aF0.070741707664604192
aF-1.4933992994831706
aF0.054668158261248365
aF-0.95917438008435085
aF0.004740547894905146
aF-0.18207292790151705
aF-3.4049059425463795
aF0.0020159562130330688
aF-0.2018849544266412
aF-1.7191984181082898
aF0.0031992984295547422
aF-0.057691430201976326
aF-1.4558253579847049
aF0.00045779225343317722
aF-0.07653032748847724
aF-0.20660313642609524
as(I5
g2
g3
(g5
S'\x02\x00\x00\x00\x00\x00\x00\x00'
tRp605
g2
I0
tp606
(lp607
F0
aF-0.20252045838351951
aF0
aF-0.20348276506942969
aF0
aF-0.20551546459221842
aF0
aF-0.1846836947673923
aF0
aF-0.14397592265738979
aF-0.87684540236294983
aF0
aF-0.00088934128987713508
aF-0.37833653317916571
aF0
aF-0.14444327017336292
aF-0.40758708921669462
aF0
aF-0.00044568916617772927
aF-0.05852040389694553
as(I5
g2
g3
(g5
S'\x04\x00\x00\x00\x00\x00\x00\x00'
tRp608
g2
I2
tp609
(lp610
F0
aF-0.0064352166836770339
aF0
aF-0.0063128276840439248
aF0
aF-0.0057129518080645406
aF0
aF-0.0031014065563379429
aF0
aF0.13917795333367144
aF-0.1707328661872739
aF0
aF-0.020191683561047381
aF0.02547101965243782
aF0
aF0.14959236265394357
aF-0.15745581219353433
aF0
aF-0.00069752422626938803
aF0.0034394678538153525
as(I6
g2
g3
(g5
S'\x02\x00\x00\x00\x00\x00\x00\x00'
tRp611
g2
I1
tp612
(lp613
F0
aF-0.022777792069942376
aF0
aF-0.011526193538869065
aF0
aF0.032715890785549984
aF0
aF0.10682615104625531
aF0
aF-0.018300928969993534
aF-0.023922377940276286
aF0
aF0.018267966885970471
aF0.23965715958677994
aF0
aF-0.032160757344586281
aF-0.18874786418805645
aF0
aF0.00087781918344584809
aF0.033617573959314015
as(I9
g12
g3
(g5
S'\x06\x00\x00\x00\x00\x00\x00\x00'
tRp614
g2
I0
tp615
(lp616
F0.057524877203311744
aF0
aF0.061985937821280424
aF0
aF0.071663840347439084
aF0
aF0.03746369918318225
aF0
aF-0.0539624668397225
aF0.26124680963318192
aF0
aF0.0055834108611233953
aF0.078332903816277513
aF0
aF-0.051241781966746405
aF0.14524637094514323
aF0
aF0.0013221445798777662
aF0.007998300569160675
aF0
as(I0
g2
g3
(g5
S'\x03\x00\x00\x00\x00\x00\x00\x00'
tRp617
g2
I1
tp618
(lp619
F0
aF0.0010478394917956477
aF0
aF0.001043511024379197
aF0
aF0.00091922626734224078
aF0
aF0.00021711188354715355
aF0
aF-0.0012018918294436111
aF0.0082285639807537347
aF0
aF0.00050854590288903177
aF-0.00062230415550940002
aF0
aF-0.0017030016567466666
aF0.0089079311029619333
aF0
aF2.4593994620324456e-05
aF2.7883032279868405e-05
as(I8
g12
g3
(g5
S'\x01\x00\x00\x00\x00\x00\x00\x00'
tRp620
g2
I0
tp621
(lp622
F0.038558148782814605
aF0
aF0.045805648475906957
aF0
aF0.070252714201844563
aF0
aF0.072316030855218164
aF0
aF0.23654686510573783
aF0.08272737139574271
aF0
aF0.027265464461871402
aF0.10659630986042858
aF0
aF0.15389875801598904
aF0.011856327544510981
aF0
aF-0.0029198972928225894
aF0.035630896029154015
aF0
as(I6
g2
g3
(g5
S'\t\x00\x00\x00\x00\x00\x00\x00'
tRp623
g12
I0
tp624
(lp625
F0
aF-0.0575248772033118
aF0
aF-0.061985937821280507
aF0
aF-0.071663840347439167
aF0
aF-0.037463699183182313
aF0
aF0.058307759219840646
aF-0.29851300716031365
aF0
aF-0.00037587317920707505
aF-0.098730670786121549
aF0
aF0.040924889616267876
aF-0.14543082936950566
aF0
aF-0.0040756933404842606
aF-0.0051598083601678314
as(I0
g2
g3
(g5
S'\x06\x00\x00\x00\x00\x00\x00\x00'
tRp626
g2
I1
tp627
(lp628
F0
aF-0.017642558834481809
aF0
aF-0.007467375115880099
aF0
aF0.033761238556829401
aF0
aF0.10646518081831731
aF0
aF0.0079002203645754943
aF0.0072156505353244069
aF0
aF0.018992892313757812
aF0.21837078063140547
aF0
aF-0.011187660049076524
aF-0.1335689221204853
aF0
aF0.0012647790776290876
aF0.1056509455976378
as(I5
g2
g3
(g5
S'\x07\x00\x00\x00\x00\x00\x00\x00'
tRp629
g2
I0
tp630
(lp631
F0
aF-0.15489935617675127
aF0
aF-0.15808164563643212
aF0
aF-0.16748683909826736
aF0
aF-0.14692488111836191
aF0
aF-0.17814082731537312
aF-0.68573072562571791
aF0
aF-0.11788043012984491
aF-0.28115223318136884
aF0
aF-0.16686322729032357
aF-0.37781369425477512
aF0
aF-0.075242181748112591
aF-0.067980755831158618
as(I7
g2
g3
(g5
S'\x03\x00\x00\x00\x00\x00\x00\x00'
tRp632
g2
I2
tp633
(lp634
F0
aF0.11549796191985978
aF0
aF0.10964614376570928
aF0
aF0.085915283968076545
aF0
aF0.025823527641708071
aF0
aF0.18237941263335822
aF0.035468210747513274
aF0
aF0.00096771254586786645
aF0.057541851071775306
aF0
aF0.17587807842608383
aF-0.046987814818878079
aF0
aF0.00086688549352727001
aF0.0051340579667023831
as(I8
g12
I8
g12
I1
tp635
(lp636
F-0.012251024879218423
aF0.030410378694396639
aF-0.0024037715237725417
aF0.022608584117767283
aF0.03815951312466092
aF0.00031745372032429553
aF0.11506160758835372
aF0.032627717144450556
aF-0.017565117032541981
aF0.076860097643281652
aF0.039425278243154414
aF-0.0065729343012362555
aF0.19379602268303114
aF-0.049012949470282216
aF-0.010563700709266027
aF-0.051834036923391745
aF0.1175052083909353
aF-0.0012183978822946052
aF0.047314167171593119
aF-0.0064082678114682446
as(I8
g12
g3
(g5
S'\x02\x00\x00\x00\x00\x00\x00\x00'
tRp637
g2
I2
tp638
(lp639
F-0.31286974509884702
aF0
aF-0.30014311311796932
aF0
aF-0.24274779442147393
aF0
aF-0.071194918980036659
aF0
aF-0.028108464507452
aF-1.22639466956125
aF0
aF-0.0083908256727404772
aF-0.24405591016274214
aF0
aF-0.015600217437531462
aF-0.81054801867719828
aF0
aF-0.00043497848841850836
aF-0.012227373861677014
aF0
as(I4
g2
g3
(g5
S'\x08\x00\x00\x00\x00\x00\x00\x00'
tRp640
g12
I2
tp641
(lp642
F0
aF0.20873178317713403
aF0
aF0.20716067124197982
aF0
aF0.20045914805536696
aF0
aF0.1602719326602626
aF0
aF0.01962061840795324
aF0.3426187334859348
aF0
aF0.06062279831852526
aF0.27538959620647052
aF0
aF0.0083499004776721401
aF0.1084294970085795
aF0
aF0.049863003264279594
aF0.042593512502581372
as(I9
g12
g3
(g5
S'\x02\x00\x00\x00\x00\x00\x00\x00'
tRp643
g2
I0
tp644
(lp645
F-0.097538233001599806
aF0
aF-0.089589162020229332
aF0
aF-0.060285717391397091
aF0
aF-0.009093338404924288
aF0
aF-0.046231131256226528
aF-0.22967964520249451
aF0
aF-0.0049460117656811506
aF-0.047135282535832788
aF0
aF-0.035706632249177951
aF-0.15837286812645429
aF0
aF-4.4187112701839e-05
aF-0.0021688175683899098
aF0
as(I0
g2
g3
(g5
S'\x07\x00\x00\x00\x00\x00\x00\x00'
tRp646
g2
I1
tp647
(lp648
F0
aF-0.03773021492132167
aF0
aF-0.024682515493185397
aF0
aF0.02791385828827031
aF0
aF0.13198950052378472
aF0
aF-0.075519601552196503
aF-0.029248356133281129
aF0
aF0.16007238164394119
aF0.24370720058213835
aF0
aF-0.046560954327590519
aF-0.29310491876186712
aF0
aF0.10708839970366363
aF0.025980256782003563
as(I8
g12
g3
(g5
S'\x05\x00\x00\x00\x00\x00\x00\x00'
tRp649
g2
I0
tp650
(lp651
F0.17070588420741939
aF0
aF0.17156890278796461
aF0
aF0.17336886020335546
aF0
aF0.15547442290718799
aF0
aF0.24348901209375429
aF0.29245997975338506
aF0
aF0.022531292397865846
aF0.39697994228113276
aF0
aF0.20542454697655582
aF0.013207649911898782
aF0
aF0.0030741102861957413
aF0.085152813080456483
aF0
as(I7
g2
g3
(g5
S'\t\x00\x00\x00\x00\x00\x00\x00'
tRp652
g12
I2
tp653
(lp654
F0
aF0.20051511577106443
aF0
aF0.20117285565321927
aF0
aF0.2053344822848546
aF0
aF0.19697215177157223
aF0
aF0.28775960795800648
aF0.14526525636136001
aF0
aF0.019771065725442124
aF0.22439924757697438
aF0
aF0.22180171081807673
aF0.0024051240687347221
aF0
aF-0.00030745100761733041
aF0.050483494512145066
as(I0
g2
I0
g2
I0
tp655
(lp656
F0.11302560822191141
aF-0.19376348891460429
aF0.10653971173858601
aF-0.19322345691282367
aF0.08083233521704955
aF-0.18188053220365719
aF0.023038299800640417
aF-0.12293451710631882
aF0.047655899413348038
aF0.31352312865826742
aF-0.56593172321902963
aF0.0071087124847949348
aF0.048330920985848402
aF-0.25151033755160029
aF0.030864853541313065
aF0.20224821335904966
aF-0.31686719626355264
aF9.3314722668445083e-06
aF0.0014774967688488455
aF-0.053128662542022156
as(I8
g12
g3
(g5
S'\t\x00\x00\x00\x00\x00\x00\x00'
tRp657
g12
I1
tp658
(lp659
F-0.01225102487921842
aF0
aF-0.0024037715237725521
aF0
aF0.038159513124660913
aF0
aF0.11506160758835374
aF0
aF-0.017565117032542005
aF0.13670525740048509
aF0
aF-0.0065729343012362589
aF0.13102514978572025
aF0
aF-0.010563700709266044
aF0.099674763943525771
aF0
aF-0.0012183978822946052
aF0.066438392525850376
aF0
as(I3
g2
g3
(g5
S'\x05\x00\x00\x00\x00\x00\x00\x00'
tRp660
g2
I1
tp661
(lp662
F0
aF0.015767336924739885
aF0
aF0.022872328584843123
aF0
aF0.046351525084691952
aF0
aF0.054999839211285796
aF0
aF-0.0016436843628801906
aF0.10572905728198843
aF0
aF0.069061001244505676
aF0.074599747690020604
aF0
aF-0.070125402648818544
aF0.0626856079848023
aF0
aF0.0082779541806256556
aF0.040974534551603839
as(I4
g2
g3
(g5
S'\t\x00\x00\x00\x00\x00\x00\x00'
tRp663
g12
I0
tp664
(lp665
F0
aF-0.04872407852599217
aF0
aF-0.048508258925230419
aF0
aF-0.042867465213188828
aF0
aF-0.010252874189977897
aF0
aF0.091557122886248482
aF-0.20252855328432801
aF0
aF0.0011539271022523809
aF-0.026950433866301367
aF0
aF0.08440874817721046
aF-0.16604744107313854
aF0
aF-0.00059284677576322076
aF-0.0016549409909967455
as(I4
g2
g3
(g5
S'\x00\x00\x00\x00\x00\x00\x00\x00'
tRp666
g2
I2
tp667
(lp668
F0
aF-0.19339707552628152
aF0
aF-0.19429734388564876
aF0
aF-0.19624262882118076
aF0
aF-0.17690780407348897
aF0
aF0.066143267635569394
aF-0.47473239209417961
aF0
aF-0.037932852178537681
aF-0.30884372890711087
aF0
aF0.095773773094221623
aF-0.25637004017053883
aF0
aF-0.0022062464552130472
aF-0.078924917572424522
as(I7
g2
I7
g2
I2
tp669
(lp670
F0.40877346953765847
aF-0.6488790296446989
aF0.41322818964093616
aF-0.65687438295528999
aF0.430470044495183
aF-0.68085033177514642
aF0.43081510279423285
aF-0.62835902791905485
aF0.09449886889513047
aF0.37791196294748697
aF-1.2129896166087124
aF0.2208048234239208
aF0.26624327804109577
aF-1.0219442624420909
aF-0.070127803832973137
aF0.18225662964278155
aF-0.37065988752469753
aF0.030764524076533149
aF0.11168721401864186
aF-0.28025310087703265
as(I7
g2
g3
(g5
S'\x00\x00\x00\x00\x00\x00\x00\x00'
tRp671
g2
I0
tp672
(lp673
F0
aF-0.089866971732254386
aF0
aF-0.090467304479602634
aF0
aF-0.091857368161864655
aF0
aF-0.082893456460042494
aF0
aF-0.051009151599065682
aF-0.52465803322911164
aF0
aF-0.0048456415797225151
aF-0.14523277906484089
aF0
aF-0.033307218955436882
aF-0.2609648537722884
aF0
aF2.6847441254597987e-05
aF-0.011932464235578017
as(I8
g12
g3
(g5
S'\x06\x00\x00\x00\x00\x00\x00\x00'
tRp674
g2
I2
tp675
(lp676
F-0.22582045452753285
aF0
aF-0.21785346893585228
aF0
aF-0.1836759108671685
aF0
aF-0.077299972966454703
aF0
aF-0.01664981705999129
aF-0.93209613215667941
aF0
aF-0.004427037057502076
aF-0.25339122031150835
aF0
aF-0.011889465272672015
aF-0.58692348522828075
aF0
aF-0.0006373385607488679
aF-0.03010791697198226
aF0
as(I4
g2
g3
(g5
S'\x03\x00\x00\x00\x00\x00\x00\x00'
tRp677
g2
I2
tp678
(lp679
F0
aF0.18029717196125461
aF0
aF0.18103110619697479
aF0
aF0.18127097474757958
aF0
aF0.15124131007265751
aF0
aF0.14790594361510412
aF0.2236035747698274
aF0
aF0.079820262773459924
aF0.19066323221325948
aF0
aF0.12371737117651919
aF0.046234041094465356
aF0
aF0.06391968555988263
aF0.040053639587370543
as(I2
g2
g3
(g5
S'\x04\x00\x00\x00\x00\x00\x00\x00'
tRp680
g2
I0
tp681
(lp682
F0
aF-0.2117812249451865
aF0
aF-0.21222038165101484
aF0
aF-0.21067362453303584
aF0
aF-0.16981189270046948
aF0
aF0.0073424724693696881
aF-0.57294543765977535
aF0
aF-0.054998514420099447
aF-0.44284348027524445
aF0
aF0.0094016024738471128
aF-0.20605696215791228
aF0
aF-0.024797011134679137
aF-0.12604917507363156
as(I5
g2
g3
(g5
S'\x06\x00\x00\x00\x00\x00\x00\x00'
tRp683
g2
I1
tp684
(lp685
F0
aF-0.0034820160919786791
aF0
aF-0.0066751795306114886
aF0
aF-0.015943344581062849
aF0
aF-0.012102736234796199
aF0
aF0.021745633413608967
aF-0.048454934619209453
aF0
aF-0.0094726000562239242
aF-0.040513435328206976
aF0
aF0.034104275271753456
aF0.0093881832330668952
aF0
aF-0.00022811489696645688
aF-0.0037420751312565075
as(I6
g2
g3
(g5
S'\x07\x00\x00\x00\x00\x00\x00\x00'
tRp686
g2
I2
tp687
(lp688
F0
aF0.098301607567002972
aF0
aF0.096933566715881922
aF0
aF0.091503740072545789
aF0
aF0.069048367921915405
aF0
aF0.16839009780511302
aF0.090214363913162274
aF0
aF0.10794110250693777
aF0.14293852160024853
aF0
aF0.047005339512553333
aF0.026892134757966354
aF0
aF0.018373265733392385
aF0.028987617268339535
as(I3
g2
g3
(g5
S'\x04\x00\x00\x00\x00\x00\x00\x00'
tRp689
g2
I1
tp690
(lp691
F0
aF-0.033036769485208867
aF0
aF-0.020929495079259119
aF0
aF0.028280932881077886
aF0
aF0.12552504701660921
aF0
aF-0.00078404812979185193
aF-0.14043152815603904
aF0
aF0.052114278784659886
aF0.29197786517780344
aF0
aF-0.023319196430292101
aF-0.21735629808085286
aF0
aF0.013702705089164888
aF0.17249701528289083
as(I5
g2
g3
(g5
S'\x06\x00\x00\x00\x00\x00\x00\x00'
tRp692
g2
I0
tp693
(lp694
F0
aF-0.031839286673441838
aF0
aF-0.034491804107501939
aF0
aF-0.040293243528135791
aF0
aF-0.020204028350116261
aF0
aF-0.08660885672200147
aF-0.40746770622708633
aF0
aF-0.009825495676430587
aF-0.090042517915224121
aF0
aF-0.07054021825344646
aF-0.25608728210185738
aF0
aF-0.00050914317835519573
aF-0.0076826914520231561
as(I4
g2
g3
(g5
S'\x01\x00\x00\x00\x00\x00\x00\x00'
tRp695
g2
I0
tp696
(lp697
F0
aF-0.17743233906274883
aF0
aF-0.18880755011163611
aF0
aF-0.22677005478112203
aF0
aF-0.24299956517402097
aF0
aF0.021904711071481269
aF-0.45335372816529673
aF0
aF-0.13949325554862033
aF-0.3801877199709281
aF0
aF0.051841403405168386
aF-0.15271138466067755
aF0
aF-0.090358108718869748
aF-0.10298816549288892
as(I5
g2
g3
(g5
S'\t\x00\x00\x00\x00\x00\x00\x00'
tRp698
g12
I0
tp699
(lp700
F0
aF0.11148180247217428
aF0
aF0.11038296804946064
aF0
aF0.1024626469247534
aF0
aF0.052011767583042899
aF0
aF-0.049508931798740038
aF0.38783612276519974
aF0
aF0.030125848031411738
aF0.11475211356321467
aF0
aF-0.084619183076493798
aF0.21251040400062282
aF0
aF0.0042887242278303516
aF0.0062813553124232641
as(I3
g2
g3
(g5
S'\x01\x00\x00\x00\x00\x00\x00\x00'
tRp701
g2
I1
tp702
(lp703
F0
aF-0.0064622674126817159
aF0
aF-0.0044346607829880147
aF0
aF0.0051314986293991283
aF0
aF0.037656936119336432
aF0
aF-0.12037794099128729
aF0.017606464699147128
aF0
aF0.073217779707588054
aF0.030873184574760293
aF0
aF-0.094903253137363489
aF-0.021483616455464847
aF0
aF0.030197849406262318
aF-0.014430502548587007
as(I7
g2
g3
(g5
S'\x04\x00\x00\x00\x00\x00\x00\x00'
tRp704
g2
I0
tp705
(lp706
F0
aF-0.23561617068957774
aF0
aF-0.24324495804479512
aF0
aF-0.25522260692260068
aF0
aF-0.15166300388386098
aF0
aF-0.17862785875555404
aF-0.94998356734140776
aF0
aF-0.058680913220762181
aF-0.39824672924057741
aF0
aF-0.092647454912164681
aF-0.46470040548419106
aF0
aF-0.0034189967180557608
aF-0.070813783272130768
as(I3
g2
g3
(g5
S'\x01\x00\x00\x00\x00\x00\x00\x00'
tRp707
g2
I0
tp708
(lp709
F0
aF-0.1209567911853156
aF0
aF-0.12315081977123779
aF0
aF-0.12913445451049127
aF0
aF-0.10843746398384074
aF0
aF-0.27223980702436124
aF-0.091457086442377114
aF0
aF-0.075054894473248562
aF-0.22577859775595016
aF0
aF-0.19549956756804415
aF0.11854338495224104
aF0
aF-0.0057140930885709084
aF-0.071142329038587318
as(I6
g2
g3
(g5
S'\x04\x00\x00\x00\x00\x00\x00\x00'
tRp710
g2
I0
tp711
(lp712
F0
aF0.069399309608260185
aF0
aF0.071140890218204869
aF0
aF0.076821990485047606
aF0
aF0.072445556100992403
aF0
aF0.1238846002499131
aF0.5018530716701064
aF0
aF0.054436853440739501
aF0.14751152528269568
aF0
aF0.036561031891929441
aF0.35447746147468573
aF0
aF-0.0040099000082049535
aF0.056720060212102373
as(I7
g2
g3
(g5
S'\x05\x00\x00\x00\x00\x00\x00\x00'
tRp713
g2
I2
tp714
(lp715
F0
aF-0.068020605074074439
aF0
aF-0.069418036670377159
aF0
aF-0.073548118072282828
aF0
aF-0.064518791819274279
aF0
aF0.32065345269997736
aF-0.61639892334897783
aF0
aF-0.073718779709647519
aF-0.051224258504226065
aF0
aF0.38669774711960836
aF-0.56177103552610508
aF0
aF-0.016660519389644263
aF-0.028075966249771753
as(I9
g12
g3
(g5
S'\x07\x00\x00\x00\x00\x00\x00\x00'
tRp716
g2
I1
tp717
(lp718
F-0.016685059510377253
aF0
aF-0.012198539812515771
aF0
aF0.0028459797452964628
aF0
aF0.018650168686391525
aF0
aF-0.12060354461742626
aF-0.026622030004042608
aF0
aF0.061256901635199472
aF0.046032564350926418
aF0
aF-0.12667786693655145
aF-0.03949200668448373
aF0
aF0.0067454825676774854
aF0.024728107822746478
aF0
as(I3
g2
g3
(g5
S'\x00\x00\x00\x00\x00\x00\x00\x00'
tRp719
g2
I1
tp720
(lp721
F0
aF-0.0010478394917955991
aF0
aF-0.0010435110243791207
aF0
aF-0.0009192262673421922
aF0
aF-0.0002171118835471433
aF0
aF0.00051891197574822922
aF-0.0071185266508524535
aF0
aF1.4357055134161285e-05
aF-0.0019821962915543912
aF0
aF-0.00032377734748226662
aF0.0050345024828026066
aF0
aF-3.4126646147227098e-05
aF0.00064421135160396773
as(I8
g12
g3
(g5
S'\x00\x00\x00\x00\x00\x00\x00\x00'
tRp722
g2
I1
tp723
(lp724
F-0.00038655369598945138
aF0
aF0.0025703311344184854
aF0
aF0.010869022287564235
aF0
aF0.01142666562386053
aF0
aF0.020703472260279413
aF0.050514948828307933
aF0
aF-0.0025305950725696491
aF0.036336840439011954
aF0
aF0.025120030236411111
aF0.025895115626222029
aF0
aF-1.3506600098029273e-05
aF0.001381885083908676
aF0
as(I1
g2
g3
(g5
S'\x06\x00\x00\x00\x00\x00\x00\x00'
tRp725
g2
I0
tp726
(lp727
F0
aF0.22386815878828353
aF0
aF0.23080133454388124
aF0
aF0.24834735532493951
aF0
aF0.21139573936971273
aF0
aF0.077314448188051416
aF0.71413649114692834
aF0
aF0.059687342112513669
aF0.5239454218364481
aF0
aF-0.00042424434199629657
aF0.35426148428903592
aF0
aF0.0021314374976032068
aF0.19684484865915217
as(I1
g2
g3
(g5
S'\x07\x00\x00\x00\x00\x00\x00\x00'
tRp728
g2
I1
tp729
(lp730
F0
aF0.014473268751003326
aF0
aF0.023054739010751148
aF0
aF0.05107635626549277
aF0
aF0.062778885274503704
aF0
aF0.09511699327340023
aF0.049620761552482864
aF0
aF0.051134384711524004
aF0.1605568511913274
aF0
aF0.057717459640847478
aF-0.066484580908706056
aF0
aF0.0088225779095508113
aF0.035825266361827146
as(I6
g2
g3
(g5
S'\x05\x00\x00\x00\x00\x00\x00\x00'
tRp731
g2
I2
tp732
(lp733
F0
aF0.057335568492184685
aF0
aF0.053848164736450946
aF0
aF0.039700541730333744
aF0
aF0.0081089786201494728
aF0
aF0.10549272882550885
aF0.12868936430617164
aF0
aF0.019752997618715747
aF0.02129387793456269
aF0
aF0.065974322800950225
aF0.090568380899956585
aF0
aF9.4925181846398958e-05
aF0.0012066633183958272
as(I4
g2
g3
(g5
S'\x06\x00\x00\x00\x00\x00\x00\x00'
tRp734
g2
I2
tp735
(lp736
F0
aF-0.058785479502030405
aF0
aF-0.060260705290657718
aF0
aF-0.065072946293783102
aF0
aF-0.061365837459011099
aF0
aF0.14283920711655385
aF-0.17351738222075117
aF0
aF0.0042870826579874712
aF-0.097951368202523315
aF0
aF0.12678410516454017
aF-0.14369924378264806
aF0
aF-0.0028069808114802564
aF-0.057556744483952836
as(I3
g2
g3
(g5
S'\x08\x00\x00\x00\x00\x00\x00\x00'
tRp737
g12
I0
tp738
(lp739
F0
aF0.046730703621378489
aF0
aF0.05054027535820152
aF0
aF0.058748591311732809
aF0
aF0.029155068723025299
aF0
aF-0.16604209872105014
aF0.22261203735664331
aF0
aF-0.013425568474532702
aF0.098055824453537138
aF0
aF-0.13588218427099802
aF0.10527510796303297
aF0
aF0.00098802643293876332
aF0.010557908893959321
as(I7
g2
g3
(g5
S'\x03\x00\x00\x00\x00\x00\x00\x00'
tRp740
g2
I0
tp741
(lp742
F0
aF0.022863225849211265
aF0
aF0.024101799414767075
aF0
aF0.027399752036346627
aF0
aF0.019538070209522581
aF0
aF0.1766669765210476
aF-0.10231389472439203
aF0
aF0.018666903079821381
aF0.045362926789727143
aF0
aF0.1220418900893868
aF-0.10601590675777101
aF0
aF-0.0024998382396479086
aF0.014297846746783929
as(I4
g2
g3
(g5
S'\x05\x00\x00\x00\x00\x00\x00\x00'
tRp743
g2
I2
tp744
(lp745
F0
aF0.0064352166836770339
aF0
aF0.0063128276840439248
aF0
aF0.0057129518080645406
aF0
aF0.0031014065563379429
aF0
aF0.15434150856122295
aF-0.13178933330307918
aF0
aF0.0096231965592246983
aF0.038594593965045283
aF0
aF0.11939077688634669
aF-0.14967660425428667
aF0
aF0.0008533130829652283
aF0.0025847283662504893
as(I9
g12
g3
(g5
S'\x06\x00\x00\x00\x00\x00\x00\x00'
tRp746
g2
I1
tp747
(lp748
F0.02194479412301507
aF0
aF0.020805951419039015
aF0
aF0.016123267049950481
aF0
aF0.0044751938798956517
aF0
aF-0.0044298283053909584
aF0.056622653082929131
aF0
aF-0.00012662566428276817
aF0.012014221314074666
aF0
aF-0.0063627556945257653
aF0.043935090836310378
aF0
aF-0.00011044423891734183
aF0.0015778776336544701
aF0
as(I0
g2
g3
(g5
S'\x03\x00\x00\x00\x00\x00\x00\x00'
tRp749
g2
I2
tp750
(lp751
F0
aF0.19950303432049346
aF0
aF0.17972485618849982
aF0
aF0.11056267663539059
aF0
aF0.011289169000086282
aF0
aF0.054668382445227599
aF0.41140576212648877
aF0
aF0.0061099560524564582
aF0.044851352564420868
aF0
aF0.04014042864669435
aF0.32561350650760224
aF0
aF3.0587992615520788e-05
aF0.00071445487933122361
as(I8
g12
g3
(g5
S'\x01\x00\x00\x00\x00\x00\x00\x00'
tRp752
g2
I1
tp753
(lp754
F0.0099672993718900229
aF0
aF0.0097081264251736195
aF0
aF0.008428997107872295
aF0
aF0.0035275625360429047
aF0
aF0.062487417503372861
aF0.006311274694727009
aF0
aF-0.011407278616354877
aF0.017820983241814071
aF0
aF0.074766200091813631
aF-0.0076036246873869753
aF0
aF0.00013130464788845109
aF0.003273486957292804
aF0
as(I4
g2
g3
(g5
S'\x06\x00\x00\x00\x00\x00\x00\x00'
tRp755
g2
I1
tp756
(lp757
F0
aF-0.0010150962334489477
aF0
aF-0.00072236243028825364
aF0
aF0.00071501883470032057
aF0
aF0.0064538903170867912
aF0
aF0.08728938401426295
aF-0.039459460673706016
aF0
aF-0.02240093533905899
aF0.02629250037855773
aF0
aF0.060930644861134683
aF-0.033511412619482719
aF0
aF-0.011954380543864921
aF-0.004490974320471317
as(I0
g2
g3
(g5
S'\t\x00\x00\x00\x00\x00\x00\x00'
tRp758
g12
I2
tp759
(lp760
F0
aF0.14483843201202598
aF0
aF0.13486829893702229
aF0
aF0.096024759847130561
aF0
aF0.017206383312002554
aF0
aF0.11053766859451188
aF0.35512822501337438
aF0
aF0.014143762632189506
aF0.049676933763653432
aF0
aF0.076960578099479232
aF0.26476745613681107
aF0
aF4.1070475490993562e-05
aF0.0018644109933588489
as(I9
g12
g3
(g5
S'\x03\x00\x00\x00\x00\x00\x00\x00'
tRp761
g2
I1
tp762
(lp763
F-0.024683784479772548
aF0
aF-0.013759377464074879
aF0
aF0.031841328618507664
aF0
aF0.12577048563056373
aF0
aF-0.010267267893752654
aF-0.11478872272939443
aF0
aF-0.0032781343007852121
aF0.2570561460558855
aF0
aF-0.015322005617884356
aF-0.17678750685472128
aF0
aF-0.0017941053724097283
aF0.13655061941146662
aF0
as(I0
g2
g3
(g5
S'\x06\x00\x00\x00\x00\x00\x00\x00'
tRp764
g2
I0
tp765
(lp766
F0
aF-0.21058111627676923
aF0
aF-0.21654006359751779
aF0
aF-0.23082895488684432
aF0
aF-0.19143132964076862
aF0
aF-0.027346186377715194
aF-0.61178950405828147
aF0
aF-0.025715927448343466
aF-0.46749515639673933
aF0
aF0.0026560890522936056
aF-0.22159056209775271
aF0
aF-0.0012015615274914883
aF-0.15149860415304436
as(I8
g12
g3
(g5
S'\x04\x00\x00\x00\x00\x00\x00\x00'
tRp767
g2
I1
tp768
(lp769
F0.025213420353498488
aF0
aF0.014009725514878399
aF0
aF-0.026351211767800253
aF0
aF-0.074959446305665575
aF0
aF0.0071575949717099362
aF0.041917477577314059
aF0
aF0.0028871638065245584
aF-0.26085861004626221
aF0
aF0.0068176671673977392
aF0.17416235198419716
aF0
aF0.00032403321484467205
aF-0.052897345597924486
aF0
as(I1
g2
g3
(g5
S'\x02\x00\x00\x00\x00\x00\x00\x00'
tRp770
g2
I0
tp771
(lp772
F0
aF-0.034257480252288988
aF0
aF-0.035065000781562397
aF0
aF-0.033987108628919724
aF0
aF-0.010114454745506894
aF0
aF-0.059129248154577096
aF-0.060103392180952939
aF0
aF-0.005065939368328375
aF-0.026366835282071524
aF0
aF-0.045466208952319974
aF-0.019686761530281857
aF0
aF1.3308737467363417e-05
aF-0.0013534891989748479
as(I6
g2
g3
(g5
S'\x01\x00\x00\x00\x00\x00\x00\x00'
tRp773
g2
I2
tp774
(lp775
F0
aF0.10779067053578059
aF0
aF0.10732040297404402
aF0
aF0.10432304753574864
aF0
aF0.080936220316526392
aF0
aF0.1423670501267571
aF0.3781274753643859
aF0
aF0.065042895455500127
aF0.097346423117547695
aF0
aF0.05671874536121984
aF0.30851038677078446
aF0
aF-0.0010577029940793774
aF0.054658422116045338
as(I8
g12
I8
g12
I0
tp776
(lp777
F0.20761716089338739
aF-0.19910262651877575
aF0.21704091440037449
aF-0.19418513105068777
aF0.24433773161593392
aF-0.1590900205751905
aF0.22532633275416497
aF0.0020732729380260008
aF0.019803179220748073
aF0.51583714032590788
aF-0.67406274937602606
aF0.0084214616269947494
aF0.45064840291637437
aF-0.15958076322092715
aF0.013364759007966548
aF0.13183726074220556
aF-0.36628799083170382
aF0.0019123827543965201
aF0.080090978384627268
aF-0.010232533362164245
as(I3
g2
g3
(g5
S'\x06\x00\x00\x00\x00\x00\x00\x00'
tRp778
g2
I2
tp779
(lp780
F0
aF-0.22117526854203146
aF0
aF-0.2229684953845282
aF0
aF-0.2284695848330435
aF0
aF-0.21801033088765107
aF0
aF-0.016744673784568669
aF-0.67624179538211415
aF0
aF-0.032656893842563914
aF-0.47907403624054895
aF0
aF0.00093693099864847987
aF-0.40759457284693451
aF0
aF-0.011238803040826249
aF-0.21761446669573364
as(I2
g2
g3
(g5
S'\x06\x00\x00\x00\x00\x00\x00\x00'
tRp781
g2
I2
tp782
(lp783
F0
aF0.15641665710618713
aF0
aF0.15522929200611363
aF0
aF0.15013168897611009
aF0
aF0.12317812124439136
aF0
aF0.12302554654210959
aF0.76602199979483998
aF0
aF0.043158069452823938
aF0.25158121651951609
aF0
aF0.052143398246353334
aF0.52992961198481514
aF0
aF-0.00018898328209129969
aF0.080613400003807262
as(I4
g2
g3
(g5
S'\x08\x00\x00\x00\x00\x00\x00\x00'
tRp784
g12
I1
tp785
(lp786
F0
aF-0.025213420353498495
aF0
aF-0.014009725514878404
aF0
aF0.026351211767800253
aF0
aF0.074959446305665589
aF0
aF-0.012580849066203784
aF0.17229209235163256
aF0
aF0.031273231713425137
aF0.10104755015903934
aF0
aF-0.0061995738597487894
aF0.019829895206491581
aF0
aF0.027789923609718985
aF-0.0017036059581697158
as(I1
g2
g3
(g5
S'\x08\x00\x00\x00\x00\x00\x00\x00'
tRp787
g12
I2
tp788
(lp789
F0
aF0.1483197428240699
aF0
aF0.14446308482979475
aF0
aF0.12542882847787731
aF0
aF0.052492370161697638
aF0
aF0.16391224277166894
aF0.14255860784898983
aF0
aF0.0084225356982039201
aF0.10401914088861837
aF0
aF0.13350020377842264
aF0.021374970528955942
aF0
aF-0.00013270955701162075
aF0.011605047285832327
as(I9
g12
g3
(g5
S'\x02\x00\x00\x00\x00\x00\x00\x00'
tRp790
g2
I1
tp791
(lp792
F0.026419147785903308
aF0
aF0.026355142079003226
aF0
aF0.023108053367198601
aF0
aF0.005118481182772288
aF0
aF0.0086988631705683193
aF0.083827223191930755
aF0
aF0.0045864800493602247
aF0.020825813175926425
aF0
aF-0.00072751950416578403
aF0.050433058280700681
aF0
aF7.6532459345143843e-06
aF0.0015411396435412129
aF0
as(I0
g2
g3
(g5
S'\x07\x00\x00\x00\x00\x00\x00\x00'
tRp793
g2
I2
tp794
(lp795
F0
aF0.26312815523733568
aF0
aF0.26488591390321059
aF0
aF0.26895598420073619
aF0
aF0.2427098839444807
aF0
aF0.29381066158174779
aF0.99592450790538933
aF0
aF0.26959508198587184
aF0.4049680054043352
aF0
aF0.075784399960861296
aF0.5676737958731064
aF0
aF0.074299257842349628
aF0.085611640180177112
as(I8
g12
g3
(g5
S'\x05\x00\x00\x00\x00\x00\x00\x00'
tRp796
g2
I1
tp797
(lp798
F0.037388283480692119
aF0
aF0.024228840736813917
aF0
aF-0.02737187408851427
aF0
aF-0.11948072641133817
aF0
aF0.056888083144972589
aF0.10886373302934398
aF0
aF-0.047102707993008634
aF-0.35095215898126519
aF0
aF0.11110302666242469
aF0.3473249278530805
aF0
aF0.00068415242674846029
aF-0.05420915608339498
aF0
as(I5
g2
g3
(g5
S'\x04\x00\x00\x00\x00\x00\x00\x00'
tRp799
g2
I1
tp800
(lp801
F0
aF0.0070693339914666697
aF0
aF0.010691957155919016
aF0
aF0.020403812651166982
aF0
aF0.017260382108620062
aF0
aF0.085612892437304036
aF0.05501912060954648
aF0
aF-0.01073793347780469
aF0.039055813343362493
aF0
aF0.089700796316065909
aF0.022446806721225222
aF0
aF-0.00034343547588858712
aF0.012847568254185867
as(I3
g2
g3
(g5
S'\x05\x00\x00\x00\x00\x00\x00\x00'
tRp802
g2
I0
tp803
(lp804
F0
aF-0.15299847983098669
aF0
aF-0.15876875715803951
aF0
aF-0.17407401579298948
aF0
aF-0.13248175288528155
aF0
aF-0.24896259448981939
aF-0.2481643947613319
aF0
aF-0.11780175670136796
aF-0.25594739236936781
aF0
aF-0.15007285124715103
aF-0.032897525771416872
aF0
aF-0.024198591683076205
aF-0.075691932298459996
as(I2
g2
g3
(g5
S'\x07\x00\x00\x00\x00\x00\x00\x00'
tRp805
g2
I0
tp806
(lp807
F0
aF0.089670763457241384
aF0
aF0.090293517924225325
aF0
aF0.091832468206370171
aF0
aF0.083728748975847547
aF0
aF0.024199621784098829
aF0.079087171719085553
aF0
aF0.12051014988775971
aF0.20830272433033378
aF0
aF0.0043349188457139374
aF-0.066956889290703162
aF0
aF0.098507484650941668
aF0.032926543891776204
as(I4
g2
g3
(g5
S'\t\x00\x00\x00\x00\x00\x00\x00'
tRp808
g12
I1
tp809
(lp810
F0
aF0.012663430225401055
aF0
aF0.013878660683520783
aF0
aF0.015576815823217505
aF0
aF0.004900666978190386
aF0
aF0.032054127822994966
aF0.053835108530473172
aF0
aF-0.001684394734853436
aF0.015747129065129394
aF0
aF0.034676863817424255
aF0.02260938280882905
aF0
aF0.0001293242548177498
aF0.00052344799958760704
as(I8
g12
g3
(g5
S'\x04\x00\x00\x00\x00\x00\x00\x00'
tRp811
g2
I2
tp812
(lp813
F-0.20873178317713406
aF0
aF-0.20716067124197982
aF0
aF-0.20045914805536696
aF0
aF-0.1602719326602626
aF0
aF-0.015564733946312286
aF-1.0289895058906973
aF0
aF-0.0016462664109187859
aF-0.45830184750748659
aF0
aF-0.016742778478996669
aF-0.56864403503900318
aF0
aF-0.00043829444107170253
aF-0.10094052003745223
aF0
as(I7
g2
I7
g2
I0
tp814
(lp815
F0.10150271537542919
aF-0.20430804335765457
aF0.10515756385078906
aF-0.21356381425522841
aF0.11760555230038662
aF-0.242100904811273
aF0.1174069000379331
aF-0.2327708333720796
aF0.039863308440706589
aF0.34030253598568549
aF-0.92111734931638511
aF0.092730244396286063
aF0.055760554170484443
aF-0.53770334849587265
aF-0.036153248178577284
aF0.10626548205131862
aF-0.19173261525276844
aF0.0054785688652931415
aF-0.068068829261743374
aF-0.003148202529213627
as(I7
g2
I7
g2
I1
tp816
(lp817
F0.059167801621978759
aF-0.0057388302112581918
aF0.042021182943075386
aF-0.0015938919485290297
aF-0.029319419045454393
aF0.0075697611445874804
aF-0.20977051285018114
aF0.010013687544927157
aF-0.011814382178124708
aF0.15818475448126756
aF0.013853878580394899
aF-0.052448709345136464
aF-0.50515283477687123
aF0.013475229365981849
aF0.048137890921783527
aF0.36366053632357576
aF0.0087608920174122081
aF0.0047592347982268381
aF-0.14352339097761377
aF0.0090924021234344288
as(I3
g2
g3
(g5
S'\x02\x00\x00\x00\x00\x00\x00\x00'
tRp818
g2
I2
tp819
(lp820
F0
aF-0.19845996949092187
aF0
aF-0.18642373248865399
aF0
aF-0.13823352107766373
aF0
aF-0.030932874742506025
aF0
aF-0.026341319159610379
aF-0.49392280907586195
aF0
aF-0.010778900243004579
aF-0.11670194726145491
aF0
aF-0.010239067526820441
aF-0.32953048541581631
aF0
aF-0.0003278339744132469
aF-0.0093165739214573703
as(I5
g2
g3
(g5
S'\x01\x00\x00\x00\x00\x00\x00\x00'
tRp821
g2
I2
tp822
(lp823
F0
aF0.052949856399280473
aF0
aF0.052834235891035239
aF0
aF0.052275861362085063
aF0
aF0.0469542518093456
aF0
aF0.32617673628759614
aF0.076923238022229848
aF0
aF0.0088125793327040458
aF0.067910471752515342
aF0
aF0.23973974414501797
aF-0.0034186035282341917
aF0
aF-0.016803204484909219
aF0.043247928348813677
as(I3
g2
g3
(g5
S'\t\x00\x00\x00\x00\x00\x00\x00'
tRp824
g12
I0
tp825
(lp826
F0
aF-0.21787848971414397
aF0
aF-0.2238299697263412
aF0
aF-0.2392418819396602
aF0
aF-0.21142120324592531
aF0
aF-0.076615077876154472
aF-0.55936657001164813
aF0
aF-0.12708551532018786
aF-0.27938467981904952
aF0
aF-0.022090564479533892
aF-0.24431398557154826
aF0
aF-0.068217902021420307
aF-0.027332005991084339
as(I8
g12
g3
(g5
S'\x05\x00\x00\x00\x00\x00\x00\x00'
tRp827
g2
I2
tp828
(lp829
F-0.2254434416419423
aF0
aF-0.22658319074843852
aF0
aF-0.22896031205517445
aF0
aF-0.20532794841976446
aF0
aF-0.051068349561370227
aF-1.1043320036981941
aF0
aF-0.045173378178790441
aF-0.45253228277039548
aF0
aF-0.0089653101266952105
aF-0.63519071692920415
aF0
aF-0.0089854297160674983
aF-0.078623421645677899
aF0
as(I3
g2
g3
(g5
S'\x04\x00\x00\x00\x00\x00\x00\x00'
tRp830
g2
I2
tp831
(lp832
F0
aF-0.18029717196125464
aF0
aF-0.18103110619697482
aF0
aF-0.18127097474757964
aF0
aF-0.15124131007265756
aF0
aF0.011484268361759311
aF-0.7116830325093505
aF0
aF-0.043121740478694139
aF-0.34364793861340348
aF0
aF0.0012037539077357166
aF-0.45640151337760237
aF0
aF-0.030500680416658526
aF-0.14337679037931728
as(I2
g2
g3
(g5
S'\x04\x00\x00\x00\x00\x00\x00\x00'
tRp833
g2
I2
tp834
(lp835
F0
aF0.19763967784911562
aF0
aF0.19804951016492953
aF0
aF0.19660603670033266
aF0
aF0.15847281918855569
aF0
aF0.15378195848094708
aF0.87535939760917592
aF0
aF0.093663685153026741
aF0.33915135487427145
aF0
aF0.0403673187326897
aF0.57870773630670591
aF0
aF0.00300149759046446
aF0.1163268324872708
as(I4
g2
g3
(g5
S'\x05\x00\x00\x00\x00\x00\x00\x00'
tRp836
g2
I1
tp837
(lp838
F0
aF-0.0070693339914666697
aF0
aF-0.010691957155919019
aF0
aF-0.020403812651166982
aF0
aF-0.017260382108620062
aF0
aF0.049102238071192128
aF-0.079278898288592747
aF0
aF-0.024079421047937765
aF-0.025700829089930134
aF0
aF0.061787594814331721
aF-0.014721543088663819
aF0
aF-0.0026582398207372179
aF-0.00017375848547476874
as(I9
g12
g3
(g5
S'\x07\x00\x00\x00\x00\x00\x00\x00'
tRp839
g2
I2
tp840
(lp841
F-0.2005151157710644
aF0
aF-0.20117285565321924
aF0
aF-0.20533448228485457
aF0
aF-0.19697215177157223
aF0
aF-0.11817294266136522
aF-0.6604271334873707
aF0
aF-0.11589353931137264
aF-0.50631617833723563
aF0
aF-0.0017071240186197593
aF-0.36718461404450969
aF0
aF-0.0086880264414779425
aF-0.23459539544547198
aF0
as(I7
g2
g3
(g5
S'\x06\x00\x00\x00\x00\x00\x00\x00'
tRp842
g2
I1
tp843
(lp844
F0
aF-0.0069184436011919953
aF0
aF-0.0044011761950399735
aF0
aF0.0034306775025615601
aF0
aF0.0089920225789766658
aF0
aF-0.061562412979787762
aF0.024437906450420571
aF0
aF0.021345857443458512
aF0.016246927514122683
aF0
aF-0.10522160557852354
aF-0.0052279923823063046
aF0
aF-0.00014170144433829407
aF-0.003462895789831142
as(I9
g12
g3
(g5
S'\x04\x00\x00\x00\x00\x00\x00\x00'
tRp845
g2
I2
tp846
(lp847
F-0.21792216957919311
aF0
aF-0.19830710442708785
aF0
aF-0.12727570048424891
aF0
aF-0.015054863972466795
aF0
aF-0.053952217705256274
aF-0.45645962374749949
aF0
aF-0.0067130492812012355
aF-0.059753684624729811
aF0
aF-0.042548749540232571
aF-0.34296486491020822
aF0
aF-0.00043672316805259623
aF-0.0011037514611951665
aF0
as(I0
g2
g3
(g5
S'\x01\x00\x00\x00\x00\x00\x00\x00'
tRp848
g2
I2
tp849
(lp850
F0
aF0.18362210969887419
aF0
aF0.17633698148233246
aF0
aF0.14329108576720528
aF0
aF0.042934400394058075
aF0
aF0.1490069473811409
aF0.55475544172093483
aF0
aF0.037891019182845286
aF0.073703960373870767
aF0
aF0.086558908430505802
aF0.43285249565198153
aF0
aF0.0012935931309273673
aF0.0076245081465931208
as(I5
g2
g3
(g5
S'\x00\x00\x00\x00\x00\x00\x00\x00'
tRp851
g2
I0
tp852
(lp853
F0
aF-0.20790231348827265
aF0
aF-0.20821095396548778
aF0
aF-0.20611474043680489
aF0
aF-0.16389852114150771
aF0
aF-0.16398876396671253
aF-0.8921317370285744
aF0
aF-0.014386528375895201
aF-0.34170568477054675
aF0
aF-0.12385423058580079
aF-0.45790950694835941
aF0
aF-3.7127102776906972e-05
aF-0.060516331512033318
as(I4
g2
g3
(g5
S'\x06\x00\x00\x00\x00\x00\x00\x00'
tRp854
g2
I0
tp855
(lp856
F0
aF-0.069399309608260198
aF0
aF-0.071140890218204883
aF0
aF-0.07682199048504762
aF0
aF-0.072445556100992403
aF0
aF0.079526147686956164
aF0.043367515061268111
aF0
aF-0.034881433037441796
aF-0.12856576111519649
aF0
aF0.11755158437642765
aF0.032009569730939137
aF0
aF-0.0021237858985693513
aF-0.074274163948686994
as(I7
g2
g3
(g5
S'\x06\x00\x00\x00\x00\x00\x00\x00'
tRp857
g2
I0
tp858
(lp859
F0
aF-0.11091980531872855
aF0
aF-0.12391073190803691
aF0
aF-0.17222326604105453
aF0
aF-0.21502143066170501
aF0
aF-0.1189573980969454
aF-0.59207593096628786
aF0
aF-0.012949801221094182
aF-0.54101866132228249
aF0
aF-0.097976443200810975
aF-0.10334500575155185
aF0
aF-0.0024513494405257494
aF-0.10297545842156568
as(I3
g2
g3
(g5
S'\t\x00\x00\x00\x00\x00\x00\x00'
tRp860
g12
I1
tp861
(lp862
F0
aF0.024683784479772465
aF0
aF0.013759377464074799
aF0
aF-0.031841328618507747
aF0
aF-0.12577048563056378
aF0
aF0.043619473213800303
aF-0.080070226739297035
aF0
aF-0.04924696432972684
aF-0.11724358119742515
aF0
aF0.018755862264588204
aF0.030586742053584401
aF0
aF-0.052900165660111749
aF-0.019374241982914035
as(I5
g2
I5
g2
I2
tp863
(lp864
F0.51989956609323817
aF-0.18550752333830142
aF0.51813697133418113
aF-0.18709040010000619
aF0.49959420247881525
aF-0.19033041687906593
aF0.34270627536408355
aF-0.17328343212876671
aF0.20631511574186551
aF0.80110600546550514
aF-0.45335305170967782
aF0.12285675705697985
aF0.60418424518301483
aF-0.27853860511148054
aF0.077849692505111992
aF0.32061317124984523
aF-0.19056350522407337
aF0.020695229215850083
aF0.16586593776505248
aF-0.10843671955876194
as(I5
g2
g3
(g5
S'\x03\x00\x00\x00\x00\x00\x00\x00'
tRp865
g2
I2
tp866
(lp867
F0
aF0.15929366091025574
aF0
aF0.15406404752083885
aF0
aF0.13244261429381216
aF0
aF0.067883187641998369
aF0
aF0.24015185773425277
aF0.20103122909258014
aF0
aF0.040027983551917307
aF0.10040905089933154
aF0
aF0.15878397727450011
aF0.11715337717235087
aF0
aF-0.00082287898201010049
aF0.031040991763659001
as(I9
g12
g3
(g5
S'\x07\x00\x00\x00\x00\x00\x00\x00'
tRp868
g2
I0
tp869
(lp870
F-0.16398234091413499
aF0
aF-0.16877632209703319
aF0
aF-0.18514851212860189
aF0
aF-0.18756216512341631
aF0
aF-0.31507546111482027
aF-0.10978717019937877
aF0
aF-0.073915443832058073
aF-0.53475862777598848
aF0
aF-0.15315987488520078
aF0.1146179867941452
aF0
aF0.0015697952890757398
aF-0.26247088615650455
aF0
as(I3
g2
g3
(g5
S'\x00\x00\x00\x00\x00\x00\x00\x00'
tRp871
g2
I2
tp872
(lp873
F0
aF-0.19950303432049352
aF0
aF-0.17972485618849987
aF0
aF-0.11056267663539063
aF0
aF-0.01128916900008629
aF0
aF-0.025445460146142396
aF-0.41695122292117487
aF0
aF-0.0097970940464742213
aF-0.058206929986694612
aF0
aF-0.01009383922520256
aF-0.31367069974879036
aF0
aF-0.00023670290480644823
aF-0.0013350588208130725
as(I8
g12
g3
(g5
S'\x00\x00\x00\x00\x00\x00\x00\x00'
tRp874
g2
I0
tp875
(lp876
F-0.020330979332165416
aF0
aF-0.020225832574797525
aF0
aF-0.019377793389934922
aF0
aF-0.012026448225856958
aF0
aF0.026045537225940347
aF-0.1343513646515162
aF0
aF-0.0036469744945201582
aF-0.054264181610635474
aF0
aF0.032788961294278662
aF-0.01534703114182669
aF0
aF-1.2055629330237749e-05
aF0.0011500631937311405
aF0
as.