(dp1
(I1
S'Pt'
p2
cnumpy.core._multiarray_umath
scalar
p3
(cnumpy
dtype
p4
(S'i8'
I0
I1
tRp5
(I3
S'<'
NNNI-1
I-1
I0
tbS'\x06\x00\x00\x00\x00\x00\x00\x00'
tRp6
g2
I1
tp7
(lp8
F0
aF-0.022001253114332472
aF0
aF-0.010821076152532749
aF0
aF0.031348172964944715
aF0
aF0.095617181759424782
aF0
aF0.035300927715859937
aF-0.028168157989988039
aF0
aF-0.0088211470643492843
aF0.21407538082567151
aF0
aF0.054014455615768703
aF-0.086444157576571992
aF0
aF0.00097172173584625919
aF0.13094046943339002
as(I4
g2
g3
(g5
S'\x01\x00\x00\x00\x00\x00\x00\x00'
tRp9
g2
I1
tp10
(lp11
F0
aF-0.00080565365851315018
aF0
aF0.0070570389476888318
aF0
aF0.040001286838610164
aF0
aF0.10047748014672976
aF0
aF0.011786264531722013
aF0.004416296380924712
aF0
aF0.047788204283335169
aF0.18973545008501938
aF0
aF0.014601559378346927
aF-0.091917581920334557
aF0
aF0.040425207932291991
aF0.069592026523348449
as(I9
S'Cu'
p12
g3
(g5
S'\x00\x00\x00\x00\x00\x00\x00\x00'
tRp13
g2
I2
tp14
(lp15
F-0.15576801302464921
aF0
aF-0.14426956159859503
aF0
aF-0.10064133346341839
aF0
aF-0.017224501515602609
aF0
aF-0.073893144674851446
aF-0.42339276629462785
aF0
aF-0.0076967400873634764
aF-0.078032679545209482
aF0
aF-0.054715804068706721
aF-0.30301691951479526
aF0
aF-5.8010213321828116e-06
aF-0.0045617842380909499
aF0
as(I3
g2
g3
(g5
S'\x08\x00\x00\x00\x00\x00\x00\x00'
tRp16
g12
I1
tp17
(lp18
F0
aF0.022633579266279454
aF0
aF0.02678894832507444
aF0
aF0.038983810497645155
aF0
aF0.03119695127343651
aF0
aF-0.046500108690482135
aF0.15768147617038059
aF0
aF0.040929430920184341
aF0.053498253933780257
aF0
aF-0.078929846035163828
aF0.10220357804258126
aF0
aF0.0030739735547161899
aF0.0063095297659778475
as(I2
g2
I2
g2
I1
tp19
(lp20
F-0.027914681259352408
aF0.0070099979705519865
aF-0.023052370310641321
aF0.0031154575744861365
aF-0.0049968971109381642
aF-0.010418048728518833
aF0.013315178155975166
aF-0.034065828054456959
aF-0.017232263400057526
aF-0.012801988154198267
aF-0.053295071599066789
aF-0.0023340902035296862
aF0.045394040119375915
aF-0.046962321786602097
aF-0.012174399359623157
aF-0.081120663884048039
aF0.072034557271553709
aF-4.076323061953723e-05
aF0.0008663231954811289
aF0.020316949465013719
as(I1
g2
g3
(g5
S'\x03\x00\x00\x00\x00\x00\x00\x00'
tRp21
g2
I1
tp22
(lp23
F0
aF-0.013567779863949719
aF0
aF-0.009737985742387878
aF0
aF0.0091595333243544297
aF0
aF0.086552859830083123
aF0
aF0.050954411891902869
aF-0.12264847299686533
aF0
aF-0.010280998156828078
aF0.18458212739917601
aF0
aF0.025652017637547177
aF-0.12018018714458303
aF0
aF-0.011511093323065054
aF0.085341488663266837
as(I2
g2
g3
(g5
S'\x08\x00\x00\x00\x00\x00\x00\x00'
tRp24
g12
I2
tp25
(lp26
F0
aF0.28465366280780213
aF0
aF0.27065269847490681
aF0
aF0.21151620044520786
aF0
aF0.058016700347270356
aF0
aF0.069058181185569639
aF0.89474517697249545
aF0
aF0.038113519118156421
aF0.18540384054907194
aF0
aF0.022364622085917898
aF0.58444659888906625
aF0
aF0.0051377806954585421
aF0.0084891516009728517
as(I9
g12
g3
(g5
S'\x06\x00\x00\x00\x00\x00\x00\x00'
tRp27
g2
I2
tp28
(lp29
F-0.19698498342947512
aF0
aF-0.18360896127175894
aF0
aF-0.13089672653604245
aF0
aF-0.023229871800967757
aF0
aF-0.036757052053831993
aF-0.50821113416373365
aF0
aF-0.0033080343479073202
aF-0.079905313460341035
aF0
aF-0.02855768335210622
aF-0.37805348147609036
aF0
aF-3.8041524210539844e-06
aF-0.0038640488908470651
aF0
as(I0
g2
g3
(g5
S'\x02\x00\x00\x00\x00\x00\x00\x00'
tRp30
g2
I1
tp31
(lp32
F0
aF2.7755575615628914e-17
aF0
aF0
aF0
aF0
aF0
aF-1.1102230246251565e-16
aF0
aF-0.020438515245301426
aF0.046142187357749824
aF0
aF0.00073580551030653918
aF-0.018286835617406218
aF0
aF-0.0088425365261835184
aF0.026606897950807493
aF0
aF0.0036174346301816461
aF-0.017832786351256496
as(I9
g12
g3
(g5
S'\x03\x00\x00\x00\x00\x00\x00\x00'
tRp33
g2
I0
tp34
(lp35
F0.18017476548392708
aF0
aF0.17822114202965497
aF0
aF0.16707177710219726
aF0
aF0.10573259679982155
aF0
aF0.0031833099439066287
aF0.3107059143996006
aF0
aF0.020302730085587431
aF0.29934833592521848
aF0
aF-0.019831312755811348
aF0.067265844743117864
aF0
aF0.0013737776976099842
aF0.071704707752323224
aF0
as(I5
g2
g3
(g5
S'\x08\x00\x00\x00\x00\x00\x00\x00'
tRp36
g12
I1
tp37
(lp38
F0
aF-0.053590993280934085
aF0
aF-0.039720744879735564
aF0
aF0.012830272088219255
aF0
aF0.1073527168896974
aF0
aF-0.040497523771290421
aF0.21765328013786323
aF0
aF0.069024866295166021
aF0.020675043285105874
aF0
aF-0.11993268993511857
aF0.0045980628286584058
aF0
aF-0.026556580615802849
aF-0.026829106566138732
as(I2
g2
g3
(g5
S'\x03\x00\x00\x00\x00\x00\x00\x00'
tRp39
g2
I1
tp40
(lp41
F0
aF0.01338143942239288
aF0
aF0.012884801775683963
aF0
aF0.010582960678276035
aF0
aF0.0032572112751813849
aF0
aF0.005909098321426871
aF0.030845940952725401
aF0
aF-0.0008893687930547965
aF0.0019583345249847379
aF0
aF0.0064804155775638759
aF0.03545701904965063
aF0
aF0.00021249102943002855
aF0.0028489855050592033
as(I9
g12
g3
(g5
S'\x08\x00\x00\x00\x00\x00\x00\x00'
tRp42
g12
I2
tp43
(lp44
F-0.072934606563442736
aF0
aF-0.074089318356121037
aF0
aF-0.077317555428073656
aF0
aF-0.068893466602911624
aF0
aF-0.0070586591266399148
aF-1.0063756143425133
aF0
aF-0.0042287688442342649
aF-0.10913767387154545
aF0
aF-0.0095150674394004105
aF-0.72651483844011022
aF0
aF-0.0049797230897488136
aF0.016676317221475011
aF0
as(I1
g2
g3
(g5
S'\x02\x00\x00\x00\x00\x00\x00\x00'
tRp45
g2
I1
tp46
(lp47
F0
aF0.011968101844255827
aF0
aF0.014761331030285069
aF0
aF0.021168469323985157
aF0
aF0.0095771290884520931
aF0
aF0.0030627615677914911
aF0.075952441971273335
aF0
aF0.0012530877089971561
aF0.026529494060774574
aF0
aF0.0023397792521867591
aF0.028495268970190033
aF0
aF0.00010368434739207099
aF0.0011322048848220224
as(I4
g2
I4
g2
I0
tp48
(lp49
F0.081567305540616378
aF0.20437763325447963
aF0.088859682656744779
aF0.20510641343315952
aF0.11187423334557377
aF0.19721385419170145
aF0.094888047695714767
aF0.098318601931518673
aF0.057338427461164319
aF0.33692360842346392
aF0.59799492069132199
aF0.0037277390226309729
aF0.31206907051078703
aF0.35126027770369939
aF0.048255803435222872
aF0.061922155845056413
aF0.037925966032263052
aF8.0776667194769472e-06
aF0.050165600961713443
aF-0.040605314400096716
as(I3
g2
g3
(g5
S'\x08\x00\x00\x00\x00\x00\x00\x00'
tRp50
g12
I2
tp51
(lp52
F0
aF0.19524461042824703
aF0
aF0.1848849271473863
aF0
aF0.1435621780806727
aF0
aF0.044351264952888027
aF0
aF0.17322015984442446
aF0.26053313978306547
aF0
aF0.037071850417940103
aF0.099427288636064717
aF0
aF0.12326461995661392
aF0.1090583206855055
aF0
aF0.0036294996706402612
aF0.0098611421040849957
as(I2
g2
g3
(g5
S'\x06\x00\x00\x00\x00\x00\x00\x00'
tRp53
g2
I1
tp54
(lp55
F0
aF0.031238861879842691
aF0
aF0.019110960083017593
aF0
aF-0.030663136343558457
aF0
aF-0.13195444601919382
aF0
aF0.0025282451981490988
aF0.045973840792816599
aF0
aF-0.014254853047876367
aF-0.28491689979731594
aF0
aF0.012899455903495146
aF0.21863510476256845
aF0
aF-0.0010435377709250727
aF-0.14424263129995105
as(I4
g2
g3
(g5
S'\x08\x00\x00\x00\x00\x00\x00\x00'
tRp56
g12
I0
tp57
(lp58
F0
aF0.112936086702491
aF0
aF0.11949945142301807
aF0
aF0.13706758662675278
aF0
aF0.099586535545251126
aF0
aF0.0073719046669108411
aF0.56862771232542442
aF0
aF0.055449225573199076
aF0.2143316858638197
aF0
aF-0.002661646349097985
aF0.25792557890054674
aF0
aF0.029535417082316918
aF0.012573564861995748
as(I9
g12
g3
(g5
S'\x02\x00\x00\x00\x00\x00\x00\x00'
tRp59
g2
I2
tp60
(lp61
F-0.15718900070952638
aF0
aF-0.14523484248773999
aF0
aF-0.10030179691534799
aF0
aF-0.016640507612545617
aF0
aF-0.052658587637130223
aF-0.41503202415237933
aF0
aF-0.0075851231946000245
aF-0.07624779728698533
aF0
aF-0.03648363492870655
aF-0.2929526515988678
aF0
aF-4.0333881467533711e-05
aF-0.0040684802471243654
aF0
as(I4
g2
g3
(g5
S'\x00\x00\x00\x00\x00\x00\x00\x00'
tRp62
g2
I1
tp63
(lp64
F0
aF-0.033863542190781679
aF0
aF-0.021255231487874143
aF0
aF0.028752625198138603
aF0
aF0.1199175668815789
aF0
aF0.039058964266032628
aF-0.015076654918474097
aF0
aF0.015779259845576276
aF0.23116308936339355
aF0
aF0.014269350797312379
aF-0.21444182252887684
aF0
aF0.00041548129038277554
aF0.021146792099500392
as(I5
g2
g3
(g5
S'\x04\x00\x00\x00\x00\x00\x00\x00'
tRp65
g2
I0
tp66
(lp67
F0
aF-0.01989697220501957
aF0
aF-0.024516050932681999
aF0
aF-0.041375473817173658
aF0
aF-0.052626628528322825
aF0
aF-0.14245939106829072
aF-0.16461413531601288
aF0
aF-0.012275559888854943
aF-0.17593706428610992
aF0
aF-0.1107110378527898
aF0.033731947235089814
aF0
aF-2.9878199450883657e-06
aF-0.035240643386009948
as(I2
g2
g3
(g5
S'\x07\x00\x00\x00\x00\x00\x00\x00'
tRp68
g2
I1
tp69
(lp70
F0
aF0.029286095170302229
aF0
aF0.017566593497881894
aF0
aF-0.028579524331244041
aF0
aF-0.10692774173506585
aF0
aF0.08073443613430685
aF-0.042685138615382923
aF0
aF-0.14159824078156272
aF-0.19776938066710587
aF0
aF0.035620739850856474
aF0.13616242026393768
aF0
aF-0.13862085179835515
aF-0.034567573752227812
as(I6
g2
g3
(g5
S'\x08\x00\x00\x00\x00\x00\x00\x00'
tRp71
g12
I1
tp72
(lp73
F0
aF-0.020548346726757358
aF0
aF-0.021988810985892768
aF0
aF-0.026003450663933309
aF0
aF-0.016019991937232844
aF0
aF4.0278033162319607e-05
aF-0.1313234052464663
aF0
aF-0.0081453751618236151
aF-0.036231400050208334
aF0
aF0.00098277249046855079
aF-0.076061421714028007
aF0
aF-0.0029345830593246833
aF-0.0019459293171347593
as(I4
g2
g3
(g5
S'\x00\x00\x00\x00\x00\x00\x00\x00'
tRp74
g2
I0
tp75
(lp76
F0
aF0.20554437728144204
aF0
aF0.20952805791946616
aF0
aF0.22043250852142954
aF0
aF0.20484557401760803
aF0
aF0.13486957210091535
aF0.81143168284763856
aF0
aF0.028354463945682647
aF0.41250468527822548
aF0
aF0.070939055567428869
aF0.30656629434999139
aF0
aF-0.00020464271649726771
aF0.05722216830116833
as(I2
g2
g3
(g5
S'\x08\x00\x00\x00\x00\x00\x00\x00'
tRp77
g12
I1
tp78
(lp79
F0
aF0.0012069688074026891
aF0
aF0.005713798247637264
aF0
aF0.019602815028586809
aF0
aF0.018791268098307588
aF0
aF-0.020136856349530514
aF0.12306636310768354
aF0
aF-0.0014178207866940035
aF0.053678306160946924
aF0
aF-0.0077517325577265289
aF0.033597409318198664
aF0
aF0.0036226605067355409
aF0.0014511298300206657
as(I0
g2
I0
g2
I2
tp80
(lp81
F0.40432011258950817
aF1.1798081778782155
aF0.38650764871157123
aF1.1561593564958985
aF0.3139568999646597
aF1.0540517027622067
aF0.11685157827597834
aF0.71794481118918041
aF0.11359162130287886
aF1.1770614849865493
aF1.8694269365451677
aF0.011400438600779607
aF0.45861434572269116
aF1.4050000895259187
aF0.085374757985791652
aF0.58987339521607929
aF0.74773946962357229
aF1.7719018938093157e-05
aF0.04391945528444683
aF0.38076482295161385
as(I5
g2
g3
(g5
S'\x01\x00\x00\x00\x00\x00\x00\x00'
tRp82
g2
I1
tp83
(lp84
F0
aF-0.025307611312790051
aF0
aF-0.015780562997095432
aF0
aF0.026913417846656323
aF0
aF0.14130607527905392
aF0
aF0.12169533379886918
aF-0.12061791068090132
aF0
aF0.017672828950997893
aF0.27589367210605592
aF0
aF0.09617534802515057
aF-0.16629552171805481
aF0
aF-0.0019045028715872438
aF0.18560896043783898
as(I1
g2
g3
(g5
S'\x04\x00\x00\x00\x00\x00\x00\x00'
tRp85
g2
I2
tp86
(lp87
F0
aF-0.066188361033353182
aF0
aF-0.065205360294047748
aF0
aF-0.060641907968953412
aF0
aF-0.040798943884718664
aF0
aF0.038403056467536237
aF-0.25653764766962367
aF0
aF0.003737076319076953
aF-0.11148693125839446
aF0
aF0.040765431191023001
aF-0.15454583491518104
aF0
aF-0.00074581571685126296
aF-0.025463506794895945
as(I6
g2
g3
(g5
S'\x00\x00\x00\x00\x00\x00\x00\x00'
tRp88
g2
I1
tp89
(lp90
F0
aF0.030481207300821739
aF0
aF0.018502360576816035
aF0
aF-0.03083902553972849
aF0
aF-0.13189534175544021
aF0
aF-0.029657282645081166
aF0.035484954068431447
aF0
aF-0.019631499375878481
aF-0.25344756208947877
aF0
aF-0.0054619400545795685
aF0.21689055736985627
aF0
aF-0.00076179081208418563
aF-0.045842907717859614
as(I6
g2
g3
(g5
S'\x07\x00\x00\x00\x00\x00\x00\x00'
tRp91
g2
I0
tp92
(lp93
F0
aF0.10963861523806241
aF0
aF0.12228336151145835
aF0
aF0.1672831811616457
aF0
aF0.19383377116671643
aF0
aF0.048431600561942442
aF0.59389796473025425
aF0
aF0.25665777944448892
aF0.34302675959334278
aF0
aF-0.0075165553028206976
aF0.25585435733644951
aF0
aF0.14999965752340519
aF0.096943074607732868
as(I4
g2
g3
(g5
S'\x02\x00\x00\x00\x00\x00\x00\x00'
tRp94
g2
I2
tp95
(lp96
F0
aF-0.17844580805747176
aF0
aF-0.1784940852572289
aF0
aF-0.17657758860837355
aF0
aF-0.14447043460409506
aF0
aF0.041114364365084206
aF-0.42253756728008368
aF0
aF-0.006856342546192524
aF-0.23217113134532844
aF0
aF0.040842974434595128
aF-0.26988638093492917
aF0
aF-0.00064016779452234383
aF-0.072107867730566252
as(I6
g2
g3
(g5
S'\t\x00\x00\x00\x00\x00\x00\x00'
tRp97
g12
I1
tp98
(lp99
F0
aF-0.0032282891624077319
aF0
aF-0.0030090761715690626
aF0
aF-0.0021452015088360503
aF0
aF-0.0003807028438085698
aF0
aF-0.0094164782046424721
aF-0.0094655513849202268
aF0
aF-0.0015907970805614006
aF-0.0012958206167535597
aF0
aF-0.0073343663302606835
aF-0.0088548216872345615
aF0
aF-0.00044944583468756264
aF-3.0439927115269594e-05
as(I2
g2
g3
(g5
S'\x01\x00\x00\x00\x00\x00\x00\x00'
tRp100
g2
I1
tp101
(lp102
F0
aF-0.011968101844255896
aF0
aF-0.014761331030285138
aF0
aF-0.021168469323985209
aF0
aF-0.0095771290884520965
aF0
aF-0.0059842254663936062
aF-0.081427185709944019
aF0
aF-0.011583643040466595
aF-0.028559136045854434
aF0
aF0.0052392124628606596
aF-0.044666156251094255
aF0
aF-0.00069125183983893054
aF-0.0016636052948815799
as(I2
g2
g3
(g5
S'\t\x00\x00\x00\x00\x00\x00\x00'
tRp103
g12
I1
tp104
(lp105
F0
aF-0.029121650066755083
aF0
aF-0.028766168558278588
aF0
aF-0.024599712139524971
aF0
aF-0.0054760899423324221
aF0
aF-0.0070527145921992695
aF-0.12351273501078464
aF0
aF-0.010525315478750635
aF-0.019204090300728109
aF0
aF0.0057001165794401424
aF-0.091777335453760683
aF0
aF-0.00035085003773761549
aF-0.000328875827488372
as(I0
g2
g3
(g5
S'\x01\x00\x00\x00\x00\x00\x00\x00'
tRp106
g2
I0
tp107
(lp108
F0
aF0.020750105514165174
aF0
aF0.024070716646452411
aF0
aF0.034442241976012755
aF0
aF0.028785739291342424
aF0
aF0.083562904056370554
aF0.0055746556845910275
aF0
aF0.057038827701572634
aF0.079810797382839319
aF0
aF0.019924808945301541
aF-0.078477591095899885
aF0
aF0.0052350946556577399
aF0.015486114609187196
as(I5
g2
g3
(g5
S'\x00\x00\x00\x00\x00\x00\x00\x00'
tRp109
g2
I1
tp110
(lp111
F0
aF-0.023363219576808689
aF0
aF-0.012332489311424914
aF0
aF0.029982724200342026
aF0
aF0.091388273715202098
aF0
aF0.10003101533315427
aF-0.0013527755171005478
aF0
aF-0.0132774282791089
aF0.21040381595187757
aF0
aF0.1131447063222738
aF-0.10696706392433165
aF0
aF-0.00043844964287488987
aF0.047925915327285795
as(I1
g2
g3
(g5
S'\x07\x00\x00\x00\x00\x00\x00\x00'
tRp112
g2
I0
tp113
(lp114
F0
aF-0.14033333579223012
aF0
aF-0.15085489553845743
aF0
aF-0.18846571626843345
aF0
aF-0.20785982309500609
aF0
aF-0.41733188471495802
aF-0.42373616777518047
aF0
aF-0.22132677374732115
aF-0.41135547791812477
aF0
aF-0.12762515796435769
aF-0.10894508163332556
aF0
aF-0.014354918371830479
aF-0.108580617084548
as(I6
g2
g3
(g5
S'\x04\x00\x00\x00\x00\x00\x00\x00'
tRp115
g2
I2
tp116
(lp117
F0
aF0.056491247792286932
aF0
aF0.057967762810646181
aF0
aF0.062881033109417742
aF0
aF0.060524696564212027
aF0
aF0.10306918168244923
aF0.13487452607848824
aF0
aF0.042924073491397992
aF0.10887519510530144
aF0
aF0.033006558243753106
aF0.068777359523509315
aF0
aF-0.0024966973733705953
aF0.062419591124123916
as(I8
g12
g3
(g5
S'\x04\x00\x00\x00\x00\x00\x00\x00'
tRp118
g2
I0
tp119
(lp120
F-0.112936086702491
aF0
aF-0.11949945142301804
aF0
aF-0.13706758662675278
aF0
aF-0.099586535545251126
aF0
aF0.0047156340794582887
aF-0.27598372429360657
aF0
aF-3.8445641298777552e-05
aF-0.34900926257536913
aF0
aF0.0043418161521255015
aF0.0070730719741088389
aF0
aF-9.6856816913214651e-06
aF-0.069306554222484676
aF0
as(I0
g2
g3
(g5
S'\x04\x00\x00\x00\x00\x00\x00\x00'
tRp121
g2
I2
tp122
(lp123
F0
aF0.17633744275477889
aF0
aF0.17660344586635876
aF0
aF0.17670619771885265
aF0
aF0.15787791692636891
aF0
aF0.14945703349804745
aF0.75421725783086291
aF0
aF0.032626266805106691
aF0.29553615822236207
aF0
aF0.066520465266149395
aF0.51977886885874025
aF0
aF-0.0028171008343706029
aF0.13519773220535583
as(I5
g2
I5
g2
I1
tp124
(lp125
F-0.052369042002831601
aF0.027056177165008955
aF-0.03903538034865503
aF0.02315337494574958
aF0.011278301209126429
aF0.012855424360308416
aF0.10146146879971099
aF0.025782910628611089
aF0.044177551091480097
aF-0.04425903631977296
aF0.02596813737198455
aF-0.0058660483172902345
aF0.26732537636234177
aF0.042270907432228721
aF-0.026046604186707123
aF-0.23761199235807506
aF-0.014971748425597049
aF-0.0092802816038951921
aF0.015960164687931711
aF0.021339219006420929
as(I1
g2
g3
(g5
S'\x00\x00\x00\x00\x00\x00\x00\x00'
tRp126
g2
I2
tp127
(lp128
F0
aF-0.17543228218814369
aF0
aF-0.16888689157925621
aF0
aF-0.1388030992464519
aF0
aF-0.043953505008268452
aF0
aF0.0057320478921205099
aF-0.35623648103935207
aF0
aF-0.012409266080044551
aF-0.13735086490318402
aF0
aF0.022873859535647269
aF-0.17376279284921167
aF0
aF-0.00041417622954163249
aF-0.0158948801293343
as(I6
g2
g3
(g5
S'\x03\x00\x00\x00\x00\x00\x00\x00'
tRp129
g2
I0
tp130
(lp131
F0
aF-0.21529529540520415
aF0
aF-0.22312857835451372
aF0
aF-0.24500809853580582
aF0
aF-0.22508054308714212
aF0
aF-0.048751193600862865
aF-0.57265285973340851
aF0
aF-0.083472006288060757
aF-0.46652718335086563
aF0
aF0.00061628650445037531
aF-0.23541326472154858
aF0
aF-0.01842181502135333
aF-0.19663945357085344
as(I0
g2
g3
(g5
S'\x02\x00\x00\x00\x00\x00\x00\x00'
tRp132
g2
I2
tp133
(lp134
F0
aF0
aF0
aF0
aF0
aF0
aF0
aF0
aF0
aF0.12938265759590292
aF0.82923283026275696
aF0
aF0.011668235786547892
aF-0.013197565283858168
aF0
aF0.092382180116228882
aF0.72261597002775413
aF0
aF0.0010732759276925368
aF-0.037728941645300315
as(I2
g2
I2
g2
I2
tp135
(lp136
F0.44184266351732854
aF1.1869092674528303
aF0.41588754096264685
aF1.1629913125053661
aF0.31181799736055582
aF1.0573365656686993
aF0.07465720795981598
aF0.6921596387919382
aF0.087311486010054104
aF1.1995214803682508
aF1.943517313302642
aF0.015121768834083102
aF0.33230589754581646
aF1.3367796144133399
aF0.057264238774217033
aF0.70547685227522394
aF0.82730507414580046
aF0.00020330413362778306
aF0.021001324007251718
aF0.36839965104730366
as(I1
g2
g3
(g5
S'\x06\x00\x00\x00\x00\x00\x00\x00'
tRp137
g2
I2
tp138
(lp139
F0
aF-0.10680685842941623
aF0
aF-0.10580456983174555
aF0
aF-0.10218509717180502
aF0
aF-0.088433563014560582
aF0
aF0.042823801113322908
aF-0.23840714972347637
aF0
aF-0.0049443043018500155
aF-0.21860410756655921
aF0
aF0.056011512391261578
aF-0.11611429739990715
aF0
aF-0.00073917645255731348
aF-0.10098196291588458
as(I0
g2
g3
(g5
S'\x05\x00\x00\x00\x00\x00\x00\x00'
tRp140
g2
I0
tp141
(lp142
F0
aF0.20756429504742252
aF0
aF0.20812062550841726
aF0
aF0.20494431780057415
aF0
aF0.14937808079573303
aF0
aF0.083455925026622343
aF0.48702945180327495
aF0
aF0.13610277569377807
aF0.38672490212201571
aF0
aF0.0073057354484947906
aF0.11570404018455568
aF0
aF0.033634321577504747
aF0.090413637653326426
as(I2
g2
I2
g2
I0
tp143
(lp144
F0.1627572826725544
aF-0.07636610303763558
aF0.15235654115028519
aF-0.082610501302218517
aF0.11157947125039933
aF-0.10741361870768772
aF0.024438227505957765
aF-0.16033992063576391
aF0.037656364654080718
aF0.5221291051374749
aF-0.27037732193058556
aF0.0062758668537586625
aF0.0945622890518764
aF-0.20653932481880255
aF0.024924650361158207
aF0.35218236616018456
aF-0.16065159401172607
aF6.6404158280086069e-05
aF0.0016986400605274003
aF-0.091744755982123116
as(I0
g2
g3
(g5
S'\x02\x00\x00\x00\x00\x00\x00\x00'
tRp145
g2
I0
tp146
(lp147
F0
aF0
aF0
aF0
aF0
aF0
aF0
aF0
aF0
aF0.040148262139137497
aF-0.17128973733479416
aF0
aF0.0051253461566163946
aF0.03165591383463897
aF0
aF0.026668165018043269
aF-0.20413122193038102
aF0
aF0.00031567391946323568
aF0.015121168604643496
as(I1
g2
g3
(g5
S'\x03\x00\x00\x00\x00\x00\x00\x00'
tRp148
g2
I0
tp149
(lp150
F0
aF0.043326090182379401
aF0
aF0.044479406972759393
aF0
aF0.048384035431540073
aF0
aF0.047707659734439176
aF0
aF-0.22661519238795091
aF0.12349232019600229
aF0
aF0.016925470278196821
aF0.093113654449575797
aF0
aF-0.21880905829787528
aF0.057988754498764047
aF0
aF0.0038840499528180385
aF0.048005253266056022
as(I6
g2
g3
(g5
S'\x00\x00\x00\x00\x00\x00\x00\x00'
tRp151
g2
I2
tp152
(lp153
F0
aF-0.14123648867765037
aF0
aF-0.14135065613110406
aF0
aF-0.14102186920655949
aF0
aF-0.12508836361939188
aF0
aF0.062590206141685048
aF-0.15902721420519866
aF0
aF0.0016484885450338666
aF-0.20299566971868957
aF0
aF0.025418654393042587
aF-0.052454379180657075
aF0
aF-0.0066055539433307452
aF-0.075258778214987693
as(I3
g2
g3
(g5
S'\x07\x00\x00\x00\x00\x00\x00\x00'
tRp154
g2
I2
tp155
(lp156
F0
aF0.053682142918496809
aF0
aF0.051564716691493123
aF0
aF0.042800776238753786
aF0
aF0.018278651667246393
aF0
aF0.22403966073866061
aF-0.032393828871380585
aF0
aF0.028454947492870714
aF0.0027869869544108116
aF0
aF0.14503488809830939
aF-0.02271933232550135
aF0
aF-0.00060461276725992999
aF0.00856108771302788
as(I1
g2
g3
(g5
S'\t\x00\x00\x00\x00\x00\x00\x00'
tRp157
g12
I2
tp158
(lp159
F0
aF0.24452612810510527
aF0
aF0.24485532703692198
aF0
aF0.2445967433687358
aF0
aF0.21135856388893284
aF0
aF0.15931820259654972
aF0.39192420850979487
aF0
aF0.11838032019307629
aF0.21102481611759727
aF0
aF0.044789508546373549
aF0.15492853434021264
aF0
aF0.016808302617725392
aF0.015633017646193664
as(I0
g2
g3
(g5
S'\x06\x00\x00\x00\x00\x00\x00\x00'
tRp160
g2
I2
tp161
(lp162
F0
aF0.1412364886776504
aF0
aF0.14135065613110406
aF0
aF0.14102186920655949
aF0
aF0.12508836361939188
aF0
aF0.11805087784365982
aF0.71483749465963786
aF0
aF0.011413817438046777
aF0.24677630697182906
aF0
aF0.077792969184822383
aF0.50558289320792671
aF0
aF-0.00055184086130358895
aF0.11536209626730574
as(I1
g2
g3
(g5
S'\x02\x00\x00\x00\x00\x00\x00\x00'
tRp163
g2
I2
tp164
(lp165
F0
aF-0.20587543502620742
aF0
aF-0.18992089253743905
aF0
aF-0.12957135404239178
aF0
aF-0.019816079462724321
aF0
aF-0.0056280286971631694
aF-0.38663923224281715
aF0
aF-0.00525772517064051
aF-0.07754569062095458
aF0
aF0.0039117807816573423
aF-0.2470664656317994
aF0
aF-0.00011568744243218248
aF-0.0025301568191128014
as(I3
g2
g3
(g5
S'\x06\x00\x00\x00\x00\x00\x00\x00'
tRp166
g2
I0
tp167
(lp168
F0
aF0.21529529540520409
aF0
aF0.22312857835451366
aF0
aF0.24500809853580577
aF0
aF0.22508054308714209
aF0
aF0.0064407630201828367
aF0.64143500566713518
aF0
aF0.018197329534678001
aF0.59700328508055178
aF0
aF-0.012817539063854045
aF0.26492466135443626
aF0
aF0.0027943998051136315
aF0.24415603055160581
as(I2
g2
g3
(g5
S'\x06\x00\x00\x00\x00\x00\x00\x00'
tRp169
g2
I0
tp170
(lp171
F0
aF-0.2109941089830478
aF0
aF-0.21723568443868546
aF0
aF-0.23524983085388115
aF0
aF-0.22585620415629523
aF0
aF0.0077635924621235371
aF-0.55618448666219455
aF0
aF-0.0085427239079271348
aF-0.56687927826372808
aF0
aF0.0075852614946682042
aF-0.18478573283305599
aF0
aF-0.0029204169565784305
aF-0.20875021395728222
as(I1
g2
g3
(g5
S'\x08\x00\x00\x00\x00\x00\x00\x00'
tRp172
g12
I0
tp173
(lp174
F0
aF-0.14774824499678063
aF0
aF-0.15293309984321146
aF0
aF-0.16545345608397516
aF0
aF-0.11873586579027466
aF0
aF-0.2263388225602104
aF-0.70533951573468123
aF0
aF-0.065603664407216739
aF-0.1972278979396607
aF0
aF-0.11889980516077109
aF-0.37237355298712005
aF0
aF-0.0035563935923273787
aF-0.011830369816894252
as(I2
g2
g3
(g5
S'\t\x00\x00\x00\x00\x00\x00\x00'
tRp175
g12
I0
tp176
(lp177
F0
aF0.089167719695475184
aF0
aF0.082386551644885175
aF0
aF0.056897635788317587
aF0
aF0.0094395670924063806
aF0
aF0.02927537559004692
aF0.248798809398736
aF0
aF0.013539779513234526
aF0.041029465434879363
aF0
aF0.011437918341267291
aF0.16675283295950286
aF0
aF0.00083901871352866006
aF0.00045919678051114707
as(I4
g2
I4
g2
I1
tp178
(lp179
F0.017358105735036551
aF-0.0063978825931603062
aF0.02158202722724064
aF-0.0049189288056008529
aF0.032091595973727065
aF0.0014484030829312409
aF0.022227799326554661
aF0.016249519905010213
aF0.017482177328054752
aF0.12528992771977387
aF0.0015517110602436205
aF-0.0011424939226977739
aF0.073160357766099929
aF0.022283240970654698
aF0.018789616096597506
aF0.050311413030096577
aF-0.039044863873013501
aF-1.9643062581440093e-05
aF0.0037844400725194744
aF0.00038892406142516456
as(I3
g2
I3
g2
I2
tp180
(lp181
F0.44481057761357273
aF-0.50741286605059388
aF0.43174486651815192
aF-0.48570316945782566
aF0.3749787670235929
aF-0.39797673549719748
aF0.1908049468127791
aF-0.18909140983223496
aF0.16788921651230346
aF0.58619784966166255
aF-0.79586462151923387
aF0.046202221687916947
aF0.36028404422947491
aF-0.35297297986990483
aF0.10128729693635839
aF0.21643189417154449
aF-0.46336221635613567
aF0.0021175033654025031
aF0.092522119412304357
aF-0.16152342072310502
as(I6
g2
I6
g2
I1
tp182
(lp183
F-0.023776635889165162
aF0.016599093814905801
aF-0.024997887157461905
aF0.012110295612711893
aF-0.028148652172769403
aF-0.00032510492967491528
aF-0.016400694781041412
aF-0.008797902459928314
aF-0.010198330481905823
aF-0.12031693151621466
aF-0.010024764031498375
aF0.00064214427497322429
aF-0.056548156703862838
aF-0.015132866145146371
aF-0.010537196686903985
aF-0.051991474865313025
aF0.013453731603313585
aF3.469390383935058e-05
aF-0.005565243740685971
aF0.0036209965975378981
as(I3
g2
g3
(g5
S'\x05\x00\x00\x00\x00\x00\x00\x00'
tRp184
g2
I2
tp185
(lp186
F0
aF-0.0076356052475194261
aF0
aF-0.0076396053008511893
aF0
aF-0.0076836865617835931
aF0
aF-0.0076046961748682633
aF0
aF0.26887649224856502
aF-0.11299187752081273
aF0
aF0.020229948893788808
aF-0.057992323443135547
aF0
aF0.13603106517859073
aF-0.071581977850472253
aF0
aF-0.084140275184923743
aF0.010743789774447664
as(I8
g12
g3
(g5
S'\x03\x00\x00\x00\x00\x00\x00\x00'
tRp187
g2
I0
tp188
(lp189
F0.15061665585157122
aF0
aF0.15279756376047623
aF0
aF0.1497312412799966
aF0
aF0.067964955744556493
aF0
aF0.19510376580079028
aF0.48706259744498437
aF0
aF0.035726938462070278
aF0.1571632768505021
aF0
aF0.13490400901411911
aF0.29203652883545816
aF0
aF0.00092843441921597249
aF0.026512938550919816
aF0
as(I6
g2
g3
(g5
S'\x08\x00\x00\x00\x00\x00\x00\x00'
tRp190
g12
I0
tp191
(lp192
F0
aF0.17073096023385448
aF0
aF0.16530220824293818
aF0
aF0.13668841060560458
aF0
aF0.038491120240512502
aF0
aF0.035292037407274747
aF0.56744983812321714
aF0
aF0.032275181753135256
aF0.11842251833251528
aF0
aF0.0046773672998999859
aF0.37123412402286665
aF0
aF0.003507204365554465
aF0.0059207041646270496
as(I5
g2
g3
(g5
S'\x07\x00\x00\x00\x00\x00\x00\x00'
tRp193
g2
I2
tp194
(lp195
F0
aF0.072276930964379815
aF0
aF0.073697378316393572
aF0
aF0.077763728952429403
aF0
aF0.066758630413764106
aF0
aF0.5827773535387305
aF-0.2727215311986721
aF0
aF0.016237007858874723
aF0.084097356086938496
aF0
aF0.47915350134246287
aF-0.23606499855776508
aF0
aF-0.008410738434976835
aF0.056918161259976181
as(I2
g2
g3
(g5
S'\x08\x00\x00\x00\x00\x00\x00\x00'
tRp196
g12
I0
tp197
(lp198
F0
aF0.07358956297707922
aF0
aF0.06996998950540001
aF0
aF0.054681835462081746
aF0
aF0.014998660413551383
aF0
aF0.030214023876539028
aF0.27260925484744308
aF0
aF0.014835284035858289
aF0.052740210006269675
aF0
aF0.010728484867649031
aF0.18070976171801686
aF0
aF0.0020633030035566409
aF0.0016079085386051723
as(I0
g2
I0
g2
I1
tp199
(lp200
F0.022563108501506102
aF0.027166303123965424
aF0.017447937934553678
aF0.025883647313946212
aF0.00038356740322745882
aF0.023202261928712359
aF-0.013721513947308351
aF0.034544779584829113
aF0.013249706024904105
aF-0.0046714234017446428
aF0.088714271051910695
aF0.002545245971045401
aF-0.051262259495777548
aF0.05408016437668408
aF0.0075115212534536003
aF0.073797162929294585
aF-0.040608368526385788
aF1.2002860970983795e-05
aF0.0027705179838376122
aF-0.023749996287509467
as(I5
g2
g3
(g5
S'\x01\x00\x00\x00\x00\x00\x00\x00'
tRp201
g2
I0
tp202
(lp203
F0
aF0.2393727520825609
aF0
aF0.2448446596665636
aF0
aF0.25910706041040193
aF0
aF0.22785217340290798
aF0
aF0.10960954681431702
aF0.61487651610171801
aF0
aF0.12606706721303867
aF0.45889235592118643
aF0
aF-0.0099183732006994547
aF0.32344214900038787
aF0
aF0.017633806528658931
aF0.19634954270482199
as(I7
g2
g3
(g5
S'\x08\x00\x00\x00\x00\x00\x00\x00'
tRp204
g12
I0
tp205
(lp206
F0
aF0.010102337224723094
aF0
aF0.010283993665833812
aF0
aF0.010850160729347243
aF0
aF0.010349433459031996
aF0
aF0.22936533956196187
aF0.15137360094261065
aF0
aF-0.042834532862797467
aF-0.016266551236445829
aF0
aF0.24930613412286159
aF0.095410488233561533
aF0
aF0.0033787551564209372
aF-0.0099787641891761099
as(I4
g2
g3
(g5
S'\x01\x00\x00\x00\x00\x00\x00\x00'
tRp207
g2
I2
tp208
(lp209
F0
aF0.06618836103335321
aF0
aF0.065205360294047776
aF0
aF0.060641907968953454
aF0
aF0.040798943884718712
aF0
aF0.056685411790121952
aF0.08480197254554675
aF0
aF0.062099543903293891
aF0.084996212381168376
aF0
aF0.024775110502091174
aF0.0075766599686023775
aF0
aF0.016199901045324636
aF0.02375198999544505
as(I3
g2
g3
(g5
S'\x02\x00\x00\x00\x00\x00\x00\x00'
tRp210
g2
I1
tp211
(lp212
F0
aF-0.013381439422392883
aF0
aF-0.012884801775683966
aF0
aF-0.010582960678276038
aF0
aF-0.003257211275181388
aF0
aF0.0012545749282783791
aF-0.045205727335272047
aF0
aF0.00085898611108468274
aF-0.013155455519035365
aF0
aF-0.0012942073793712969
aF-0.018348270347244025
aF0
aF-4.8731071386118328e-05
aF-0.00084218903996799769
as(I0
g2
g3
(g5
S'\x08\x00\x00\x00\x00\x00\x00\x00'
tRp213
g12
I2
tp214
(lp215
F0
aF0.24855209956485896
aF0
aF0.24223808711297617
aF0
aF0.21331556650124131
aF0
aF0.099627076760375716
aF0
aF0.055322488338253401
aF0.96060182445512787
aF0
aF0.070699356936906238
aF0.21837740106727049
aF0
aF0.0065824113318547987
aF0.5644181770356006
aF0
aF0.013771148594861999
aF0.005407302091719436
as(I6
g2
g3
(g5
S'\t\x00\x00\x00\x00\x00\x00\x00'
tRp216
g12
I2
tp217
(lp218
F0
aF0.19698498342947512
aF0
aF0.18360896127175894
aF0
aF0.13089672653604245
aF0
aF0.023229871800967757
aF0
aF0.045972637190235324
aF0.36961650693915465
aF0
aF0.018392667799575081
aF0.066710965312539075
aF0
aF0.019647211184877042
aF0.25661208682463049
aF0
aF0.0016556168569382952
aF0.0036104943036308168
as(I2
g2
g3
(g5
S'\x01\x00\x00\x00\x00\x00\x00\x00'
tRp219
g2
I0
tp220
(lp221
F0
aF0.042640476140001618
aF0
aF0.043891948956130744
aF0
aF0.043587658731976953
aF0
aF0.014651324503800803
aF0
aF0.062285799063630354
aF0.07594789679855736
aF0
aF0.033597772208452351
aF0.052563502317536051
aF0
aF0.019156402943043545
aF-0.0071833830243198246
aF0
aF0.0019907261693575635
aF0.0034948729583862644
as(I2
g2
g3
(g5
S'\t\x00\x00\x00\x00\x00\x00\x00'
tRp222
g12
I2
tp223
(lp224
F0
aF0.15718900070952638
aF0
aF0.14523484248773999
aF0
aF0.10030179691534799
aF0
aF0.016640507612545617
aF0
aF0.070096420895245232
aF0.38793372502734869
aF0
aF0.027598388489303162
aF0.058307083602779725
aF0
aF0.030131400162299815
aF0.28183643676762482
aF0
aF0.0012904567480969268
aF0.0013899187968910512
as(I0
g2
g3
(g5
S'\x01\x00\x00\x00\x00\x00\x00\x00'
tRp225
g2
I1
tp226
(lp227
F0
aF0.039159628224815037
aF0
aF0.037698579781317375
aF0
aF0.030983338386454101
aF0
aF0.0098112097376434997
aF0
aF0.0065756882575313804
aF0.11054064906924629
aF0
aF0.010438250670909723
aF0.033507652770098907
aF0
aF-0.004768181966263052
aF0.071183965283869499
aF0
aF0.00032386329542209523
aF0.002419069914330343
as(I8
g12
g3
(g5
S'\x07\x00\x00\x00\x00\x00\x00\x00'
tRp228
g2
I0
tp229
(lp230
F-0.010102337224723094
aF0
aF-0.010283993665833812
aF0
aF-0.010850160729347243
aF0
aF-0.010349433459031996
aF0
aF0.216301166492817
aF0.10053782558495586
aF0
aF-0.053668193852355432
aF-0.085743636701443762
aF0
aF0.1847983483048698
aF0.19485615123318706
aF0
aF-0.0098350894768547172
aF0.0045473389201232846
aF0
as(I6
g2
g3
(g5
S'\x00\x00\x00\x00\x00\x00\x00\x00'
tRp231
g2
I0
tp232
(lp233
F0
aF0.21254112410544396
aF0
aF0.21859379318973321
aF0
aF0.23573058116124082
aF0
aF0.22295587145750081
aF0
aF0.090786615040676824
aF0.88489687604174028
aF0
aF0.050767651633683318
aF0.39902577283676527
aF0
aF0.022428429495528555
aF0.44607679376499948
aF0
aF0.0015475438827248287
aF0.095601783691265679
as(I4
g2
g3
(g5
S'\x07\x00\x00\x00\x00\x00\x00\x00'
tRp234
g2
I0
tp235
(lp236
F0
aF0.19835320496151432
aF0
aF0.20659623268308763
aF0
aF0.21960172909486372
aF0
aF0.11756842314163332
aF0
aF0.21992339566531705
aF0.78777654825603061
aF0
aF0.13207563756058815
aF0.26917908683286818
aF0
aF0.0976784438733036
aF0.38513591187493629
aF0
aF0.040887332492302961
aF0.023111440987402344
as(I9
g12
g3
(g5
S'\x01\x00\x00\x00\x00\x00\x00\x00'
tRp237
g2
I2
tp238
(lp239
F-0.24452612810510527
aF0
aF-0.24485532703692198
aF0
aF-0.2445967433687358
aF0
aF-0.21135856388893284
aF0
aF-0.15097982213359398
aF-0.92857653645906468
aF0
aF-0.025165339013845045
aF-0.49816067358796973
aF0
aF-0.097835529383884762
aF-0.4705013933186416
aF0
aF-0.00039729714287844027
aF-0.13965934291681051
aF0
as(I0
g2
g3
(g5
S'\t\x00\x00\x00\x00\x00\x00\x00'
tRp240
g12
I0
tp241
(lp242
F0
aF0.088361644009492576
aF0
aF0.081838982187975584
aF0
aF0.057090242774862771
aF0
aF0.0097708460267885659
aF0
aF0.043829678935812105
aF0.25498590483227401
aF0
aF0.012012571370199454
aF0.039762585630865412
aF0
aF0.021503239241308182
aF0.17591100518408825
aF0
aF0.00019322497640943866
aF0.00058968851678190416
as(I5
g2
I5
g2
I0
tp243
(lp244
F-0.060296186579022762
aF-0.17977767641543954
aF-0.062551429441957351
aF-0.17524016735650877
aF-0.07403532982069172
aF-0.15192235520671268
aF-0.11997068999501359
aF-0.015387611805353136
aF-0.044197435522861581
aF-0.061441524154217352
aF-0.60143097054322336
aF-0.00038818513328157597
aF-0.31302818310811342
aF-0.21556053807182371
aF-0.047536372265705867
aF0.077548977595848084
aF-0.12064889589940231
aF-0.000569888833102201
aF-0.045483748913219532
aF0.044219719248245658
as(I6
g2
g3
(g5
S'\x03\x00\x00\x00\x00\x00\x00\x00'
tRp245
g2
I1
tp246
(lp247
F0
aF-0.021495641195313414
aF0
aF-0.010830650667826902
aF0
aF0.033858728140995373
aF0
aF0.12648185699508999
aF0
aF-0.012527325138038194
aF-0.043822439744512977
aF0
aF0.024564376495513938
aF0.23416997592338912
aF0
aF-0.0035437081911994977
aF-0.14343652157510051
aF0
aF0.020312836201932586
aF0.13326304276686424
as(I5
g2
g3
(g5
S'\x08\x00\x00\x00\x00\x00\x00\x00'
tRp248
g12
I2
tp249
(lp250
F0
aF0.22421519233771237
aF0
aF0.22801832755634302
aF0
aF0.24451098498624843
aF0
aF0.28664256215780559
aF0
aF0.27222734805071147
aF0.34203324263035423
aF0
aF0.16796066295899076
aF0.24559493444656164
aF0
aF0.11126421094025007
aF0.15671089815053912
aF0
aF0.028065427567608263
aF0.033634467401230106
as(I9
g12
g3
(g5
S'\x00\x00\x00\x00\x00\x00\x00\x00'
tRp251
g2
I0
tp252
(lp253
F-0.088361644009492576
aF0
aF-0.081838982187975584
aF0
aF-0.057090242774862771
aF0
aF-0.0097708460267885659
aF0
aF-0.054502242361127828
aF-0.22300963062766421
aF0
aF-0.0029430191860830633
aF-0.052379870728172316
aF0
aF-0.046450260665071866
aF-0.14722411255196616
aF0
aF-3.3063194651033842e-07
aF-0.0026120506375784452
aF0
as(I0
g2
g3
(g5
S'\x05\x00\x00\x00\x00\x00\x00\x00'
tRp254
g2
I1
tp255
(lp256
F0
aF0.023363219576808689
aF0
aF0.012332489311424916
aF0
aF-0.029982724200342037
aF0
aF-0.091388273715202098
aF0
aF0.008602793295078303
aF0.0093568154856136631
aF0
aF-0.068535025592891125
aF-0.18762788801547881
aF0
aF0.015162517519141791
aF0.10407966151018221
aF0
aF-0.026862082318055779
aF-0.077589386951331524
as(I9
g12
I9
g12
I2
tp257
(lp258
F-0.072934606563442736
aF-1.7230215706963266
aF-0.074089318356121037
aF-1.6637183943519549
aF-0.077317555428073656
aF-1.4301340009908219
aF-0.068893466602911624
aF-0.83634621090109729
aF-0.0070586591266399296
aF-0.66078214222600318
aF-2.756442031864478
aF-0.0042287688442342649
aF-0.51513869195272577
aF-1.0895063025686123
aF-0.0095150674394004243
aF-0.18990212921214342
aF-1.3953376418026564
aF-0.0049797230897488109
aF-0.11920468257544634
aF-0.082629495617291798
as(I4
g2
g3
(g5
S'\x03\x00\x00\x00\x00\x00\x00\x00'
tRp259
g2
I0
tp260
(lp261
F0
aF-0.207457842983098
aF0
aF-0.21740636810687697
aF0
aF-0.24803623039350203
aF0
aF-0.2504233389135615
aF0
aF-0.022426780840926433
aF-0.55299735953343654
aF0
aF-0.1118434148000737
aF-0.49693041930378357
aF0
aF0.015179346558596485
aF-0.21240127137211615
aF0
aF-0.06085827630531776
aF-0.16668577085131892
as(I4
g2
g3
(g5
S'\x07\x00\x00\x00\x00\x00\x00\x00'
tRp262
g2
I2
tp263
(lp264
F0
aF0.1164713300014002
aF0
aF0.11242122144724466
aF0
aF0.095024946683687411
aF0
aF0.039042703895334457
aF0
aF0.16140199660266694
aF0.030740815726165185
aF0
aF0.063358078968368425
aF0.10316992047303328
aF0
aF0.086704524040867009
aF-0.10594056944347949
aF0
aF0.016335303702820412
aF0.009553699470501725
as(I3
g2
g3
(g5
S'\x07\x00\x00\x00\x00\x00\x00\x00'
tRp265
g2
I1
tp266
(lp267
F0
aF-0.013932700110854714
aF0
aF-0.022257077612695079
aF0
aF-0.049002034084004151
aF0
aF-0.05739589068359665
aF0
aF-0.038141141506111607
aF-0.11129461324104446
aF0
aF-0.064088073262045298
aF-0.12911562930452755
aF0
aF-0.0010584109322511236
aF0.0031647270837748894
aF0
aF-0.014622949565312356
aF-0.024299534815915673
as(I1
g2
g3
(g5
S'\t\x00\x00\x00\x00\x00\x00\x00'
tRp268
g12
I1
tp269
(lp270
F0
aF-0.03308638488212276
aF0
aF-0.020854201423421967
aF0
aF0.023330538168383444
aF0
aF0.080447750971792006
aF0
aF-0.093857144241882642
aF0.1767192842602226
aF0
aF0.065112064651684329
aF0.051101205306308982
aF0
aF-0.073898019423688732
aF0.046713266792856603
aF0
aF0.020314070359554747
aF-0.0040837166576771135
as(I9
g12
g3
(g5
S'\x03\x00\x00\x00\x00\x00\x00\x00'
tRp271
g2
I2
tp272
(lp273
F-0.2495659671853257
aF0
aF-0.24685993937076561
aF0
aF-0.23141658894292028
aF0
aF-0.14645368185989108
aF0
aF-0.11072638232773882
aF-0.9269343122736432
aF0
aF-0.021890724787933274
aF-0.34252558743037759
aF0
aF-0.080133771694420208
aF-0.56030788065395931
aF0
aF-0.0011890308925898698
aF-0.086676642092349654
aF0
as(I7
g2
g3
(g5
S'\x01\x00\x00\x00\x00\x00\x00\x00'
tRp274
g2
I2
tp275
(lp276
F0
aF-0.048935100273584935
aF0
aF-0.047978660870205102
aF0
aF-0.044038505143175144
aF0
aF-0.030494483926602138
aF0
aF0.21578810787661251
aF-0.33141686520716251
aF0
aF-0.064890284114436758
aF-0.047613587745992975
aF0
aF0.28971713896333517
aF-0.29838933132370293
aF0
aF-0.0012576242792859075
aF-0.020716451962037558
as(I9
g12
g3
(g5
S'\x08\x00\x00\x00\x00\x00\x00\x00'
tRp277
g12
I0
tp278
(lp279
F-0.21075448375875902
aF0
aF-0.214091180825115
aF0
aF-0.22341961172517666
aF0
aF-0.19907705919573246
aF0
aF-0.020396957361660809
aF-0.39962055749009101
aF0
aF-0.012219603788860799
aF-0.3333561155896857
aF0
aF-0.027495083892394037
aF-0.16460326443372053
aF0
aF-0.014389588406549763
aF-0.10266832624174307
aF0
as(I6
g2
g3
(g5
S'\x05\x00\x00\x00\x00\x00\x00\x00'
tRp280
g2
I1
tp281
(lp282
F0
aF0.0013631146185678761
aF0
aF0.0024099558460162346
aF0
aF0.0053927290507376491
aF0
aF0.0038335304891507736
aF0
aF-0.022791150592121799
aF0.014929569195282794
aF0
aF-0.000215208648581512
aF0.0067897355988756937
aF0
aF-0.01312228768693573
aF0.015295179399591047
aF0
aF0.00073094276159492975
aF0.0021045279040151411
as(I3
g2
g3
(g5
S'\x06\x00\x00\x00\x00\x00\x00\x00'
tRp283
g2
I1
tp284
(lp285
F0
aF0.021495641195313359
aF0
aF0.010830650667826819
aF0
aF-0.033858728140995428
aF0
aF-0.12648185699509001
aF0
aF-0.03552062774671752
aF0.078941842918749311
aF0
aF0.0087676856752416307
aF-0.29495763137129694
aF0
aF-0.051420508087323152
aF0.14509196510183572
aF0
aF-0.0015532091251424162
aF-0.18474369042189162
as(I8
g12
g3
(g5
S'\x02\x00\x00\x00\x00\x00\x00\x00'
tRp286
g2
I1
tp287
(lp288
F-0.0012069688074026891
aF0
aF-0.005713798247637264
aF0
aF-0.019602815028586809
aF0
aF-0.018791268098307588
aF0
aF0.0003993889980161126
aF-0.064036116365634652
aF0
aF-0.00084534652620075698
aF-0.073104881740779615
aF0
aF0.0037321374672933281
aF0.031811026666344978
aF0
aF5.7123351362490042e-05
aF-0.00657678876392781
aF0
as(I1
g2
g3
(g5
S'\x08\x00\x00\x00\x00\x00\x00\x00'
tRp289
g12
I1
tp290
(lp291
F0
aF-0.011748063751207551
aF0
aF-0.018681364373855709
aF0
aF-0.040900164449133393
aF0
aF-0.046529975036170762
aF0
aF0.045371555635121297
aF-0.18216805967201818
aF0
aF-0.052728275978780985
aF-0.070788376316146762
aF0
aF0.097978037610980853
aF-0.093162963607360177
aF0
aF-0.0024694405770575175
aF-0.0064929371282165778
as(I3
g2
I3
g2
I1
tp292
(lp293
F0.04342268919841602
aF-0.043049189102636443
aF0.037094013425722216
aF-0.040746506838802099
aF0.010179065003091663
aF-0.029302357171247045
aF-0.046303724722561106
aF-0.0023472728659721838
aF-0.006993218765767458
aF0.084814466842496702
aF-0.10542159330541075
aF0.0099185428493833595
aF-0.11631724592944119
aF-0.026964539311015952
aF-0.017821287127351943
aF0.14980399683767257
aF-0.062663872081750074
aF0.00071507672678053304
aF-0.029008612713509466
aF-0.0040631007917658595
as(I7
g2
g3
(g5
S'\t\x00\x00\x00\x00\x00\x00\x00'
tRp294
g12
I1
tp295
(lp296
F0
aF-0.010240570137836011
aF0
aF-0.0076849211648016003
aF0
aF0.0015783075843827481
aF0
aF0.014777236763282173
aF0
aF-0.13898568555673804
aF0.0035517432888026571
aF0
aF0.078299520957270524
aF0.01652515244804325
aF0
aF-0.21049413894367749
aF-0.029370765614025282
aF0
aF0.00046968789900113037
aF-0.0022117641280825721
as(I1
g2
g3
(g5
S'\x05\x00\x00\x00\x00\x00\x00\x00'
tRp297
g2
I2
tp298
(lp299
F0
aF-0.010416672950079446
aF0
aF-0.010493652325425427
aF0
aF-0.010645011561401005
aF0
aF-0.0090622379199236155
aF0
aF0.32530176695480312
aF-0.13279981087981102
aF0
aF-0.014902316931489761
aF-0.0632805916761532
aF0
aF0.23764179469529068
aF-0.056530775730831061
aF0
aF-0.031758136400344993
aF0.0055259613452088505
as(I6
g2
I6
g2
I0
tp300
(lp301
F0.14839328282784084
aF0.18039409902408612
aF0.14158155049655061
aF0.18900114089305686
aF0.1107309983313693
aF0.21627492640977058
aF0.027773666654325554
aF0.2020113209086738
aF0.056127083796426613
aF0.38586716785696001
aF0.48179825600921916
aF0.0077617013029932956
aF0.13956930032064258
aF0.5396206627753839
aF0.039285146794939774
aF0.20101854743690062
aF-0.065383975077582854
aF9.7002174269467052e-05
aF0.0103492055360868
aF0.054608219737127026
as(I8
g12
g3
(g5
S'\t\x00\x00\x00\x00\x00\x00\x00'
tRp302
g12
I2
tp303
(lp304
F0.072934606563442736
aF0
aF0.074089318356121037
aF0
aF0.077317555428073656
aF0
aF0.068893466602911624
aF0
aF0.0070586591266399296
aF-0.6499327171476954
aF0
aF0.0042287688442342649
aF0.11818636160942948
aF0
aF0.0095150674394004243
aF-0.63436494891774797
aF0
aF0.0049797230897488109
aF0.042622335775675736
aF0
as(I8
g12
g3
(g5
S'\x03\x00\x00\x00\x00\x00\x00\x00'
tRp305
g2
I1
tp306
(lp307
F-0.022633579266279475
aF0
aF-0.02678894832507446
aF0
aF-0.038983810497645169
aF0
aF-0.031196951273436517
aF0
aF0.0041544636233713239
aF-0.090340251599053484
aF0
aF-0.019215673953526281
aF-0.070253440460116723
aF0
aF0.047310006148151729
aF-0.012702819855082767
aF0
aF0.00037552216111816567
aF-0.013433467492126275
aF0
as(I1
g2
g3
(g5
S'\x00\x00\x00\x00\x00\x00\x00\x00'
tRp308
g2
I1
tp309
(lp310
F0
aF-0.03915962822481505
aF0
aF-0.037698579781317389
aF0
aF-0.030983338386454111
aF0
aF-0.0098112097376435066
aF0
aF-0.021632979950861535
aF-0.095874227229896331
aF0
aF-0.0040891212559640878
aF-0.027811036292930278
aF0
aF-0.012091691252757645
aF-0.072068442972247848
aF0
aF-3.4236080458721278e-05
aF-0.0055872738554448333
as(I0
g2
g3
(g5
S'\t\x00\x00\x00\x00\x00\x00\x00'
tRp311
g12
I1
tp312
(lp313
F0
aF0.030552816059558823
aF0
aF0.029946370036135563
aF0
aF0.025055511373004394
aF0
aF0.0054828943694849855
aF0
aF0.0051798825028202492
aF0.12405684174940027
aF0
aF0.0089555409931339376
aF0.019540033915734653
aF0
aF-0.0068389046677825331
aF0.092798763295456915
aF0
aF0.00032632274126080825
aF0.00038207695691551966
as(I2
g2
g3
(g5
S'\x03\x00\x00\x00\x00\x00\x00\x00'
tRp314
g2
I0
tp315
(lp316
F0
aF-0.00011302134449731049
aF0
aF-0.00013175125315689762
aF0
aF-0.00019095338407307261
aF0
aF-0.00016291916986759664
aF0
aF0.057874685657287692
aF-0.098185378699099532
aF0
aF0.03558775532864282
aF0.014808652383108878
aF0
aF0.014380643326889153
aF-0.11163668504573752
aF0
aF0.0022325325344774564
aF0.00044046609241408065
as(I9
g12
g3
(g5
S'\x05\x00\x00\x00\x00\x00\x00\x00'
tRp317
g2
I1
tp318
(lp319
F-0.0012219512781024844
aF0
aF-0.00068536453108056228
aF0
aF0.0015519708790928122
aF0
aF0.0058912480899864089
aF0
aF-0.10096532285476723
aF-0.0163829125673065
aF0
aF0.051048894553599115
aF0.02150769109684196
aF0
aF-0.15008855394738216
aF-0.023005171335310402
aF0
aF0.0015055213823133005
aF0.011852701241996385
aF0
as(I9
g12
g3
(g5
S'\x05\x00\x00\x00\x00\x00\x00\x00'
tRp320
g2
I2
tp321
(lp322
F-0.3001221697226697
aF0
aF-0.29873807449754686
aF0
aF-0.28378500779946736
aF0
aF-0.15838600295630856
aF0
aF-0.19553842039341623
aF-1.1827435367238854
aF0
aF-0.11812845446251533
aF-0.36975228006194805
aF0
aF-0.061559885733835917
aF-0.75450158030945003
aF0
aF-0.012639018218157445
aF-0.07207279617050491
aF0
as(I8
g12
g3
(g5
S'\x06\x00\x00\x00\x00\x00\x00\x00'
tRp323
g2
I1
tp324
(lp325
F0.020548346726757434
aF0
aF0.021988810985892837
aF0
aF0.02600345066393335
aF0
aF0.016019991937232844
aF0
aF0.016088985585047538
aF0.092117429122625258
aF0
aF-0.0018079726073172864
aF0.051672648114130637
aF0
aF0.019254763843398148
aF0.057745211839218928
aF0
aF-3.2537326417126093e-05
aF0.0089612624070995062
aF0
as(I7
g2
g3
(g5
S'\x08\x00\x00\x00\x00\x00\x00\x00'
tRp326
g12
I1
tp327
(lp328
F0
aF0.032856765423202455
aF0
aF0.02279117482691298
aF0
aF-0.023179289978134676
aF0
aF-0.16701187764414208
aF0
aF0.04571678502490701
aF-0.21620385447854198
aF0
aF-0.085060191454427142
aF-0.062731385259543873
aF0
aF0.12269989208022851
aF-0.076096997124315086
aF0
aF-0.010904439148875905
aF0.013957653184086686
as(I1
g2
g3
(g5
S'\x04\x00\x00\x00\x00\x00\x00\x00'
tRp329
g2
I0
tp330
(lp331
F0
aF0.21378328509174604
aF0
aF0.22223992583771757
aF0
aF0.24415891042429932
aF0
aF0.19918826106530688
aF0
aF-0.01175094472143025
aF0.68054636376496835
aF0
aF0.03846355180448438
aF0.46173559138323222
aF0
aF-0.023863841760817107
aF0.3013601562109397
aF0
aF0.012658195784839479
aF0.14138928833102909
as(I6
g2
g3
(g5
S'\x02\x00\x00\x00\x00\x00\x00\x00'
tRp332
g2
I0
tp333
(lp334
F0
aF0.21099410898304785
aF0
aF0.21723568443868552
aF0
aF0.23524983085388121
aF0
aF0.22585620415629526
aF0
aF0.08060931541515208
aF0.87892367544989558
aF0
aF0.035953685916735541
aF0.39503316745077993
aF0
aF0.03294499796328404
aF0.45845621572655282
aF0
aF0.002568718756900791
aF0.096734045767221694
as(I7
g2
g3
(g5
S'\x01\x00\x00\x00\x00\x00\x00\x00'
tRp335
g2
I1
tp336
(lp337
F0
aF0.0024898190066807435
aF0
aF-0.006525045105193153
aF0
aF-0.036835639272417349
aF0
aF-0.061617558315429977
aF0
aF-0.12634156508606034
aF-0.055601996559619241
aF0
aF-0.0026391216337444865
aF-0.11625110702505316
aF0
aF-0.11457821462252152
aF0.012279709469008596
aF0
aF1.5474177912945503e-05
aF-0.051882575531398759
as(I3
g2
g3
(g5
S'\x02\x00\x00\x00\x00\x00\x00\x00'
tRp338
g2
I0
tp339
(lp340
F0
aF0.00011302134449736601
aF0
aF0.00013175125315698089
aF0
aF0.00019095338407321139
aF0
aF0.00016291916986766602
aF0
aF-0.075405167223221811
aF0.082948075185090286
aF0
aF-0.0085564536117218593
aF0.0096919105974383971
aF0
aF-0.050611012751272159
aF0.059721796941535989
aF0
aF0.00038427192303021188
aF-0.0044050232512542137
as(I0
g2
g3
(g5
S'\x08\x00\x00\x00\x00\x00\x00\x00'
tRp341
g12
I1
tp342
(lp343
F0
aF-0.0079897075580527208
aF0
aF-0.012498432101581886
aF0
aF-0.024671943969776934
aF0
aF-0.019204408316793337
aF0
aF0.018553922824369334
aF-0.14766321500298996
aF0
aF-0.0010994423284245098
aF-0.053044078992709874
aF0
aF0.0056955582743864995
aF-0.050362007999705
aF0
aF-0.0055895942888128458
aF-0.00058177792006697954
as(I4
g2
g3
(g5
S'\x02\x00\x00\x00\x00\x00\x00\x00'
tRp344
g2
I0
tp345
(lp346
F0
aF0.2154801359707425
aF0
aF0.21812522074216029
aF0
aF0.2231998493763783
aF0
aF0.18752053228662016
aF0
aF0.11591811874417522
aF0.83516655624196701
aF0
aF0.01691688556696529
aF0.37805323447451278
aF0
aF0.077016789015019391
aF0.37664731779176047
aF0
aF0.00060069790439968554
aF0.058188427897993951
as(I1
g2
I1
g2
I2
tp347
(lp348
F0.43595596016855848
aF-0.51866276349613816
aF0.42964143007612077
aF-0.49528757738904788
aF0.40255490515678505
aF-0.40102223019756511
aF0.29126321657021509
aF-0.17473917748386342
aF0.20766573783829856
aF0.49187216653969529
aF-0.83628393250465516
aF0.067285933238730097
aF0.50754641794445865
aF-0.32810388795669754
aF0.084239443860116156
aF0.12479315787191136
aF-0.47245342684641062
aF0.00092154604194745688
aF0.18120470045717463
aF-0.11518372836615087
as(I9
g12
g3
(g5
S'\x04\x00\x00\x00\x00\x00\x00\x00'
tRp349
g2
I1
tp350
(lp351
F-0.0067416492778719014
aF0
aF-0.0070430337386157144
aF0
aF-0.0069464581072734913
aF0
aF-0.0016383524897031643
aF0
aF-0.018218727661665841
aF-0.021748593350298259
aF0
aF0.0018359384985786277
aF-0.007218966648101616
aF0
aF-0.022512475431742781
aF-0.0090786719670523271
aF0
aF1.5095653284076265e-06
aF-0.0001687095455936339
aF0
as(I8
g12
g3
(g5
S'\x07\x00\x00\x00\x00\x00\x00\x00'
tRp352
g2
I1
tp353
(lp354
F-0.032856765423202455
aF0
aF-0.02279117482691298
aF0
aF0.023179289978134676
aF0
aF0.16701187764414208
aF0
aF0.14839138540923988
aF-0.24057736681223352
aF0
aF-0.029752208228706004
aF0.45332182328964077
aF0
aF0.1148749583078582
aF-0.30510072219188417
aF0
aF-0.011133673672568033
aF0.25414569535741843
aF0
as(I1
g2
g3
(g5
S'\x07\x00\x00\x00\x00\x00\x00\x00'
tRp355
g2
I2
tp356
(lp357
F0
aF0.048935100273584956
aF0
aF0.047978660870205116
aF0
aF0.044038505143175158
aF0
aF0.030494483926602142
aF0
aF0.33529337595550934
aF-0.08550152644145069
aF0
aF-0.00021409923531727704
aF0.0031540206080926943
aF0
aF0.22416519154769157
aF-0.036552374384086476
aF0
aF-0.0096746142631583629
aF0.029211572046337293
as(I7
g2
g3
(g5
S'\x00\x00\x00\x00\x00\x00\x00\x00'
tRp358
g2
I1
tp359
(lp360
F0
aF0.034747344499933858
aF0
aF0.021894983148176977
aF0
aF-0.027451790049747737
aF0
aF-0.10733664482413992
aF0
aF-0.12806975381536656
aF0.016652976296862566
aF0
aF0.031757555222374743
aF-0.24361047960744833
aF0
aF-0.1835093434019561
aF0.22412225411049341
aF0
aF0.00023213105863463654
aF-0.015890264096158412
as(I9
g12
g3
(g5
S'\x01\x00\x00\x00\x00\x00\x00\x00'
tRp361
g2
I1
tp362
(lp363
F0.03308638488212276
aF0
aF0.020854201423421967
aF0
aF-0.023330538168383444
aF0
aF-0.080447750971792006
aF0
aF-0.10159145843186293
aF0.085262766530196238
aF0
aF0.023838946050360667
aF-0.23222403447699921
aF0
aF-0.12153632456901776
aF0.19154503915331628
aF0
aF0.00090441685482659526
aF-0.061527885144398164
aF0
as(I3
g2
g3
(g5
S'\t\x00\x00\x00\x00\x00\x00\x00'
tRp364
g12
I2
tp365
(lp366
F0
aF0.2495659671853257
aF0
aF0.24685993937076559
aF0
aF0.23141658894292028
aF0
aF0.14645368185989108
aF0
aF0.12229112239710355
aF0.37656702455252755
aF0
aF0.095599743740972687
aF0.19966953785685168
aF0
aF0.051782731004262485
aF0.14460316606479848
aF0
aF0.038675781354824093
aF0.018377887370919978
as(I2
g2
g3
(g5
S'\x05\x00\x00\x00\x00\x00\x00\x00'
tRp367
g2
I0
tp368
(lp369
F0
aF0.20107626522785466
aF0
aF0.2025655441957645
aF0
aF0.20328646773369288
aF0
aF0.15864160774495781
aF0
aF0.053318960868842483
aF0.4561372124781109
aF0
aF0.14986055186725414
aF0.41840812503906527
aF0
aF0.00639596956866383
aF0.089988659141156987
aF0
aF0.071027067661932078
aF0.098159146278008633
as(I7
g2
g3
(g5
S'\x03\x00\x00\x00\x00\x00\x00\x00'
tRp370
g2
I1
tp371
(lp372
F0
aF0.01393270011085472
aF0
aF0.022257077612695086
aF0
aF0.049002034084004137
aF0
aF0.057395890683596643
aF0
aF0.048572579347304655
aF0.090574742014332091
aF0
aF0.02534308306655535
aF0.12493669432951153
aF0
aF-0.012205771787658708
aF-0.045439104958444006
aF0
aF-0.00059196766223190765
aF0.03571302758734831
as(I1
g2
g3
(g5
S'\x00\x00\x00\x00\x00\x00\x00\x00'
tRp373
g2
I0
tp374
(lp375
F0
aF-0.02075010551416509
aF0
aF-0.024070716646452328
aF0
aF-0.034442241976012672
aF0
aF-0.028785739291342365
aF0
aF-0.12141708257075319
aF-0.0530509836207625
aF0
aF-0.0095766064979979117
aF-0.080845300870046821
aF0
aF-0.088926299376192508
aF0.013048565845817824
aF0
aF0.00061256701073510503
aF-0.020850567205613856
as(I4
g2
g3
(g5
S'\x02\x00\x00\x00\x00\x00\x00\x00'
tRp376
g2
I1
tp377
(lp378
F0
aF0.029658000406724352
aF0
aF0.017920976140123987
aF0
aF-0.029593589486073664
aF0
aF-0.11954776682895743
aF0
aF0.0021936777631826137
aF0.053757654832365012
aF0
aF-0.012102895310441879
aF-0.2535565497770681
aF0
aF0.012192481430819925
aF0.26410040961819808
aF0
aF-0.0011896972758510163
aF-0.03262298706115193
as(I0
g2
g3
(g5
S'\x05\x00\x00\x00\x00\x00\x00\x00'
tRp379
g2
I2
tp380
(lp381
F0
aF0.21140609575995301
aF0
aF0.20978837022222313
aF0
aF0.20048781446575614
aF0
aF0.14255556282852541
aF0
aF0.24533957087175137
aF0.77308000531107401
aF0
aF0.15692428775385098
aF0.28200559736876568
aF0
aF0.052523689485098515
aF0.51235896892268684
aF0
aF0.0060791166149921387
aF0.096019984137250228
as(I5
g2
g3
(g5
S'\x02\x00\x00\x00\x00\x00\x00\x00'
tRp382
g2
I2
tp383
(lp384
F0
aF-0.20973298030178705
aF0
aF-0.20832812000367004
aF0
aF-0.20070927592512833
aF0
aF-0.15144107476176796
aF0
aF0.019175567944693946
aF-0.48138568272390742
aF0
aF-0.018245150945192298
aF-0.30536092079619676
aF0
aF0.055566793044516907
aF-0.24198115780457558
aF0
aF-0.00027209720459624561
aF-0.087331844010395301
as(I6
g2
I6
g2
I2
tp385
(lp386
F0.41398150286474261
aF0.22825790224082337
aF0.38733998080122423
aF0.21947758330601982
aF0.282388204323757
aF0.18421531717474732
aF0.05934398182841169
aF0.088534512679665028
aF0.060719253242411328
aF0.74965192615994347
aF0.29066414707412391
aF0.0069854454693243353
aF0.20216144677181452
aF0.20359001864686252
aF0.045319907398828824
aF0.43689352319207997
aF0.16321259073176994
aF8.6936106420683568e-05
aF0.01469827245491899
aF0.083289712846996392
as(I9
g12
I9
g12
I1
tp387
(lp388
F0.027593636417892475
aF0.016371367701451811
aF0.018834985498816709
aF0.012334533911591582
aF-0.021033070563937634
aF0.00019081478896320475
aF-0.14222840319902189
aF-0.013097517722137296
aF0.016178311762835448
aF-0.075817478425565826
aF-0.029078191413273384
aF0.0071517155283960677
aF-0.14534681218279805
aF0.010161092307414039
aF0.015179697094114483
aF0.060935373792702661
aF-0.0097233380855533107
aF0.0051327636552277265
aF-0.021091054577437891
aF0.0044421705716311361
as(I1
g2
g3
(g5
S'\x03\x00\x00\x00\x00\x00\x00\x00'
tRp389
g2
I2
tp390
(lp391
F0
aF-0.0028782541425229876
aF0
aF-0.0029548716913389327
aF0
aF-0.0032142653497371542
aF0
aF-0.003169332120269929
aF0
aF0.29001519602396547
aF-0.22950618042921606
aF0
aF-0.014009064626978384
aF-0.018254597865395739
aF0
aF0.2720145264112736
aF-0.16568207996025203
aF0
aF-0.0019643253500755383
aF0.0093719782309477535
as(I4
g2
g3
(g5
S'\x03\x00\x00\x00\x00\x00\x00\x00'
tRp392
g2
I1
tp393
(lp394
F0
aF0.022397261792056353
aF0
aF0.01122019975992164
aF0
aF-0.035037974914107733
aF0
aF-0.12985638788937989
aF0
aF0.013134307695846024
aF0.052719386594922042
aF0
aF-0.034066685481996865
aF-0.24116825769371789
aF0
aF-0.0015769805919616828
aF0.14840933509318271
aF0
aF-0.0363189781220421
aF-0.11246977788460109
as(I4
g2
g3
(g5
S'\x07\x00\x00\x00\x00\x00\x00\x00'
tRp395
g2
I1
tp396
(lp397
F0
aF0.0035624726212591662
aF0
aF0.0056859447174285316
aF0
aF0.013699513357040227
aF0
aF0.022586026717226045
aF0
aF0.034649680071471907
aF0.050131220883323627
aF0
aF0.034534053190907479
aF0.0287701320821909
aF0
aF-0.0011533342903666025
aF0.025449930480854657
aF0
aF0.0027603719432957464
aF0.0063204744400015504
as(I8
g12
g3
(g5
S'\x01\x00\x00\x00\x00\x00\x00\x00'
tRp398
g2
I2
tp399
(lp400
F-0.19142983206345321
aF0
aF-0.18478610303919873
aF0
aF-0.15795816178804922
aF0
aF-0.079904652681282273
aF0
aF-0.056685915704704555
aF-0.74702942851495135
aF0
aF-0.042120594224885045
aF-0.16178943352276262
aF0
aF0.013596085523768581
aF-0.55004387528279852
aF0
aF-0.00052424889906901645
aF-0.044240548081341084
aF0
as(I1
g2
g3
(g5
S'\t\x00\x00\x00\x00\x00\x00\x00'
tRp401
g12
I0
tp402
(lp403
F0
aF-0.14977011264751439
aF0
aF-0.14997174411112812
aF0
aF-0.1498133638782542
aF0
aF-0.12945526994585999
aF0
aF-0.21352082431456851
aF-0.61739890404221687
aF0
aF-0.076972338317562436
aF-0.1071767960965148
aF0
aF-0.081677150731360476
aF-0.33578765650069442
aF0
aF-0.00083914675228262165
aF0.0056803026967830418
as(I9
g12
g3
(g5
S'\x08\x00\x00\x00\x00\x00\x00\x00'
tRp404
g12
I1
tp405
(lp406
F0.027593636417892475
aF0
aF0.018834985498816709
aF0
aF-0.021033070563937634
aF0
aF-0.14222840319902189
aF0
aF0.016178311762835428
aF-0.01428681849676891
aF0
aF0.0071517155283960668
aF-0.21137046647390231
aF0
aF0.015179697094114469
aF0.11025451827819559
aF0
aF0.0051327636552277282
aF-0.043884437269563314
aF0
as(I0
g2
g3
(g5
S'\x04\x00\x00\x00\x00\x00\x00\x00'
tRp407
g2
I0
tp408
(lp409
F0
aF-0.20554437728144234
aF0
aF-0.20952805791946641
aF0
aF-0.22043250852142965
aF0
aF-0.20484557401760803
aF0
aF0.015860492964520613
aF-0.58974217177373089
aF0
aF-0.029378157091280534
aF-0.4803268819978071
aF0
aF0.023844611205707696
aF-0.22784599590150367
aF0
aF-0.0047854056037938322
aF-0.16145978291291552
as(I8
g12
g3
(g5
S'\x02\x00\x00\x00\x00\x00\x00\x00'
tRp410
g2
I0
tp411
(lp412
F-0.07358956297707922
aF0
aF-0.06996998950540001
aF0
aF-0.054681835462081746
aF0
aF-0.014998660413551383
aF0
aF0.0010425162497903718
aF-0.23472592185943317
aF0
aF-0.0021588865095560675
aF-0.078094446067881518
aF0
aF0.0043725718627103238
aF-0.093562202824002336
aF0
aF-5.3999418405296686e-05
aF-0.0026879542158401112
aF0
as(I3
g2
I3
g2
I0
tp413
(lp414
F-0.33079142133549833
aF0.039384996780872067
aF-0.33101870579013121
aF0.036859821150063865
aF-0.31680301838219377
aF0.028027538630389169
aF-0.17369755254437805
aF0.022843611259437704
aF-0.19828707574469689
aF-1.0940717859195119
aF0.25998671724538025
aF-0.056029668547657695
aF-0.45382807789178164
aF0.030109576747650125
aF-0.11507269625830777
aF-0.51851864549300386
aF0.19747912632642461
aF-0.0023022121168259561
aF-0.036416049133161703
aF-0.021235276699419835
as(I2
g2
g3
(g5
S'\x00\x00\x00\x00\x00\x00\x00\x00'
tRp415
g2
I1
tp416
(lp417
F0
aF-2.7755575615628914e-17
aF0
aF0
aF0
aF0
aF0
aF1.1102230246251565e-16
aF0
aF0.018648929291859396
aF-0.04353680668996715
aF0
aF-0.0057217462644159854
aF0.025850334881128492
aF0
aF0.0070081835454602814
aF-0.023625084168224147
aF0
aF-0.0054934761071427926
aF0.021023956731749133
as(I7
g2
g3
(g5
S'\t\x00\x00\x00\x00\x00\x00\x00'
tRp418
g12
I0
tp419
(lp420
F0
aF0.16264147134041665
aF0
aF0.16464362859912934
aF0
aF0.17487603349307446
aF0
aF0.19869849117035324
aF0
aF0.10356392245601319
aF0.72606444410969417
aF0
aF0.08672276850551898
aF0.11006066945905167
aF0
aF0.0015279707548920556
aF0.39617700715103765
aF0
aF0.0043831413684402732
aF-0.012575622979860047
as(I1
g2
g3
(g5
S'\x05\x00\x00\x00\x00\x00\x00\x00'
tRp421
g2
I1
tp422
(lp423
F0
aF0.025307611312790055
aF0
aF0.015780562997095425
aF0
aF-0.02691341784665633
aF0
aF-0.14130607527905395
aF0
aF0.030064176053953978
aF0.11804381315202284
aF0
aF-0.14151893944863245
aF-0.26435810898706319
aF0
aF0.098808282549627993
aF0.21263477105239675
aF0
aF-0.027009137122130947
aF-0.14039897984627053
as(I7
g2
g3
(g5
S'\x02\x00\x00\x00\x00\x00\x00\x00'
tRp424
g2
I2
tp425
(lp426
F0
aF-0.27566281038295454
aF0
aF-0.27545636973610571
aF0
aF-0.27009404856610869
aF0
aF-0.20682083820858321
aF0
aF-0.033752995615339114
aF-0.94791884698940931
aF0
aF-0.017809991411324781
aF-0.38216480058226776
aF0
aF-0.010204244249207562
aF-0.53264599350567332
aF0
aF-0.00076741764755595846
aF-0.077825735132471097
as(I8
g12
g3
(g5
S'\x03\x00\x00\x00\x00\x00\x00\x00'
tRp427
g2
I2
tp428
(lp429
F-0.19524461042824703
aF0
aF-0.1848849271473863
aF0
aF-0.1435621780806727
aF0
aF-0.044351264952888027
aF0
aF-0.057162834184564637
aF-0.6487391797939942
aF0
aF-0.024311496899983683
aF-0.096675781922596238
aF0
aF-0.021153525241938198
aF-0.51606685917846407
aF0
aF-0.00092847247281263329
aF-0.014804772171066179
aF0
as(I6
g2
g3
(g5
S'\x08\x00\x00\x00\x00\x00\x00\x00'
tRp430
g12
I2
tp431
(lp432
F0
aF0.21699651943526738
aF0
aF0.20373101952946523
aF0
aF0.15149147778771443
aF0
aF0.036114110027443927
aF0
aF0.041785385003274389
aF0.40516788264332448
aF0
aF0.029258707430386464
aF0.10697862431481432
aF0
aF0.012047195803043935
aF0.23348932776676626
aF0
aF0.0033267850656899752
aF0.0069712874905163069
as(I4
g2
g3
(g5
S'\t\x00\x00\x00\x00\x00\x00\x00'
tRp433
g12
I2
tp434
(lp435
F0
aF0.21231186174222111
aF0
aF0.19105551663367876
aF0
aF0.11640455516437315
aF0
aF0.010707490179607137
aF0
aF0.063078923885103375
aF0.2798895157931317
aF0
aF0.0097447960997006661
aF0.043430524402893578
aF0
aF0.046829506695297146
aF0.19270837537708627
aF0
aF0.00047694489879486561
aF0.00098344774586501984
as(I6
g2
g3
(g5
S'\x07\x00\x00\x00\x00\x00\x00\x00'
tRp436
g2
I1
tp437
(lp438
F0
aF0.010570980568936916
aF0
aF0.0068014471444670689
aF0
aF-0.0046581549330156485
aF0
aF-0.011946586392831145
aF0
aF-0.028276829249162382
aF-0.029717181625241534
aF0
aF-0.018350165655418738
aF-0.016516207625356213
aF0
aF-0.00023784478467955882
aF-0.017308088684040331
aF0
aF0.0059684858292956191
aF-0.0043770256837111646
as(I9
g12
g3
(g5
S'\x05\x00\x00\x00\x00\x00\x00\x00'
tRp439
g2
I0
tp440
(lp441
F-0.057129574373528516
aF0
aF-0.056866105762806533
aF0
aF-0.054019723781663143
aF0
aF-0.030149471943307957
aF0
aF-0.19099660587438849
aF-0.068919344329618215
aF0
aF0.0021412954480467036
aF-0.094177366754586128
aF0
aF-0.17436715227255539
aF-0.020802688904908259
aF0
aF0.001398732945190388
aF-0.026003544606158596
aF0
as(I8
g12
g3
(g5
S'\x06\x00\x00\x00\x00\x00\x00\x00'
tRp442
g2
I0
tp443
(lp444
F-0.17073096023385431
aF0
aF-0.16530220824293801
aF0
aF-0.13668841060560449
aF0
aF-0.038491120240512496
aF0
aF-0.0054562690037685702
aF-0.43711022389445336
aF0
aF-0.0036654617482251243
aF-0.16564954978785193
aF0
aF0.0010789670781018584
aF-0.19544112636479685
aF0
aF-9.3023826101276748e-05
aF-0.014399750046147805
aF0
as(I7
g2
g3
(g5
S'\x08\x00\x00\x00\x00\x00\x00\x00'
tRp445
g12
I2
tp446
(lp447
F0
aF0.2092884867387135
aF0
aF0.21305183385539467
aF0
aF0.22478102536110339
aF0
aF0.21440753946948021
aF0
aF0.40533952276660845
aF-0.15376895393391482
aF0
aF0.0084084333284639746
aF0.29733029697902419
aF0
aF0.35211602145056065
aF-0.30784472172226324
aF0
aF0.01450427167256879
aF0.063690093896810129
as(I1
g2
g3
(g5
S'\x04\x00\x00\x00\x00\x00\x00\x00'
tRp448
g2
I1
tp449
(lp450
F0
aF0.00080565365851315018
aF0
aF-0.0070570389476888318
aF0
aF-0.040001286838610164
aF0
aF-0.10047748014672965
aF0
aF-0.024311315026381314
aF0.038763296314721946
aF0
aF-0.015754817029330008
aF-0.2174848458486669
aF0
aF-0.018775680241493828
aF0.15420662168444418
aF0
aF-0.0072897092649917561
aF-0.10195252374057419
as(I7
g2
g3
(g5
S'\x01\x00\x00\x00\x00\x00\x00\x00'
tRp451
g2
I0
tp452
(lp453
F0
aF0.14033333579223026
aF0
aF0.1508548955384576
aF0
aF0.18846571626843359
aF0
aF0.20785982309500611
aF0
aF0.40421515875808017
aF0.35675650847735796
aF0
aF0.069039130395758777
aF0.41882752648443117
aF0
aF0.25133759817260759
aF0.056430495259147527
aF0
aF0.00036090118407074915
aF0.15298956517332776
as(I0
g2
g3
(g5
S'\x08\x00\x00\x00\x00\x00\x00\x00'
tRp454
g12
I0
tp455
(lp456
F0
aF0.064256472948895124
aF0
aF0.062624154529442283
aF0
aF0.055147013251797022
aF0
aF0.025755906202514604
aF0
aF0.029034875504397654
aF0.29586093460855206
aF0
aF0.02716201621366926
aF0.067023051304606618
aF0
aF0.0040208765270616821
aF0.14883035431192215
aF0
aF0.0026009231961571871
aF-0.00034956726911438655
as(I2
g2
g3
(g5
S'\x04\x00\x00\x00\x00\x00\x00\x00'
tRp457
g2
I1
tp458
(lp459
F0
aF-0.02965800040672437
aF0
aF-0.017920976140123997
aF0
aF0.029593589486073674
aF0
aF0.11954776682895749
aF0
aF0.028694583562492167
aF-0.094886342574906052
aF0
aF0.020295375282709392
aF0.27568231722308439
aF0
aF0.0043129218137169922
aF-0.27655583932501104
aF0
aF0.00086508677411320577
aF0.10204370713483928
as(I7
g2
g3
(g5
S'\x05\x00\x00\x00\x00\x00\x00\x00'
tRp460
g2
I1
tp461
(lp462
F0
aF0.0030022977586125488
aF0
aF0.0020773713929613247
aF0
aF-0.0023271210255506047
aF0
aF-0.017866159522753638
aF0
aF-0.15408468156085658
aF-0.0040559532899279022
aF0
aF0.076633640357879146
aF-0.020136663753048938
aF0
aF-0.1605300377807124
aF-0.0027526246335173475
aF0
aF0.0088502346830407509
aF-0.018097790802709506
as(I1
g2
I1
g2
I1
tp463
(lp464
F-0.044834448633330318
aF-0.039137113394218881
aF-0.039535565797277683
aF-0.028247741491353284
aF-0.017569626280749949
aF0.00061377181398109687
aF0.033917775935621251
aF0.0017699638299628591
aF-0.0049278024818030387
aF-0.13449750347737771
aF0.027581551784380973
aF-0.013123097485125938
aF0.10646477043486831
aF0.0089736546233873081
aF0.013436841215748218
aF-0.16649408489125586
aF0.020934404211075605
aF-0.00044722139741001839
aF0.03435790287525383
aF-0.0059721084354360174
as(I3
g2
g3
(g5
S'\x01\x00\x00\x00\x00\x00\x00\x00'
tRp465
g2
I2
tp466
(lp467
F0
aF0.0028782541425229876
aF0
aF0.0029548716913389327
aF0
aF0.0032142653497371542
aF0
aF0.003169332120269929
aF0
aF0.28219998241276373
aF-0.21612077902443608
aF0
aF0.025484128697965985
aF-0.0031035000069848514
aF0
aF0.15361415854223404
aF-0.17444209106129191
aF0
aF-0.019646033310930084
aF0.010956408261960706
as(I7
g2
g3
(g5
S'\x06\x00\x00\x00\x00\x00\x00\x00'
tRp468
g2
I2
tp469
(lp470
F0
aF-0.13495491115085487
aF0
aF-0.13293754322707368
aF0
aF-0.12470896595818048
aF0
aF-0.090254560225242281
aF0
aF0.01957941443066517
aF-0.65206462529590281
aF0
aF-0.013028330143911578
aF-0.15803017430487104
aF0
aF0.048445494134258749
aF-0.43660243573864588
aF0
aF-4.4619009774002938e-05
aF-0.05791915917479909
as(I5
g2
g3
(g5
S'\t\x00\x00\x00\x00\x00\x00\x00'
tRp471
g12
I2
tp472
(lp473
F0
aF0.3001221697226697
aF0
aF0.29873807449754686
aF0
aF0.28378500779946736
aF0
aF0.15838600295630856
aF0
aF0.41364230435481569
aF0.46966290003530509
aF0
aF0.041313325335325279
aF0.24538515230720229
aF0
aF0.37619590567009353
aF0.14203953015803505
aF0
aF0.017214193205441548
aF0.018040132168922519
as(I8
g12
g3
(g5
S'\x07\x00\x00\x00\x00\x00\x00\x00'
tRp474
g2
I2
tp475
(lp476
F-0.2092884867387135
aF0
aF-0.21305183385539467
aF0
aF-0.22478102536110339
aF0
aF-0.21440753946948021
aF0
aF0.020615480727605294
aF-1.2381774221178621
aF0
aF-0.13898994593137576
aF-0.48747359795737855
aF0
aF0.10114827213026743
aF-0.75893541201373949
aF0
aF-0.026925788921192236
aF-0.1503547392563957
aF0
as(I5
g2
g3
(g5
S'\x03\x00\x00\x00\x00\x00\x00\x00'
tRp477
g2
I0
tp478
(lp479
F0
aF0.20123221391611659
aF0
aF0.21237973514049932
aF0
aF0.24951640655061857
aF0
aF0.28470917778861032
aF0
aF0.14726518607157249
aF0.48085817065272085
aF0
aF0.077795071263341523
aF0.57952508751983278
aF0
aF0.076921557021268488
aF0.20185952795362261
aF0
aF0.0097507905943256083
aF0.27084404787353711
as(I7
g2
g3
(g5
S'\x00\x00\x00\x00\x00\x00\x00\x00'
tRp480
g2
I2
tp481
(lp482
F0
aF-0.26900127465768475
aF0
aF-0.26963374183354455
aF0
aF-0.26942399779346116
aF0
aF-0.23114851572170333
aF0
aF-0.033816783224031581
aF-0.90882931975753378
aF0
aF-0.0285099864662559
aF-0.42733439882700142
aF0
aF0.020427117882849094
aF-0.46132889206654071
aF0
aF-0.00017443604640501482
aF-0.080171522998195799
as(I9
g12
g3
(g5
S'\x01\x00\x00\x00\x00\x00\x00\x00'
tRp483
g2
I0
tp484
(lp485
F0.14977011264751439
aF0
aF0.14997174411112812
aF0
aF0.1498133638782542
aF0
aF0.12945526994585999
aF0
aF-0.028117672634414913
aF0.17875383399229117
aF0
aF0.036074325142757248
aF0.38023350452240207
aF0
aF-0.078251571181221655
aF-0.078176972280756013
aF0
aF0.00073130085034151925
aF0.089799349206646478
aF0
as(I2
g2
g3
(g5
S'\x05\x00\x00\x00\x00\x00\x00\x00'
tRp486
g2
I1
tp487
(lp488
F0
aF-0.025270296251005755
aF0
aF-0.013764590611688429
aF0
aF0.029816531105918989
aF0
aF0.091588510684115887
aF0
aF-0.0119103384739587
aF-0.010439301850258709
aF0
aF0.070595384025842853
aF0.19618855345649513
aF0
aF-0.013728939337343241
aF-0.10403838834297377
aF0
aF0.032085967069545113
aF0.081146752378410847
as(I6
g2
g3
(g5
S'\x01\x00\x00\x00\x00\x00\x00\x00'
tRp489
g2
I1
tp490
(lp491
F0
aF0.022001253114332472
aF0
aF0.010821076152532749
aF0
aF-0.031348172964944715
aF0
aF-0.095617181759424782
aF0
aF-0.0025266825909263588
aF0.017868825480519351
aF0
aF-0.041888122623178897
aF-0.18791714481668723
aF0
aF-0.0091172284120520607
aF0.092001749768144125
aF0
aF-0.045021774538291821
aF-0.075624151709695817
as(I7
g2
g3
(g5
S'\x05\x00\x00\x00\x00\x00\x00\x00'
tRp492
g2
I0
tp493
(lp494
F0
aF0.16348231606267039
aF0
aF0.16669520874991994
aF0
aF0.17589283807689943
aF0
aF0.15100053878315134
aF0
aF0.30091243207965773
aF0.40346362458677032
aF0
aF0.083495740938099403
aF0.30680315728611635
aF0
aF0.24767103016236702
aF0.13299950595731122
aF0
aF0.024406604958676612
aF0.1065527967830089
as(I5
g2
g3
(g5
S'\x08\x00\x00\x00\x00\x00\x00\x00'
tRp495
g12
I0
tp496
(lp497
F0
aF-0.11742576095255126
aF0
aF-0.11941753520476389
aF0
aF-0.12805505360235486
aF0
aF-0.15012016193832156
aF0
aF0.040193958507279172
aF-0.52294996680760475
aF0
aF-0.0901196522357815
aF-0.13969320717487599
aF0
aF0.02124369807481823
aF-0.2087490909477831
aF0
aF-0.054876420472570082
aF0.0073493392571214924
as(I7
g2
g3
(g5
S'\x02\x00\x00\x00\x00\x00\x00\x00'
tRp498
g2
I1
tp499
(lp500
F0
aF-0.029286095170302229
aF0
aF-0.017566593497881894
aF0
aF0.028579524331244041
aF0
aF0.10692774173506585
aF0
aF0.031659285560227547
aF-0.045292198977997015
aF0
aF0.0032915002992154395
aF0.25700786723314906
aF0
aF0.014639333486825007
aF-0.26939484138708769
aF0
aF-0.0007158090839947444
aF0.02640654268993568
as(I5
g2
g3
(g5
S'\x03\x00\x00\x00\x00\x00\x00\x00'
tRp501
g2
I1
tp502
(lp503
F0
aF0.032392743904279944
aF0
aF0.019958373642393362
aF0
aF-0.030926381493537922
aF0
aF-0.13829158189298582
aF0
aF-0.03850637321673258
aF0.11776868491595296
aF0
aF-0.036039482828240765
aF-0.28098476390448485
aF0
aF0.043262887478800173
aF0.21352895087087001
aF0
aF0.0053760052695062937
aF-0.14055378678994868
as(I6
g2
g3
(g5
S'\x03\x00\x00\x00\x00\x00\x00\x00'
tRp504
g2
I2
tp505
(lp506
F0
aF0.10928023565240773
aF0
aF0.10884378528875174
aF0
aF0.10641387387938282
aF0
aF0.087860831987545754
aF0
aF0.065484339936228528
aF0.28659424405183215
aF0
aF0.053524447092015939
aF0.14196452221766862
aF0
aF0.014093298119107518
aF0.17858783132011002
aF0
aF0.0025695171744159443
aF0.081246050792154176
as(I6
g2
g3
(g5
S'\x05\x00\x00\x00\x00\x00\x00\x00'
tRp507
g2
I0
tp508
(lp509
F0
aF0.028362793871149927
aF0
aF0.030567132776788006
aF0
aF0.035046724739393159
aF0
aF0.016302107144706555
aF0
aF0.076471257358593614
aF0.23823876129790988
aF0
aF0.047055156780479945
aF0.050371758887194737
aF0
aF0.019716578326783765
aF0.13869274638002121
aF0
aF0.0028388209464361895
aF0.0048732123972095613
as(I9
g12
I9
g12
I0
tp510
(lp511
F-0.21075448375875902
aF-0.013649072719583275
aF-0.214091180825115
aF-0.0031819555413527094
aF-0.22341961172517666
aF0.025152270697947773
aF-0.19907705919573246
aF0.0025454319485487017
aF-0.020396957361660847
aF-0.4661812679801014
aF0.01873241644612926
aF-0.012219603788860793
aF-0.25929380178808353
aF0.063596955755678253
aF-0.027495083892394072
aF-0.15203958029681383
aF-0.05753961534715743
aF-0.014389588406549752
aF-0.024716786125688086
aF0.0077477820662992369
as(I7
g2
g3
(g5
S'\x04\x00\x00\x00\x00\x00\x00\x00'
tRp512
g2
I2
tp513
(lp514
F0
aF-0.11647133000140017
aF0
aF-0.11242122144724465
aF0
aF-0.095024946683687397
aF0
aF-0.039042703895334457
aF0
aF0.036702544117347802
aF-0.61841364876615712
aF0
aF-0.017910897934687083
aF-0.071420590269095377
aF0
aF0.064638180153313241
aF-0.49400591722749659
aF0
aF-0.00036560213428901055
aF-0.0096362314848492791
as(I0
g2
g3
(g5
S'\x03\x00\x00\x00\x00\x00\x00\x00'
tRp515
g2
I0
tp516
(lp517
F0
aF-0.00023279891402999686
aF0
aF-0.00024045860100958827
aF0
aF-0.00024002296667069434
aF0
aF-7.6433420709992768e-05
aF0
aF0.056880509383731369
aF-0.074323333949310177
aF0
aF0.017461838755523738
aF0.0023144713315077928
aF0
aF0.027050138480477527
aF-0.087859496741725412
aF0
aF0.00047403856477804505
aF0.00021831796907415807
as(I5
g2
g3
(g5
S'\x02\x00\x00\x00\x00\x00\x00\x00'
tRp518
g2
I1
tp519
(lp520
F0
aF0.025270296251005759
aF0
aF0.013764590611688434
aF0
aF-0.029816531105918982
aF0
aF-0.091588510684115887
aF0
aF-0.028015550818458673
aF0.034164836367593515
aF0
aF-0.0061812145023900419
aF-0.21626273706426583
aF0
aF-0.012049146741126063
aF0.15031544181522768
aF0
aF5.4349016762861943e-05
aF-0.041511441976150906
as(I2
g2
g3
(g5
S'\x03\x00\x00\x00\x00\x00\x00\x00'
tRp521
g2
I2
tp522
(lp523
F0
aF0.17618830881761777
aF0
aF0.16964927035495603
aF0
aF0.1393418066122647
aF0
aF0.042886458468401625
aF0
aF0.08445289418623364
aF0.56833241683685531
aF0
aF0.029512104144893112
aF0.096790055284395979
aF0
aF0.035585055285919327
aF0.41991664527436112
aF0
aF0.00055903856567689181
aF0.0094529703108109254
as(I9
g12
g3
(g5
S'\x00\x00\x00\x00\x00\x00\x00\x00'
tRp524
g2
I1
tp525
(lp526
F-0.030552816059558823
aF0
aF-0.029946370036135563
aF0
aF-0.025055511373004394
aF0
aF-0.0054828943694849855
aF0
aF-0.038668089504048278
aF-0.10368773132369287
aF0
aF0.00051005261881508922
aF-0.023836370467592936
aF0
aF-0.038734689041569709
aF-0.067818973166036772
aF0
aF4.1745497064062524e-06
aF-0.0020935081195297741
aF0
as(I6
g2
g3
(g5
S'\x01\x00\x00\x00\x00\x00\x00\x00'
tRp527
g2
I0
tp528
(lp529
F0
aF-0.17950317685780912
aF0
aF-0.19056310756873673
aF0
aF-0.22722785877092705
aF0
aF-0.24648704599320051
aF0
aF-0.00033194689832827338
aF-0.47346901456318935
aF0
aF-0.1390495883083489
aF-0.48689126337369881
aF0
aF0.01852211410874649
aF-0.15120042887693905
aF0
aF-0.082629262099528408
aF-0.21249037158939538
as(I0
g2
g3
(g5
S'\x04\x00\x00\x00\x00\x00\x00\x00'
tRp530
g2
I1
tp531
(lp532
F0
aF0.033863542190781741
aF0
aF0.021255231487874199
aF0
aF-0.028752625198138579
aF0
aF-0.1199175668815789
aF0
aF-0.031265270222567608
aF0.097065501526471559
aF0
aF-0.01952523992140406
aF-0.27333832852772061
aF0
aF-0.0064074618508713158
aF0.28285654299092783
aF0
aF-0.00084670764593345509
aF-0.10651505012232773
as(I0
g2
g3
(g5
S'\x07\x00\x00\x00\x00\x00\x00\x00'
tRp533
g2
I0
tp534
(lp535
F0
aF0.10393068693612027
aF0
aF0.10417504543641107
aF0
aF0.10409400923242144
aF0
aF0.089305985831450163
aF0
aF0.06683150115661679
aF0.22645282867550431
aF0
aF0.13101943271852232
aF0.2478917896938852
aF0
aF0.011084749103168817
aF-0.075014562291728037
aF0
aF0.052091125763235671
aF0.010734591643092491
as(I2
g2
g3
(g5
S'\x00\x00\x00\x00\x00\x00\x00\x00'
tRp536
g2
I0
tp537
(lp538
F0
aF0
aF0
aF0
aF0
aF0
aF0
aF0
aF0
aF0.038480501378185768
aF-0.1734765377870319
aF0
aF0.012682980983501438
aF0.038541384472493487
aF0
aF0.013728506223322324
aF-0.19982039278325209
aF0
aF-0.0010711037687689672
aF0.018392744857928783
as(I1
g2
g3
(g5
S'\x05\x00\x00\x00\x00\x00\x00\x00'
tRp539
g2
I0
tp540
(lp541
F0
aF-0.2393727520825609
aF0
aF-0.24484465966656357
aF0
aF-0.25910706041040193
aF0
aF-0.227852173402908
aF0
aF-0.42100534717798882
aF-0.654141660066766
aF0
aF-0.17674139365647262
aF-0.49701775537288295
aF0
aF-0.21852827602031613
aF-0.2275633288436292
aF0
aF-0.02439242504643592
aF-0.15019875759410523
as(I4
g2
I4
g2
I2
tp542
(lp543
F0.41623330667536423
aF-0.11731473864848377
aF0.38827492499249222
aF-0.12526021005700344
aF0.28655867041081384
aF-0.15631611104528356
aF0.096172182735534295
aF-0.2095323685591845
aF0.067169182379525183
aF0.59800634468379854
aF-0.22822112616310045
aF0.0051945877820758404
aF0.22301419596704602
aF-0.33199536404991636
aF0.054897571803166116
aF0.35989615204946912
aF-0.095320209588357047
aF2.1626467512451023e-05
aF0.053381065448979491
aF-0.22643325990136459
as(I8
g12
g3
(g5
S'\t\x00\x00\x00\x00\x00\x00\x00'
tRp544
g12
I0
tp545
(lp546
F0.21075448375875902
aF0
aF0.214091180825115
aF0
aF0.22341961172517666
aF0
aF0.19907705919573246
aF0
aF0.020396957361660847
aF0.61945441636742948
aF0
aF0.012219603788860793
aF0.28136434814888495
aF0
aF0.027495083892394072
aF0.31224869880421607
aF0
aF0.014389588406549752
aF0.042372255720936558
aF0
as(I2
g2
g3
(g5
S'\x07\x00\x00\x00\x00\x00\x00\x00'
tRp547
g2
I2
tp548
(lp549
F0
aF0.27566281038295454
aF0
aF0.27545636973610571
aF0
aF0.27009404856610869
aF0
aF0.20682083820858321
aF0
aF0.17065949601614577
aF0.95631144139672086
aF0
aF0.30654045019528198
aF0.38776548948085465
aF0
aF0.055289910373698528
aF0.52595240203588944
aF0
aF0.19374570169222771
aF0.075654409928110775
as(I4
g2
g3
(g5
S'\x05\x00\x00\x00\x00\x00\x00\x00'
tRp550
g2
I0
tp551
(lp552
F0
aF0.019896972205019504
aF0
aF0.024516050932681943
aF0
aF0.041375473817173637
aF0
aF0.052626628528322734
aF0
aF0.15032577128494282
aF0.17926770833779193
aF0
aF0.051710397952889293
aF0.16133328283407455
aF0
aF0.047994209624508323
aF0.019955656775489137
aF0
aF-0.0093670192661546876
aF0.050784199074915229
as(I7
g2
g3
(g5
S'\x02\x00\x00\x00\x00\x00\x00\x00'
tRp553
g2
I0
tp554
(lp555
F0
aF-0.10650442189279596
aF0
aF-0.10642466197988909
aF0
aF-0.10435288844097521
aF0
aF-0.079906802728260534
aF0
aF-0.018371535313290041
aF-0.47652988011088998
aF0
aF-0.0079191324843189536
aF-0.18202178202725239
aF0
aF-0.0038904180166936218
aF-0.1782867083523596
aF0
aF-0.00017158048258609951
aF-0.01213481062418215
as(I5
g2
g3
(g5
S'\x07\x00\x00\x00\x00\x00\x00\x00'
tRp556
g2
I1
tp557
(lp558
F0
aF-0.0030022977586125488
aF0
aF-0.0020773713929613247
aF0
aF0.0023271210255506047
aF0
aF0.017866159522753638
aF0
aF0.12778287481131537
aF0.019261701466166733
aF0
aF-0.056627286732770489
aF0.018540278730680756
aF0
aF0.050884035279800052
aF0.0086204739389626316
aF0
aF-0.086780557859788651
aF0.012627483558327914
as(I2
g2
g3
(g5
S'\x01\x00\x00\x00\x00\x00\x00\x00'
tRp559
g2
I2
tp560
(lp561
F0
aF0.20587543502620742
aF0
aF0.18992089253743899
aF0
aF0.12957135404239176
aF0
aF0.019816079462724318
aF0
aF0.081100728889932527
aF0.52280237896209725
aF0
aF0.028558665111863779
aF0.064515942390557385
aF0
aF0.035005077812419544
aF0.40389291400782379
aF0
aF0.00074927115724498551
aF0.0017669944568873446
as(I5
g2
g3
(g5
S'\x06\x00\x00\x00\x00\x00\x00\x00'
tRp562
g2
I2
tp563
(lp564
F0
aF-0.10296506276029987
aF0
aF-0.096417152894873251
aF0
aF-0.070090708176953079
aF0
aF-0.013273977793862303
aF0
aF0.026058390777381361
aF-0.29708219667596164
aF0
aF-0.0048523533744161129
aF-0.042028419406128205
aF0
aF0.035126303914871107
aF-0.21833268778635084
aF0
aF-6.5220103847365456e-05
aF-0.0011719900334431234
as(I2
g2
g3
(g5
S'\x00\x00\x00\x00\x00\x00\x00\x00'
tRp565
g2
I2
tp566
(lp567
F0
aF0
aF0
aF0
aF0
aF0
aF0
aF0
aF0
aF0.12282099586923585
aF0.827619228665461
aF0
aF0.040210617011737067
aF-0.0073816944045534214
aF0
aF0.042760624377684762
aF0.67794889540463754
aF0
aF-0.0043534258350487898
aF-0.047683899664279453
as(I6
g2
g3
(g5
S'\x02\x00\x00\x00\x00\x00\x00\x00'
tRp568
g2
I2
tp569
(lp570
F0
aF-0.14100392486679189
aF0
aF-0.14114257461596655
aF0
aF-0.14104249191443236
aF0
aF-0.12672475328636604
aF0
aF0.047116363002320957
aF-0.16548936460153571
aF0
aF0.0067093310676637069
aF-0.19706548733470777
aF0
aF0.023337767706426284
aF-0.063140448400612531
aF0
aF-0.0030416299631051769
aF-0.077504097646221168
as(I3
g2
g3
(g5
S'\x04\x00\x00\x00\x00\x00\x00\x00'
tRp571
g2
I0
tp572
(lp573
F0
aF0.20745784298309808
aF0
aF0.21740636810687702
aF0
aF0.24803623039350212
aF0
aF0.25042333891356144
aF0
aF-0.009742444615803942
aF0.61021584292450382
aF0
aF0.050408321785904132
aF0.59227343422741652
aF0
aF-0.018309877699747165
aF0.25230170693418497
aF0
aF0.023897275876687663
aF0.25647588174595465
as(I9
g12
g3
(g5
S'\x04\x00\x00\x00\x00\x00\x00\x00'
tRp574
g2
I0
tp575
(lp576
F0.031368781161874623
aF0
aF0.03063976876627332
aF0
aF0.025193353281178991
aF0
aF0.0046984878495363452
aF0
aF-0.062054061540622596
aF0.10377932696657073
aF0
aF-0.0036892933813321952
aF0.012790883201197818
aF0
aF-0.052597619587348349
aF0.077361435760965269
aF0
aF1.6080149718445171e-06
aF0.00014004052774012519
aF0
as(I1
g2
I1
g2
I0
tp577
(lp578
F-0.29751835764429496
aF-0.0064841173970235158
aF-0.30290484395433953
aF-0.0063797804283905607
aF-0.31526681996222938
aF-0.0058318727600587088
aF-0.24819113573613463
aF0.014233906499889353
aF-0.21507276486155158
aF-1.014011744072888
aF0.13469059682112766
aF-0.076145059938227483
aF-0.62027823910304614
aF-0.02259134569612524
aF-0.076534844141515554
aF-0.29300123912512532
aF0.16624642985013335
aF-0.00093566706780430237
aF-0.051442074050462173
aF-0.0085752007357734351
as(I5
g2
g3
(g5
S'\t\x00\x00\x00\x00\x00\x00\x00'
tRp579
g12
I1
tp580
(lp581
F0
aF0.0012219512781024844
aF0
aF0.00068536453108056228
aF0
aF-0.0015519708790928122
aF0
aF-0.0058912480899864089
aF0
aF0.098017366674509193
aF0.0055307551529020253
aF0
aF-0.049921703650005006
aF-0.011758988293028237
aF0
aF0.092248363134106531
aF0.031847291898875987
aF0
aF-0.019952202100671328
aF0.0022698163484037815
as(I7
g2
g3
(g5
S'\x04\x00\x00\x00\x00\x00\x00\x00'
tRp582
g2
I1
tp583
(lp584
F0
aF-0.0035624726212591246
aF0
aF-0.0056859447174284761
aF0
aF-0.013699513357040208
aF0
aF-0.022586026717226041
aF0
aF-0.068359207538398081
aF-0.027258934110304053
aF0
aF0.014900638555131962
aF-0.046495600451913276
aF0
aF-0.09131725484819847
aF0.0045812059318447017
aF0
aF6.9934805003410189e-05
aF-0.018663651617961356
as(I5
g2
g3
(g5
S'\x00\x00\x00\x00\x00\x00\x00\x00'
tRp585
g2
I2
tp586
(lp587
F0
aF-0.21140609575995301
aF0
aF-0.20978837022222313
aF0
aF-0.20048781446575614
aF0
aF-0.14255556282852541
aF0
aF0.030787588216281893
aF-0.48972511404934999
aF0
aF-0.03031068699593658
aF-0.29937346534315346
aF0
aF0.086566390279213493
aF-0.23774950928924687
aF0
aF-0.00032033033040132448
aF-0.081576589187442136
as(I6
g2
g3
(g5
S'\x04\x00\x00\x00\x00\x00\x00\x00'
tRp588
g2
I1
tp589
(lp590
F0
aF0.0049170412874027514
aF0
aF0.0035170666437240317
aF0
aF-0.0033943450272777009
aF0
aF-0.031608626055666805
aF0
aF-0.028092407708033628
aF0.029123430695732217
aF0
aF-0.0072419222545416434
aF-0.061349906065073248
aF0
aF-0.0057544100376301695
aF0.034936015963161024
aF0
aF0.0053776975632877973
aF-0.028352416786165392
as(I2
g2
g3
(g5
S'\x05\x00\x00\x00\x00\x00\x00\x00'
tRp591
g2
I2
tp592
(lp593
F0
aF0.20973298030178705
aF0
aF0.20832812000367004
aF0
aF0.2007092759251283
aF0
aF0.15144107476176796
aF0
aF0.18253711663309011
aF0.74783387112640487
aF0
aF0.19754707090183835
aF0.31128888250152292
aF0
aF0.025573871970183955
aF0.48330974343384214
aF0
aF0.028924186714872499
aF0.10644286934281957
as(I3
g2
g3
(g5
S'\x07\x00\x00\x00\x00\x00\x00\x00'
tRp594
g2
I0
tp595
(lp596
F0
aF-0.13915565776746117
aF0
aF-0.14718819305223441
aF0
aF-0.16754732466750366
aF0
aF-0.12048278580879396
aF0
aF-0.33981765828327348
aF-0.45691446463836283
aF0
aF-0.18524933993884635
aF-0.25073122467649095
aF0
aF-0.12927177818768323
aF-0.21973749915377649
aF0
aF-0.032911787817492627
aF-0.052748008174005899
as(I3
g2
g3
(g5
S'\x00\x00\x00\x00\x00\x00\x00\x00'
tRp597
g2
I0
tp598
(lp599
F0
aF0.00023279891403012176
aF0
aF0.00024045860100972705
aF0
aF0.00024002296667079148
aF0
aF7.6433420710023126e-05
aF0
aF-0.062647551415697209
aF0.071568940897917391
aF0
aF-0.0099965782092649186
aF0.0015458839760501054
aF0
aF-0.03935629594024969
aF0.075625924386368171
aF0
aF0.00011623794665153287
aF-0.00017352239111647811
as(I8
g12
g3
(g5
S'\x00\x00\x00\x00\x00\x00\x00\x00'
tRp600
g2
I2
tp601
(lp602
F-0.24855209956485896
aF0
aF-0.24223808711297617
aF0
aF-0.21331556650124131
aF0
aF-0.099627076760375716
aF0
aF-0.03969847662802739
aF-0.99960274492278967
aF0
aF-0.0037036985134161278
aF-0.33023286070369273
aF0
aF-0.030658953917084918
aF-0.54193889316096766
aF0
aF-1.1917997605910342e-05
aF-0.024570774434679386
aF0
as(I8
g12
I8
g12
I2
tp603
(lp604
F0.072934606563442736
aF-1.7743018483091975
aF0.074089318356121037
aF-1.7245824050744847
aF0.077317555428073656
aF-1.5172897101966782
aF0.068893466602911624
aF-0.90452859895247328
aF0.0070586591266399148
aF-0.27579396318882043
aF-3.2666766340706221
aF0.0042287688442342649
aF-0.32126700367963534
aF-1.4799561616665109
aF0.0095150674394004105
aF-0.079236110525656808
aF-1.4957891246852772
aF0.0049797230897488136
aF-0.1098079031252667
aF-0.15435658849284278
as(I5
g2
g3
(g5
S'\x02\x00\x00\x00\x00\x00\x00\x00'
tRp605
g2
I0
tp606
(lp607
F0
aF-0.20107626522785468
aF0
aF-0.20256554419576453
aF0
aF-0.20328646773369288
aF0
aF-0.15864160774495781
aF0
aF-0.13227326960244568
aF-0.76417526461898444
aF0
aF0.0025094206162002515
aF-0.38071618994139012
aF0
aF-0.13992669213838241
aF-0.31440176622050459
aF0
aF-0.00015047059476646437
aF-0.058711193528649841
as(I5
g2
g3
(g5
S'\x04\x00\x00\x00\x00\x00\x00\x00'
tRp608
g2
I2
tp609
(lp610
F0
aF-0.046825549367236187
aF0
aF-0.045984656103250927
aF0
aF-0.041238168037587605
aF0
aF-0.018632571851425084
aF0
aF0.078738735098670881
aF-0.26547869346766584
aF0
aF-0.01581342381146773
aF-0.039141725056244733
aF0
aF0.10763845786887782
aF-0.18161941562183062
aF0
aF-6.8826662702667178e-05
aF-0.0039743260339744563
as(I6
g2
g3
(g5
S'\x02\x00\x00\x00\x00\x00\x00\x00'
tRp611
g2
I1
tp612
(lp613
F0
aF-0.03123886187984283
aF0
aF-0.019110960083017731
aF0
aF0.030663136343558332
aF0
aF0.13195444601919379
aF0
aF-0.0086042321749862215
aF-0.06622412261664562
aF0
aF0.015471185783815272
aF0.26468653847045376
aF0
aF-0.015483754826416084
aF-0.25380946389164549
aF0
aF0.0018496436584730406
aF0.044953707388755981
as(I9
g12
g3
(g5
S'\x06\x00\x00\x00\x00\x00\x00\x00'
tRp614
g2
I0
tp615
(lp616
F0.022337677406013487
aF0
aF0.023720657746387402
aF0
aF0.025957412274235189
aF0
aF0.010717453586186939
aF0
aF-0.050670814792658045
aF0.10414107368268791
aF0
aF-0.0040962395547681713
aF0.020641870340637185
aF0
aF-0.040364113873041625
aF0.056794507360152652
aF0
aF-3.9783481681903155e-06
aF0.00084824538091827313
aF0
as(I0
g2
g3
(g5
S'\x03\x00\x00\x00\x00\x00\x00\x00'
tRp617
g2
I1
tp618
(lp619
F0
aF-0.0039915350676842654
aF0
aF-0.0050053095416771887
aF0
aF-0.0073365426487372598
aF0
aF-0.0031925761356133937
aF0
aF-0.0062851461547425488
aF-0.020016248431143129
aF0
aF0.0010645815342202177
aF0.0034704287321572118
aF0
aF-0.0062715082815374881
aF-0.0256756192538256
aF0
aF4.2578158400552325e-06
aF-7.9879056223003533e-05
as(I8
g12
g3
(g5
S'\x01\x00\x00\x00\x00\x00\x00\x00'
tRp620
g2
I0
tp621
(lp622
F0.14774824499678063
aF0
aF0.15293309984321146
aF0
aF0.16545345608397516
aF0
aF0.11873586579027466
aF0
aF0.24319043749596647
aF0.45487891010159093
aF0
aF0.040070734795470256
aF0.27825550772238006
aF0
aF0.15478641532273721
aF0.18305243703799243
aF0
aF0.00020436621746278317
aF0.075732951372888727
aF0
as(I6
g2
g3
(g5
S'\t\x00\x00\x00\x00\x00\x00\x00'
tRp623
g12
I0
tp624
(lp625
F0
aF-0.022337677406013487
aF0
aF-0.023720657746387402
aF0
aF-0.025957412274235189
aF0
aF-0.010717453586186939
aF0
aF0.050118079238555657
aF-0.12903578929869133
aF0
aF0.010092271799874254
aF-0.035078533040427483
aF0
aF0.022990409082947205
aF-0.073435871648770731
aF0
aF-0.0018942187870691139
aF-0.0017247411051835163
as(I0
g2
g3
(g5
S'\x06\x00\x00\x00\x00\x00\x00\x00'
tRp626
g2
I1
tp627
(lp628
F0
aF-0.030481207300821725
aF0
aF-0.018502360576816035
aF0
aF0.03083902553972848
aF0
aF0.13189534175544021
aF0
aF-0.0016741169328139062
aF-0.042691525528969723
aF0
aF0.010385642210354012
aF0.28718379388979048
aF0
aF-0.010430059164432166
aF-0.21543380827982347
aF0
aF0.00087928776744524242
aF0.15582149000748294
as(I5
g2
g3
(g5
S'\x07\x00\x00\x00\x00\x00\x00\x00'
tRp629
g2
I0
tp630
(lp631
F0
aF-0.16348231606267039
aF0
aF-0.16669520874991994
aF0
aF-0.17589283807689943
aF0
aF-0.15100053878315134
aF0
aF-0.20397928474010013
aF-0.48918174900406974
aF0
aF-0.11678904698879461
aF-0.32446258998496452
aF0
aF-0.18860245716452786
aF-0.13742117283128485
aF0
aF-0.059233455592598343
aF-0.063023987884981758
as(I7
g2
g3
(g5
S'\x03\x00\x00\x00\x00\x00\x00\x00'
tRp632
g2
I2
tp633
(lp634
F0
aF-0.053682142918496788
aF0
aF-0.051564716691493109
aF0
aF-0.042800776238753765
aF0
aF-0.01827865166724639
aF0
aF0.12481213591043917
aF-0.28714424871244881
aF0
aF-0.026152357622572609
aF-0.035252503370907171
aF0
aF0.16359195915960412
aF-0.24280192868204553
aF0
aF-0.00036892821250190174
aF-0.0087396757603459829
as(I8
g12
I8
g12
I1
tp635
(lp636
F-0.027593636417892475
aF0.026563341362902476
aF-0.018834985498816709
aF0.023056437452816325
aF0.021033070563937634
aF0.018192813580073547
aF0.14222840319902189
aF0.070835869836046034
aF-0.016178311762835428
aF0.012115135091165491
aF0.047974596387042732
aF-0.0071517155283960668
aF0.23462379567106692
aF0.058740990164761926
aF-0.015179697094114469
aF-0.1295136284572565
aF0.08148084124732638
aF-0.0051327636552277282
aF0.078121650812870508
aF0.012657526934042786
as(I8
g12
g3
(g5
S'\x02\x00\x00\x00\x00\x00\x00\x00'
tRp637
g2
I2
tp638
(lp639
F-0.28465366280780213
aF0
aF-0.27065269847490681
aF0
aF-0.21151620044520786
aF0
aF-0.058016700347270356
aF0
aF-0.034652898372923881
aF-0.98732170475119874
aF0
aF-0.0075366456394830774
aF-0.22047205670954312
aF0
aF-0.020780603845510483
aF-0.6304620267305181
aF0
aF-0.00016297025216024933
aF-0.012878870672313787
aF0
as(I4
g2
g3
(g5
S'\x08\x00\x00\x00\x00\x00\x00\x00'
tRp640
g12
I2
tp641
(lp642
F0
aF0.20392144493314324
aF0
aF0.19721940835881357
aF0
aF0.17015411524644078
aF0
aF0.085464692555927188
aF0
aF0.023345371453366175
aF0.30674152228025331
aF0
aF0.048558448885031857
aF0.1887355494575102
aF0
aF0.0042962905389277665
aF0.094287725335104766
aF0
aF0.023162675952713156
aF0.017671935826687007
as(I9
g12
g3
(g5
S'\x02\x00\x00\x00\x00\x00\x00\x00'
tRp643
g2
I0
tp644
(lp645
F-0.089167719695475184
aF0
aF-0.082386551644885175
aF0
aF-0.056897635788317587
aF0
aF-0.0094395670924063806
aF0
aF-0.038698880903871087
aF-0.21689046017059976
aF0
aF-0.0041169803442025954
aF-0.051162908627091649
aF0
aF-0.029297222223868533
aF-0.14025448961341977
aF0
aF-1.2404739874789365e-05
aF-0.002406459102568466
aF0
as(I0
g2
g3
(g5
S'\x07\x00\x00\x00\x00\x00\x00\x00'
tRp646
g2
I1
tp647
(lp648
F0
aF-0.034747344499933858
aF0
aF-0.021894983148176977
aF0
aF0.027451790049747737
aF0
aF0.10733664482413992
aF0
aF-0.082945790026003843
aF0.044527816684190175
aF0
aF0.13457918885371672
aF0.19965197361051668
aF0
aF-0.035691138228013966
aF-0.13840782582132496
aF0
aF0.12238121470341019
aF0.029848811759503369
as(I8
g12
g3
(g5
S'\x05\x00\x00\x00\x00\x00\x00\x00'
tRp649
g2
I0
tp650
(lp651
F0.11742576095255126
aF0
aF0.11941753520476389
aF0
aF0.12805505360235486
aF0
aF0.15012016193832156
aF0
aF0.23519404139725009
aF0.17173408885899244
aF0
aF-0.0017531103147651293
aF0.40961703042370884
aF0
aF0.22190352453826129
aF-0.044879870662736625
aF0
aF-0.00082884411208818609
aF0.086607498964537927
aF0
as(I7
g2
g3
(g5
S'\t\x00\x00\x00\x00\x00\x00\x00'
tRp652
g12
I2
tp653
(lp654
F0
aF0.20655344677735402
aF0
aF0.20909617145494755
aF0
aF0.22209124880051639
aF0
aF0.25234559108724158
aF0
aF0.33274575073026119
aF0.081192431724289846
aF0
aF0.065530311477570422
aF0.20954302647742648
aF0
aF0.19308784932941173
aF-0.077401769569094711
aF0
aF0.00015927712055737326
aF0.023183513214430091
as(I0
g2
I0
g2
I0
tp655
(lp656
F0.1526181169583877
aF-0.086073212803208274
aF0.14446313671741787
aF-0.091995922118928417
aF0.11223725602665978
aF-0.11292254364033288
aF0.035526752229303175
aF-0.16040807297729326
aF0.050506807076201483
aF0.54676152156411595
aF-0.2851365450434391
aF0.0055127639358377436
aF0.11137496536212953
aF-0.20963817381102801
aF0.036915479304249384
aF0.338862443798714
aF-0.18575739874485228
aF6.765310697354521e-06
aF0.0042807556497971196
aF-0.088762695960928908
as(I8
g12
g3
(g5
S'\t\x00\x00\x00\x00\x00\x00\x00'
tRp657
g12
I1
tp658
(lp659
F-0.027593636417892475
aF0
aF-0.018834985498816709
aF0
aF0.021033070563937634
aF0
aF0.14222840319902189
aF0
aF-0.016178311762835448
aF0.13584557643960038
aF0
aF-0.0071517155283960677
aF0.11187059444286299
aF0
aF-0.015179697094114483
aF0.070346363498515987
aF0
aF-0.0051327636552277265
aF0.044080047328280206
aF0
as(I3
g2
g3
(g5
S'\x05\x00\x00\x00\x00\x00\x00\x00'
tRp660
g2
I1
tp661
(lp662
F0
aF-0.032392743904279937
aF0
aF-0.019958373642393369
aF0
aF0.030926381493537915
aF0
aF0.13829158189298582
aF0
aF-0.068803924644602138
aF-0.091445630059370578
aF0
aF0.16441640918559747
aF0.24531518522779958
aF0
aF-0.11546455357951826
aF-0.16796736177949514
aF0
aF0.050958274178554613
aF0.13515864254581364
as(I4
g2
g3
(g5
S'\t\x00\x00\x00\x00\x00\x00\x00'
tRp663
g12
I0
tp664
(lp665
F0
aF-0.03136878116187472
aF0
aF-0.030639768766273431
aF0
aF-0.025193353281179082
aF0
aF-0.0046984878495363661
aF0
aF0.06224846804555708
aF-0.11799387999351386
aF0
aF-0.0029372653180764923
aF-0.016387811727675641
aF0
aF0.058302487829941192
aF-0.095659281597771359
aF0
aF-0.00049467148044187706
aF-0.00099453977939779913
as(I4
g2
g3
(g5
S'\x00\x00\x00\x00\x00\x00\x00\x00'
tRp666
g2
I2
tp667
(lp668
F0
aF-0.17633744275477894
aF0
aF-0.17660344586635882
aF0
aF-0.17670619771885268
aF0
aF-0.15787791692636891
aF0
aF0.060421940984418762
aF-0.39279015982061194
aF0
aF-0.015817067692251649
aF-0.25953288427431315
aF0
aF0.052837699604391504
aF-0.23862274449467882
aF0
aF-0.0027138847812316846
aF-0.078061410934888109
as(I7
g2
I7
g2
I2
tp669
(lp670
F0.41584193351606752
aF-0.97098450034935568
aF0.42214800531034224
aF-0.96368963212206038
aF0.44687227416161979
aF-0.92385496933579625
aF0.4667531305567218
aF-0.6827983840584757
aF0.14822509656119073
aF0.23713483220555479
aF-1.7165420926276578
aF0.25778691259026132
aF0.21098977094274934
aF-1.1510402936033073
aF-0.073461175379896868
aF0.082897806128777451
aF-0.66489816665078794
aF0.032915939723616866
aF0.070615467953745306
aF-0.29369954741706272
as(I7
g2
g3
(g5
S'\x00\x00\x00\x00\x00\x00\x00\x00'
tRp671
g2
I0
tp672
(lp673
F0
aF-0.10393068693612027
aF0
aF-0.10417504543641107
aF0
aF-0.10409400923242144
aF0
aF-0.089305985831450163
aF0
aF-0.025057830625466234
aF-0.46874411659907156
aF0
aF-0.009225793963437031
aF-0.1967308569699231
aF0
aF-0.002135323390845966
aF-0.12021141470699734
aF0
aF-1.8930822218198532e-05
aF-0.0060384606663860035
as(I8
g12
g3
(g5
S'\x06\x00\x00\x00\x00\x00\x00\x00'
tRp674
g2
I2
tp675
(lp676
F-0.21699651943526749
aF0
aF-0.20373101952946532
aF0
aF-0.15149147778771446
aF0
aF-0.036114110027443934
aF0
aF-0.023962201188579332
aF-0.66693187310764657
aF0
aF-0.0036774111214170156
aF-0.14328009002278858
aF0
aF-0.016762224046722604
aF-0.43208399490134974
aF0
aF-8.3131953999629593e-05
aF-0.010250385820074759
aF0
as(I4
g2
g3
(g5
S'\x03\x00\x00\x00\x00\x00\x00\x00'
tRp677
g2
I2
tp678
(lp679
F0
aF0.064474519554064261
aF0
aF0.064193846032687074
aF0
aF0.062943685701131916
aF0
aF0.054866459904013329
aF0
aF0.05524492051356935
aF0.034136678573080032
aF0
aF0.054971317156948751
aF0.11683372132242514
aF0
aF0.028392972003748171
aF-0.047709264909800736
aF0
aF0.017742620787596426
aF0.045830250184130027
as(I2
g2
g3
(g5
S'\x04\x00\x00\x00\x00\x00\x00\x00'
tRp680
g2
I0
tp681
(lp682
F0
aF-0.2154801359707427
aF0
aF-0.21812522074216045
aF0
aF-0.22319984937637838
aF0
aF-0.18752053228662016
aF0
aF0.015832594446143471
aF-0.62573999244490253
aF0
aF-0.024884269277261659
aF-0.44694690245841234
aF0
aF0.014599563114730547
aF-0.26579719367026805
aF0
aF-0.0073631235574222881
aF-0.1254361177743161
as(I5
g2
g3
(g5
S'\x06\x00\x00\x00\x00\x00\x00\x00'
tRp683
g2
I1
tp684
(lp685
F0
aF-0.0013631146185679316
aF0
aF-0.0024099558460163178
aF0
aF-0.0053927290507377185
aF0
aF-0.0038335304891507979
aF0
aF0.016823326645751323
aF-0.011108641800835171
aF0
aF-0.0040606223375995003
aF-0.0069783180660323357
aF0
aF0.022074117444348659
aF0.0033937007696798905
aF0
aF-0.00011479982705881835
aF-0.00070579717066954933
as(I6
g2
g3
(g5
S'\x07\x00\x00\x00\x00\x00\x00\x00'
tRp686
g2
I2
tp687
(lp688
F0
aF0.13495491115085489
aF0
aF0.13293754322707368
aF0
aF0.1247089659581805
aF0
aF0.090254560225242281
aF0
aF0.11182238193456664
aF0.16117942003175609
aF0
aF0.16537065145742361
aF0.17807733819746688
aF0
aF0.016521470855316835
aF0.016331748394293646
aF0
aF0.052694697110637588
aF0.041933838723804899
as(I3
g2
g3
(g5
S'\x04\x00\x00\x00\x00\x00\x00\x00'
tRp689
g2
I1
tp690
(lp691
F0
aF-0.022397261792056339
aF0
aF-0.01122019975992164
aF0
aF0.035037974914107733
aF0
aF0.12985638788937981
aF0
aF0.015683017716068531
aF-0.11642261004695698
aF0
aF0.023315647548568238
aF0.27876051790672651
aF0
aF0.0078894563976949373
aF-0.19509366961570015
aF0
aF0.013384980464189148
aF0.15233183746265141
as(I5
g2
g3
(g5
S'\x06\x00\x00\x00\x00\x00\x00\x00'
tRp692
g2
I0
tp693
(lp694
F0
aF-0.028362793871149899
aF0
aF-0.03056713277678795
aF0
aF-0.035046724739393076
aF0
aF-0.016302107144706521
aF0
aF-0.072762365060660028
aF-0.22667566849028226
aF0
aF-0.0045604950523053973
aF-0.08038403432046079
aF0
aF-0.063887695096273622
aF-0.079937594485065711
aF0
aF-0.00015839532485176341
aF-0.005077977716744936
as(I4
g2
g3
(g5
S'\x01\x00\x00\x00\x00\x00\x00\x00'
tRp695
g2
I0
tp696
(lp697
F0
aF-0.21378328509174604
aF0
aF-0.22223992583771762
aF0
aF-0.24415891042429938
aF0
aF-0.19918826106530702
aF0
aF-0.0040258680446961514
aF-0.62696909293124536
aF0
aF-0.12788507546859806
aF-0.38810287908331087
aF0
aF0.028175081543009448
aF-0.28900335011837347
aF0
aF-0.067173426907809863
aF-0.11296280603047403
as(I5
g2
g3
(g5
S'\t\x00\x00\x00\x00\x00\x00\x00'
tRp698
g12
I0
tp699
(lp700
F0
aF0.057129574373528516
aF0
aF0.056866105762806533
aF0
aF0.054019723781663143
aF0
aF0.030149471943307957
aF0
aF-0.06648200575450415
aF0.23802750338252249
aF0
aF0.0272364581707202
aF0.050577256238753192
aF0
aF-0.11937601638846027
aF0.17582397948897985
aF0
aF0.0037108137235673834
aF0.0010754083227868124
as(I3
g2
g3
(g5
S'\x01\x00\x00\x00\x00\x00\x00\x00'
tRp701
g2
I1
tp702
(lp703
F0
aF0.013567779863949719
aF0
aF0.009737985742387878
aF0
aF-0.0091595333243544297
aF0
aF-0.086552859830083123
aF0
aF-0.046127587984188562
aF0.097239770235393208
aF0
aF-0.01246345426988105
aF-0.17538304169696672
aF0
aF-0.0092978851478159527
aF0.10647943115738598
aF0
aF0.0055985516631943269
aF-0.12247761590410569
as(I7
g2
g3
(g5
S'\x04\x00\x00\x00\x00\x00\x00\x00'
tRp704
g2
I0
tp705
(lp706
F0
aF-0.19835320496151435
aF0
aF-0.20659623268308772
aF0
aF-0.21960172909486378
aF0
aF-0.11756842314163334
aF0
aF-0.10206035241483649
aF-0.74017228009928249
aF0
aF-0.031535017155809704
aF-0.315019595861529
aF0
aF-0.044405903586803498
aF-0.33052468721043748
aF0
aF-0.00048089215680540049
aF-0.044546858086124227
as(I3
g2
g3
(g5
S'\x01\x00\x00\x00\x00\x00\x00\x00'
tRp707
g2
I0
tp708
(lp709
F0
aF-0.043326090182379401
aF0
aF-0.044479406972759393
aF0
aF-0.048384035431540073
aF0
aF-0.047707659734439176
aF0
aF-0.27493659377036789
aF-0.087408066388917613
aF0
aF-0.057018906883611553
aF-0.11250869395285794
aF0
aF-0.13907185814412024
aF-0.020254320994136901
aF0
aF0.010491933940520297
aF-0.034291717090080366
as(I6
g2
g3
(g5
S'\x04\x00\x00\x00\x00\x00\x00\x00'
tRp710
g2
I0
tp711
(lp712
F0
aF0.013655929089395176
aF0
aF0.01401285489964244
aF0
aF0.015200565800342647
aF0
aF0.014630956063797353
aF0
aF0.069600834313269244
aF0.23151145225313427
aF0
aF0.033350438686202223
aF0.012961141289509681
aF0
aF0.012489822999588646
aF0.19884810036973208
aF0
aF-0.0049221497905294256
aF0.0094235464824788118
as(I7
g2
g3
(g5
S'\x05\x00\x00\x00\x00\x00\x00\x00'
tRp713
g2
I2
tp714
(lp715
F0
aF-0.072276930964379815
aF0
aF-0.073697378316393572
aF0
aF-0.077763728952429403
aF0
aF-0.066758630413764106
aF0
aF0.37221068405370428
aF-0.68750448115098906
aF0
aF-0.11275226051086235
aF-0.099559189580792296
aF0
aF0.44998016507841909
aF-0.5476296315354392
aF0
aF-0.019451203206133385
aF-0.036777569655251349
as(I9
g12
g3
(g5
S'\x07\x00\x00\x00\x00\x00\x00\x00'
tRp716
g2
I1
tp717
(lp718
F0.010240570137835914
aF0
aF0.0076849211648015239
aF0
aF-0.0015783075843827897
aF0
aF-0.014777236763282174
aF0
aF-0.13219647444408991
aF0.0049806245346016879
aF0
aF0.063572082778049807
aF-0.032181821240185475
aF0
aF-0.14325736610002052
aF0.01947123930007312
aF0
aF0.0059185428840877836
aF-0.016812510250459153
aF0
as(I3
g2
g3
(g5
S'\x00\x00\x00\x00\x00\x00\x00\x00'
tRp719
g2
I1
tp720
(lp721
F0
aF0.0039915350676843903
aF0
aF0.0050053095416772997
aF0
aF0.007336542648737357
aF0
aF0.0031925761356134171
aF0
aF0.009504190789002798
aF0.014988262938232903
aF0
aF0.0033442630477649887
aF0.0033716734167735275
aF0
aF0.003081608205641849
aF0.016697970639716612
aF0
aF4.1549361018620317e-05
aF0.00097377779843701247
as(I8
g12
g3
(g5
S'\x00\x00\x00\x00\x00\x00\x00\x00'
tRp722
g2
I1
tp723
(lp724
F0.0079897075580527208
aF0
aF0.012498432101581886
aF0
aF0.024671943969776934
aF0
aF0.019204408316793337
aF0
aF0.025418383479144168
aF0.12047607145669774
aF0
aF-0.00305529858986049
aF0.066937347023021967
aF0
aF0.031223167788116103
aF0.057580936075347006
aF0
aF-1.6177410677390045e-05
aF0.00536178106821672
aF0
as(I1
g2
g3
(g5
S'\x06\x00\x00\x00\x00\x00\x00\x00'
tRp725
g2
I0
tp726
(lp727
F0
aF0.17950317685780912
aF0
aF0.19056310756873673
aF0
aF0.22722785877092705
aF0
aF0.24648704599320051
aF0
aF0.00042499334676143752
aF0.50838623627879598
aF0
aF0.020428099379545931
aF0.63336716254038183
aF0
aF-0.011671618544480148
aF0.14648031825730914
aF0
aF0.0036395837212313811
aF0.28360659586801573
as(I1
g2
g3
(g5
S'\x07\x00\x00\x00\x00\x00\x00\x00'
tRp728
g2
I1
tp729
(lp730
F0
aF-0.0024898190066807192
aF0
aF0.0065250451051931842
aF0
aF0.036835639272417384
aF0
aF0.061617558315429984
aF0
aF0.016103862663819982
aF0.05355558632123382
aF0
aF0.067430930529263827
aF0.12628192379309128
aF0
aF-0.0065314694633653581
aF-0.051997996760295068
aF0
aF0.015082092481450484
aF0.023697612633738409
as(I6
g2
g3
(g5
S'\x05\x00\x00\x00\x00\x00\x00\x00'
tRp731
g2
I2
tp732
(lp733
F0
aF0.10296506276029986
aF0
aF0.096417152894873223
aF0
aF0.070090708176953051
aF0
aF0.013273977793862295
aF0
aF0.1013065327107134
aF0.22948889767091818
aF0
aF0.034316363130110439
aF0.039355000895878414
aF0
aF0.042896294256432099
aF0.16278614032395386
aF0
aF0.00061556327115882398
aF0.0023862587278419283
as(I4
g2
g3
(g5
S'\x06\x00\x00\x00\x00\x00\x00\x00'
tRp734
g2
I2
tp735
(lp736
F0
aF-0.056491247792286932
aF0
aF-0.057967762810646181
aF0
aF-0.062881033109417742
aF0
aF-0.060524696564212027
aF0
aF0.088517803324704367
aF-0.24032603493137633
aF0
aF0.0092213360041162144
aF-0.084436897224743693
aF0
aF0.06618623940413787
aF-0.22520795566926391
aF0
aF0.000142287031008334
aF-0.054370259925926687
as(I3
g2
g3
(g5
S'\x08\x00\x00\x00\x00\x00\x00\x00'
tRp737
g12
I0
tp738
(lp739
F0
aF-0.15061665585157122
aF0
aF-0.15279756376047623
aF0
aF-0.1497312412799966
aF0
aF-0.067964955744556493
aF0
aF-0.19475847184467374
aF-0.61821038370546533
aF0
aF-0.059804382071085203
aF-0.15071085649259186
aF0
aF-0.12016761940300889
aF-0.40467090117652349
aF0
aF-0.0079889113402857176
aF-0.014046558988555414
as(I7
g2
g3
(g5
S'\x03\x00\x00\x00\x00\x00\x00\x00'
tRp740
g2
I0
tp741
(lp742
F0
aF0.13915565776746147
aF0
aF0.14718819305223463
aF0
aF0.16754732466750386
aF0
aF0.120482785808794
aF0
aF0.3320760597920755
aF0.4338217238211507
aF0
aF0.044861750578490525
aF0.2435861602229738
aF0
aF0.24387735832062127
aF0.18998330910231662
aF0
aF0.0011370825101905725
aF0.065052415920510906
as(I4
g2
g3
(g5
S'\x05\x00\x00\x00\x00\x00\x00\x00'
tRp743
g2
I2
tp744
(lp745
F0
aF0.046825549367236187
aF0
aF0.045984656103250934
aF0
aF0.041238168037587619
aF0
aF0.018632571851425094
aF0
aF0.1413725440753705
aF0.018536796852639086
aF0
aF0.044837835766513484
aF0.060493043738073925
aF0
aF0.064956062668085929
aF-0.061913155004590076
aF0
aF0.0025011648805342221
aF0.0066784557789232807
as(I9
g12
g3
(g5
S'\x06\x00\x00\x00\x00\x00\x00\x00'
tRp746
g2
I1
tp747
(lp748
F0.0032282891624077319
aF0
aF0.0030090761715690626
aF0
aF0.0021452015088360503
aF0
aF0.0003807028438085698
aF0
aF-0.0058906551031417129
aF0.0059860818329478625
aF0
aF0.0011658283323440623
aF0.00044916634497649727
aF0
aF-0.0087175671564941569
aF0.0031953841515330213
aF0
aF-2.1565774222244877e-06
aF0.00023851984228404438
aF0
as(I0
g2
g3
(g5
S'\x03\x00\x00\x00\x00\x00\x00\x00'
tRp749
g2
I2
tp750
(lp751
F0
aF0.20639459384000464
aF0
aF0.18989625086341166
aF0
aF0.12760872433112533
aF0
aF0.017320947084922319
aF0
aF0.065690493314445236
aF0.51029842350771015
aF0
aF0.012970643166553001
aF0.054907799946052195
aF0
aF0.040270001695257164
aF0.41000241512324043
aF0
aF0.00028992688643476123
aF0.0012646606349771927
as(I8
g12
g3
(g5
S'\x01\x00\x00\x00\x00\x00\x00\x00'
tRp752
g2
I1
tp753
(lp754
F0.011748063751207551
aF0
aF0.018681364373855709
aF0
aF0.040900164449133393
aF0
aF0.046529975036170762
aF0
aF0.10651926091366595
aF0.090157511486627845
aF0
aF-0.010715848565234734
aF0.11843432170415918
aF0
aF0.10809948335326953
aF-0.0033055639797660067
aF0
aF-0.00045719545741657681
aF0.028424414450040941
aF0
as(I4
g2
g3
(g5
S'\x06\x00\x00\x00\x00\x00\x00\x00'
tRp755
g2
I1
tp756
(lp757
F0
aF-0.0049170412874027514
aF0
aF-0.0035170666437240317
aF0
aF0.0033943450272777009
aF0
aF0.031608626055666805
aF0
aF0.03364540397804499
aF-0.026107568982523803
aF0
aF0.0025697804745447974
aF0.058017460631430401
aF0
aF0.016597171697252527
aF-0.040753385620729082
aF0
aF-0.0027189401879203481
aF0.03279843494217536
as(I0
g2
g3
(g5
S'\t\x00\x00\x00\x00\x00\x00\x00'
tRp758
g12
I2
tp759
(lp760
F0
aF0.15576801302464921
aF0
aF0.14426956159859503
aF0
aF0.10064133346341839
aF0
aF0.017224501515602609
aF0
aF0.10356949732438446
aF0.39965571928292587
aF0
aF0.020392777207772786
aF0.05543519649132219
aF0
aF0.061802965537275961
aF0.30001128183936338
aF0
aF0.00030177399739210003
aF0.001411084370438658
as(I9
g12
g3
(g5
S'\x03\x00\x00\x00\x00\x00\x00\x00'
tRp761
g2
I1
tp762
(lp763
F-0.020789109932136535
aF0
aF-0.01030506510064777
aF0
aF0.028804745494553502
aF0
aF0.077500675995997623
aF0
aF0.0028387551423961488
aF-0.055725767990410464
aF0
aF0.0092971311041429149
aF0.21687518055338886
aF0
aF-0.029488719020799789
aF-0.18889852882414368
aF0
aF-0.0010905988878986987
aF0.064958528996265821
aF0
as(I0
g2
g3
(g5
S'\x06\x00\x00\x00\x00\x00\x00\x00'
tRp764
g2
I0
tp765
(lp766
F0
aF-0.21254112410544396
aF0
aF-0.21859379318973321
aF0
aF-0.23573058116124082
aF0
aF-0.22295587145750081
aF0
aF0.0032193282797857332
aF-0.57224909909439126
aF0
aF-0.010200521115166476
aF-0.55120326136417086
aF0
aF0.011424074973643696
aF-0.19816331164294224
aF0
aF-0.00074548892371252117
aF-0.20933705981165146
as(I8
g12
g3
(g5
S'\x04\x00\x00\x00\x00\x00\x00\x00'
tRp767
g2
I1
tp768
(lp769
F-0.010616456457164664
aF0
aF-0.014538993488624931
aF0
aF-0.025145137866453567
aF0
aF-0.020589446836851495
aF0
aF0.00073655033361109349
aF-0.039651676361668893
aF0
aF-0.00069344457588085395
aF-0.07800655178844848
aF0
aF0.0037228593351452798
aF0.018908113509522827
aF0
aF1.8133497253032465e-05
aF-0.015154270376163237
aF0
as(I1
g2
g3
(g5
S'\x02\x00\x00\x00\x00\x00\x00\x00'
tRp770
g2
I0
tp771
(lp772
F0
aF-0.042640476140001562
aF0
aF-0.043891948956130675
aF0
aF-0.043587658731976897
aF0
aF-0.0146513245038008
aF0
aF-0.081138447266949354
aF-0.11466610288169884
aF0
aF-0.0093346865173798994
aF-0.045156929569925064
aF0
aF-0.060567502812760937
aF-0.037354039944877827
aF0
aF-0.00015153816856018247
aF-0.0030478588836497854
as(I6
g2
g3
(g5
S'\x01\x00\x00\x00\x00\x00\x00\x00'
tRp773
g2
I2
tp774
(lp775
F0
aF0.10680685842941623
aF0
aF0.10580456983174555
aF0
aF0.10218509717180502
aF0
aF0.088433563014560582
aF0
aF0.065729529609246551
aF0.28728241040898844
aF0
aF0.083522695687051535
aF0.13810890068338738
aF0
aF0.017996720692794056
aF0.18238044458185304
aF0
aF0.020838325262444949
aF0.073998657229220999
as(I8
g12
I8
g12
I0
tp776
(lp777
F0.21075448375875902
aF-0.015824758286139762
aF0.214091180825115
aF-0.0025315985581807914
aF0.22341961172517666
aF0.048804744290743218
aF0.19907705919573246
aF0.14763932761229109
aF0.020396957361660809
aF0.44924571237061206
aF-0.0094214745994955496
aF0.012219603788860799
aF0.46199663959070475
aF0.051381047336363075
aF0.027495083892394037
aF0.11635577445430798
aF-0.068316762075487356
aF0.014389588406549763
aF0.12800444884292012
aF0.0087537434413906927
as(I3
g2
g3
(g5
S'\x06\x00\x00\x00\x00\x00\x00\x00'
tRp778
g2
I2
tp779
(lp780
F0
aF-0.1092802356524077
aF0
aF-0.10884378528875172
aF0
aF-0.10641387387938279
aF0
aF-0.08786083198754574
aF0
aF0.039628497338520842
aF-0.27615981487809521
aF0
aF-0.0024176479044496404
aF-0.21019527257351972
aF0
aF0.043624614042775692
aF-0.1446457370541398
aF0
aF0.00039407604723400044
aF-0.096265359530626496
as(I2
g2
g3
(g5
S'\x06\x00\x00\x00\x00\x00\x00\x00'
tRp781
g2
I2
tp782
(lp783
F0
aF0.14100392486679186
aF0
aF0.14114257461596649
aF0
aF0.14104249191443233
aF0
aF0.12672475328636601
aF0
aF0.09083229628318229
aF0.69853817977105059
aF0
aF0.025631438993779371
aF0.26292854545713057
aF0
aF0.046056820113232894
aF0.4721076297086107
aF0
aF0.00028065560524276394
aF0.11205692246637776
as(I4
g2
g3
(g5
S'\x08\x00\x00\x00\x00\x00\x00\x00'
tRp784
g12
I1
tp785
(lp786
F0
aF0.010616456457164664
aF0
aF0.014538993488624932
aF0
aF0.025145137866453567
aF0
aF0.020589446836851492
aF0
aF-0.00037636930065360064
aF0.13098281859704655
aF0
aF0.015243479297635323
aF0.036202647074013841
aF0
aF-0.0014828817489945215
aF0.073803499008643525
aF0
aF0.0075207900851148902
aF0.0014739112174290663
as(I1
g2
g3
(g5
S'\x08\x00\x00\x00\x00\x00\x00\x00'
tRp787
g12
I2
tp788
(lp789
F0
aF0.19142983206345321
aF0
aF0.18478610303919873
aF0
aF0.15795816178804922
aF0
aF0.079904652681282273
aF0
aF0.2418711208891261
aF0.25062279923991709
aF0
aF0.030333698475305176
aF0.13810822621619331
aF0
aF0.17381557685859816
aF0.061222798544957643
aF0
aF0.0015339966842507111
aF0.0086312080808219373
as(I9
g12
g3
(g5
S'\x02\x00\x00\x00\x00\x00\x00\x00'
tRp790
g2
I1
tp791
(lp792
F0.02912165006675509
aF0
aF0.028766168558278592
aF0
aF0.024599712139524974
aF0
aF0.005476089942332423
aF0
aF0.016832874402041408
aF0.095726102939099125
aF0
aF0.0031794367297304431
aF0.024384386020816537
aF0
aF0.0084422618923298259
aF0.057807688520968292
aF0
aF-1.6360120742952816e-05
aF0.0020395913468689393
aF0
as(I0
g2
g3
(g5
S'\x07\x00\x00\x00\x00\x00\x00\x00'
tRp793
g2
I2
tp794
(lp795
F0
aF0.26900127465768475
aF0
aF0.26963374183354455
aF0
aF0.26942399779346116
aF0
aF0.23114851572170333
aF0
aF0.2162418502513144
aF0.95892730198451848
aF0
aF0.31068326693199233
aF0.3919891818025098
aF0
aF0.048146656568295899
aF0.52389129093143705
aF0
aF0.14062766090382642
aF0.071866778275303897
as(I8
g12
g3
(g5
S'\x05\x00\x00\x00\x00\x00\x00\x00'
tRp796
g2
I1
tp797
(lp798
F0.053590993280934085
aF0
aF0.039720744879735564
aF0
aF-0.012830272088219255
aF0
aF-0.1073527168896974
aF0
aF0.056787771763287115
aF0.25784569751260095
aF0
aF-0.045182846236308874
aF-0.38156139147795981
aF0
aF0.17613515813408928
aF0.43201348511822985
aF0
aF0.0077747602215818912
aF-0.063855168080261579
aF0
as(I5
g2
g3
(g5
S'\x04\x00\x00\x00\x00\x00\x00\x00'
tRp799
g2
I1
tp800
(lp801
F0
aF0.022429380276502514
aF0
aF0.02203079023916564
aF0
aF0.019767802937954073
aF0
aF0.008936025177853921
aF0
aF0.043760941209013256
aF0.072063947134996489
aF0
aF-0.0039245215106837213
aF0.021942604792907994
aF0
aF0.049911574194214881
aF0.034113986243347119
aF0
aF-2.274284643095955e-05
aF0.00071917360811289536
as(I3
g2
g3
(g5
S'\x05\x00\x00\x00\x00\x00\x00\x00'
tRp802
g2
I0
tp803
(lp804
F0
aF-0.20123221391611656
aF0
aF-0.21237973514049929
aF0
aF-0.24951640655061857
aF0
aF-0.28470917778861032
aF0
aF-0.28485221981582681
aF-0.50856412789386884
aF0
aF-0.29389471013703755
aF-0.61106293272375944
aF0
aF-0.12242166513870466
aF-0.14912838369550263
aF0
aF-0.11326757627711879
aF-0.24480395384060918
as(I2
g2
g3
(g5
S'\x07\x00\x00\x00\x00\x00\x00\x00'
tRp805
g2
I0
tp806
(lp807
F0
aF0.10650442189279596
aF0
aF0.10642466197988909
aF0
aF0.10435288844097521
aF0
aF0.079906802728260534
aF0
aF0.057617605458941006
aF0.23837200970718098
aF0
aF0.12218827864748859
aF0.23397147458688775
aF0
aF0.014338596270293614
aF-0.031243411792476437
aF0
aF0.071617708036471883
aF0.016138792968127483
as(I4
g2
g3
(g5
S'\t\x00\x00\x00\x00\x00\x00\x00'
tRp808
g12
I1
tp809
(lp810
F0
aF0.0067416492778719569
aF0
aF0.0070430337386157837
aF0
aF0.0069464581072735572
aF0
aF0.0016383524897031743
aF0
aF0.016075687318691075
aF0.028818364441982887
aF0
aF0.0017365694950411562
aF0.0042420410022798527
aF0
aF0.012878895432331438
aF0.022900024397036339
aF0
aF0.0001685312248864968
aF0.00027759590890323713
as(I8
g12
g3
(g5
S'\x04\x00\x00\x00\x00\x00\x00\x00'
tRp811
g2
I2
tp812
(lp813
F-0.20392144493314324
aF0
aF-0.19721940835881357
aF0
aF-0.17015411524644078
aF0
aF-0.085464692555927188
aF0
aF-0.017595543359770194
aF-0.76055888151873474
aF0
aF-0.0010165346678456114
aF-0.27325071105426535
aF0
aF-0.015356568382219618
aF-0.44240356383314033
aF0
aF-8.2430322979936309e-06
aF-0.042852226877685293
aF0
as(I7
g2
I7
g2
I0
tp814
(lp815
F0.17274380856513977
aF-0.075455619406131255
aF0.1749276222649632
aF-0.074741004270234362
aF0.18572619422242173
aF-0.063425928917069552
aF0.20904792462938523
aF-0.0012718351811090468
aF0.075942564360448037
aF0.43751730902951641
aF-0.47666696995135716
aF0.11246618446990025
aF0.5366336766756189
aF-0.10751981812740356
aF-0.02988369696506421
aF-0.055324435345495769
aF-0.068628541508794605
aF0.0082367321373140092
aF0.074064386365313872
aF0.077424712937180423
as(I7
g2
I7
g2
I1
tp816
(lp817
F0.022616195285366542
aF0.010752613015583563
aF0.015106253662111449
aF0.0096504016888626504
aF-0.02160098239375189
aF0.0019256496435078804
aF-0.15223464088085992
aF-0.033136170568055942
aF-0.016194910965149946
aF0.12568964937799551
aF0.016220608126754531
aF-0.033819874549343813
aF-0.37702040819154597
aF-0.029843090619489983
aF0.02838240779216232
aF0.24379690545983104
aF0.03431635949813016
aF0.0052151307884802474
aF-0.14350099084095524
aF-0.0092502481397165829
as(I3
g2
g3
(g5
S'\x02\x00\x00\x00\x00\x00\x00\x00'
tRp818
g2
I2
tp819
(lp820
F0
aF-0.17618830881761782
aF0
aF-0.16964927035495608
aF0
aF-0.13934180661226475
aF0
aF-0.042886458468401667
aF0
aF0.0054243199398278322
aF-0.36877944972764681
aF0
aF-0.0057944003301494181
aF-0.1292740184500269
aF0
aF0.012100574219945219
aF-0.19520059789596439
aF0
aF-0.00029024896329420016
aF-0.0133710080632368
as(I5
g2
g3
(g5
S'\x01\x00\x00\x00\x00\x00\x00\x00'
tRp821
g2
I2
tp822
(lp823
F0
aF0.010416672950079447
aF0
aF0.010493652325425427
aF0
aF0.010645011561401005
aF0
aF0.0090622379199236137
aF0
aF0.35323297075339333
aF-0.085090958344439402
aF0
aF-0.025389443644048267
aF-0.0064704748333480099
aF0
aF0.31466233307791291
aF-0.077715919961184404
aF0
aF-0.015407519082033286
aF0.014582725715338005
as(I3
g2
g3
(g5
S'\t\x00\x00\x00\x00\x00\x00\x00'
tRp824
g12
I0
tp825
(lp826
F0
aF-0.18017476548392705
aF0
aF-0.17822114202965497
aF0
aF-0.16707177710219723
aF0
aF-0.10573259679982155
aF0
aF-0.16230584258424033
aF-0.62218050483493381
aF0
aF-0.091764792084709904
aF-0.14638379165461005
aF0
aF-0.074917976637937478
aF-0.35224239968921456
aF0
aF-0.023553631357400621
aF-0.00025747451872078355
as(I8
g12
g3
(g5
S'\x05\x00\x00\x00\x00\x00\x00\x00'
tRp827
g2
I2
tp828
(lp829
F-0.22421519233771237
aF0
aF-0.22801832755634302
aF0
aF-0.24451098498624843
aF0
aF-0.28664256215780559
aF0
aF-0.077788058177442942
aF-0.99332308038377071
aF0
aF-0.056116887316547015
aF-0.73840674447029186
aF0
aF-0.030984337745722075
aF-0.42817876189473325
aF0
aF-0.0076038192610713142
aF-0.21464158029859476
aF0
as(I3
g2
g3
(g5
S'\x04\x00\x00\x00\x00\x00\x00\x00'
tRp830
g2
I2
tp831
(lp832
F0
aF-0.064474519554064247
aF0
aF-0.064193846032687074
aF0
aF-0.062943685701131902
aF0
aF-0.054866459904013301
aF0
aF0.039587883061602193
aF-0.2702050775900659
aF0
aF0.0079611486208279719
aF-0.1409333430346518
aF0
aF0.035758159076487439
aF-0.16329823926792283
aF0
aF-0.001997739376035864
aF-0.032976090670047954
as(I2
g2
g3
(g5
S'\x04\x00\x00\x00\x00\x00\x00\x00'
tRp833
g2
I2
tp834
(lp835
F0
aF0.17844580805747173
aF0
aF0.17849408525722887
aF0
aF0.17657758860837353
aF0
aF0.14447043460409506
aF0
aF0.11324089374881982
aF0.74976440974726177
aF0
aF0.047307506403290379
aF0.29056660034063903
aF0
aF0.034815516794315882
aF0.50023338823853836
aF0
aF-0.0011929246445518671
aF0.10086609155565253
as(I4
g2
g3
(g5
S'\x05\x00\x00\x00\x00\x00\x00\x00'
tRp836
g2
I1
tp837
(lp838
F0
aF-0.022429380276502524
aF0
aF-0.022030790239165644
aF0
aF-0.019767802937954077
aF0
aF-0.0089360251778539245
aF0
aF0.02171937729698567
aF-0.062357450005346489
aF0
aF-0.0086479358604385249
aF-0.018441720959808124
aF0
aF0.017478696890895495
aF-0.04227948878058669
aF0
aF-0.0027118971022151972
aF-0.0036629842343489901
as(I9
g12
g3
(g5
S'\x07\x00\x00\x00\x00\x00\x00\x00'
tRp839
g2
I2
tp840
(lp841
F-0.20655344677735407
aF0
aF-0.20909617145494758
aF0
aF-0.22209124880051642
aF0
aF-0.25234559108724158
aF0
aF-0.16884057728879598
aF-0.80119352512528674
aF0
aF-0.11879696665888555
aF-0.61394647665486535
aF0
aF-0.027687096750370562
aF-0.37897853694168004
aF0
aF-0.0059901508024246247
aF-0.30497412664146667
aF0
as(I7
g2
g3
(g5
S'\x06\x00\x00\x00\x00\x00\x00\x00'
tRp842
g2
I1
tp843
(lp844
F0
aF-0.010570980568937004
aF0
aF-0.0068014471444671435
aF0
aF0.0046581549330156156
aF0
aF0.011946586392831143
aF0
aF-0.028889738297632524
aF-0.0068150253777506352
aF0
aF0.0098398563344403393
aF0.042709080032899034
aF0
aF-0.052683754534548641
aF-0.037943150760272791
aF0
aF-5.5061100942424599e-05
aF0.0065107279119259558
as(I9
g12
g3
(g5
S'\x04\x00\x00\x00\x00\x00\x00\x00'
tRp845
g2
I2
tp846
(lp847
F-0.21231186174222103
aF0
aF-0.19105551663367865
aF0
aF-0.11640455516437306
aF0
aF-0.010707490179607119
aF0
aF-0.049573639019754992
aF-0.39664679083953724
aF0
aF-0.0041780531142302287
aF-0.050595234806325794
aF0
aF-0.039541003420946498
aF-0.30063535681024828
aF0
aF-1.3383435214457392e-05
aF-0.00084413182912232096
aF0
as(I0
g2
g3
(g5
S'\x01\x00\x00\x00\x00\x00\x00\x00'
tRp848
g2
I2
tp849
(lp850
F0
aF0.17543228218814366
aF0
aF0.16888689157925615
aF0
aF0.13880309924645184
aF0
aF0.043953505008268424
aF0
aF0.12899706710224998
aF0.57402577316406056
aF0
aF0.043018383524583564
aF0.09767039508791038
aF0
aF0.059981571138741988
aF0.42915075063431074
aF0
aF0.0012188697482117046
aF0.010843404669336261
as(I5
g2
g3
(g5
S'\x00\x00\x00\x00\x00\x00\x00\x00'
tRp851
g2
I0
tp852
(lp853
F0
aF-0.20756429504742252
aF0
aF-0.20812062550841726
aF0
aF-0.20494431780057415
aF0
aF-0.14937808079573303
aF0
aF-0.14806252538513429
aF-0.78748931673699119
aF0
aF-0.0036914756519634681
aF-0.36440339491253654
aF0
aF-0.13769193757782025
aF-0.33552837211207509
aF0
aF-0.00014375080894395647
aF-0.055391450626317562
as(I4
g2
g3
(g5
S'\x06\x00\x00\x00\x00\x00\x00\x00'
tRp854
g2
I0
tp855
(lp856
F0
aF-0.013655929089395176
aF0
aF-0.01401285489964244
aF0
aF-0.015200565800342647
aF0
aF-0.014630956063797353
aF0
aF0.073135588349560146
aF0.13462079712715724
aF0
aF-0.0088859580148833404
aF-0.021208996064012671
aF0
aF0.075079632229353294
aF0.076232612096307384
aF0
aF0.00059289072474588624
aF-0.028586282474041293
as(I7
g2
g3
(g5
S'\x06\x00\x00\x00\x00\x00\x00\x00'
tRp857
g2
I0
tp858
(lp859
F0
aF-0.10963861523806234
aF0
aF-0.12228336151145831
aF0
aF-0.1672831811616457
aF0
aF-0.19383377116671643
aF0
aF-0.071119918042948635
aF-0.41113104083543994
aF0
aF-0.00099735169736945976
aF-0.55031554038394526
aF0
aF-0.068084044425313656
aF0.040633022330593835
aF0
aF-2.7391680544667553e-07
aF-0.13061931219702858
as(I3
g2
g3
(g5
S'\t\x00\x00\x00\x00\x00\x00\x00'
tRp860
g12
I1
tp861
(lp862
F0
aF0.020789109932136535
aF0
aF0.01030506510064777
aF0
aF-0.028804745494553516
aF0
aF-0.077500675995997637
aF0
aF0.0700109880854074
aF-0.17662051108433205
aF0
aF-0.058589662147877856
aF-0.069310625769270842
aF0
aF0.056456316928312593
aF-0.054533085543651882
aF0
aF-0.023515107002448989
aF-0.00071686324549034668
as(I5
g2
I5
g2
I2
tp863
(lp864
F0.52433736206038206
aF-0.48060047902729747
aF0.52675640205388996
aF-0.46868766328134709
aF0.52829599278571582
aF-0.41643353952981116
aF0.44502856511411415
aF-0.24247762272702475
aF0.27332647857085912
aF0.53912190955965844
aF-0.8356434014094235
aF0.17424534177906231
aF0.78195809552848994
aF-0.47231041980415983
aF0.092544223479557958
aF0.17307739887208229
aF-0.4207993125591501
aF0.02024283747922876
aF0.38394395977894408
aF-0.19101974945124023
as(I5
g2
g3
(g5
S'\x03\x00\x00\x00\x00\x00\x00\x00'
tRp865
g2
I2
tp866
(lp867
F0
aF0.0076356052475194261
aF0
aF0.0076396053008511893
aF0
aF0.0076836865617835922
aF0
aF0.0076046961748682633
aF0
aF0.30377566252109356
aF-0.086846712308578586
aF0
aF-0.03189976418736077
aF-0.0040160176643344358
aF0
aF0.30599503298596908
aF-0.088951401809477651
aF0
aF-0.0098685550004350975
aF0.023097186330431046
as(I9
g12
g3
(g5
S'\x07\x00\x00\x00\x00\x00\x00\x00'
tRp868
g2
I0
tp869
(lp870
F-0.16264147134041668
aF0
aF-0.16464362859912937
aF0
aF-0.17487603349307448
aF0
aF-0.19869849117035324
aF0
aF-0.2922437308532651
aF0.03026959028104215
aF0
aF-0.058797990617544767
aF-0.56946600767030109
aF0
aF-0.15491465133980564
aF0.19038244348493225
aF0
aF0.0015983573395407121
aF-0.28670738731893131
aF0
as(I3
g2
g3
(g5
S'\x00\x00\x00\x00\x00\x00\x00\x00'
tRp871
g2
I2
tp872
(lp873
F0
aF-0.20639459384000472
aF0
aF-0.18989625086341172
aF0
aF-0.12760872433112541
aF0
aF-0.017320947084922329
aF0
aF-0.0026019696488423665
aF-0.39043787633858307
aF0
aF-0.0051609037960711748
aF-0.071031112055023909
aF0
aF0.0041980713868550353
aF-0.26177004714787422
aF0
aF-0.00020508944571730994
aF-0.0021177418224864481
as(I8
g12
g3
(g5
S'\x00\x00\x00\x00\x00\x00\x00\x00'
tRp874
g2
I0
tp875
(lp876
F-0.064256472948895124
aF0
aF-0.062624154529442283
aF0
aF-0.055147013251797022
aF0
aF-0.025755906202514604
aF0
aF0.0039954352849263484
aF-0.23070358945917865
aF0
aF-0.0025697447497546816
aF-0.11830973687416131
aF0
aF0.0095347813608224891
aF-0.030624466247919192
aF0
aF-6.4346787508441833e-06
aF-0.0025066257359017507
aF0
as.