(dp1
(I1
S'Pt'
p2
cnumpy.core._multiarray_umath
scalar
p3
(cnumpy
dtype
p4
(S'i8'
I0
I1
tRp5
(I3
S'<'
NNNI-1
I-1
I0
tbS'\x06\x00\x00\x00\x00\x00\x00\x00'
tRp6
g2
I1
tp7
(lp8
F0
aF-0.021641909956314459
aF0
aF-0.010791897091468466
aF0
aF0.033103558687425608
aF0
aF0.11270157765291725
aF0
aF0.013240835582979935
aF-0.047074549422343626
aF0
aF0.0034568732514237955
aF0.25133812880241818
aF0
aF0.0061188708502659351
aF-0.19877478107048541
aF0
aF-4.446890781598138e-05
aF0.0666564093517312
as(I4
g2
g3
(g5
S'\x01\x00\x00\x00\x00\x00\x00\x00'
tRp9
g2
I1
tp10
(lp11
F0
aF-0.023333918698819976
aF0
aF-0.012236087728761716
aF0
aF0.032805938975535007
aF0
aF0.11658477779748677
aF0
aF0.0028257918623989962
aF-0.060919573890614302
aF0
aF0.0056775486399566217
aF0.25447131932990719
aF0
aF-0.00040676751923586328
aF-0.2008529853742842
aF0
aF0.001079542835251821
aF0.075433838421502086
as(I3
g2
g3
(g5
S'\x08\x00\x00\x00\x00\x00\x00\x00'
tRp12
S'Cu'
p13
I1
tp14
(lp15
F0
aF-0.019869806411241822
aF0
aF-0.021996322644113976
aF0
aF-0.025467256231153725
aF0
aF-0.0092905087590439833
aF0
aF0.0010609162609893767
aF-0.12257318017520991
aF0
aF-4.159323332796736e-05
aF-0.015583019791834043
aF0
aF0.00050192290108481269
aF-0.088957177770811843
aF0
aF-0.00026593992184440477
aF-8.5892050009160804e-05
as(I2
g2
I2
g2
I1
tp16
(lp17
F-0.021174452181378131
aF0.005096098812220777
aF-0.023041261404090949
aF0.0058827729544162089
aF-0.025648007925484363
aF0.0078780367725710433
aF-0.0089018229185918868
aF0.0047927491899941348
aF0.0004862936173884166
aF-0.096837635960664192
aF0.036513600822767694
aF0.00018355757375699774
aF-0.044500208318324727
aF0.0074702710933440258
aF0.00018557316666351369
aF-0.040490945623126579
aF0.030065685788338421
aF3.7140511226435757e-06
aF-0.002369250258828259
aF0.0013531158115349575
as(I1
g2
g3
(g5
S'\x03\x00\x00\x00\x00\x00\x00\x00'
tRp18
g2
I1
tp19
(lp20
F0
aF0.004996733712886281
aF0
aF0.0035853810039214451
aF0
aF-0.0034088583194184507
aF0
aF-0.032395417142589561
aF0
aF0.01724173661344135
aF-0.0093375986696264575
aF0
aF0.0036563600692015373
aF-0.032784645249868627
aF0
aF0.0060057667701000168
aF0.011197623333934051
aF0
aF-0.0014995496071291651
aF-0.011026303020619684
as(I9
g13
g3
(g5
S'\x06\x00\x00\x00\x00\x00\x00\x00'
tRp21
g2
I2
tp22
(lp23
F-0.050667899474891837
aF0
aF-0.043259775618124441
aF0
aF-0.020754807546381943
aF0
aF-0.00067677965228894938
aF0
aF-0.013985052343199317
aF-0.0074597439540687385
aF0
aF-0.00026049107669540633
aF-0.0017811855875450983
aF0
aF-0.013231500329157243
aF-0.0039556144687484434
aF0
aF-1.4483817440812496e-09
aF-1.5456938950298933e-05
aF0
as(I0
g2
g3
(g5
S'\x02\x00\x00\x00\x00\x00\x00\x00'
tRp24
g2
I1
tp25
(lp26
F0
aF2.7755575615628914e-17
aF0
aF0
aF0
aF0
aF0
aF-1.1102230246251565e-16
aF0
aF0.016565753351272763
aF-0.0085952633862651333
aF0
aF0.0050238325878640923
aF-0.0012448909937715226
aF0
aF0.0052775115192995039
aF-0.0021066610020533472
aF0
aF-0.0010295033708685951
aF0.00028981340347015359
as(I9
g13
g3
(g5
S'\x03\x00\x00\x00\x00\x00\x00\x00'
tRp27
g2
I0
tp28
(lp29
F0.0022014702109763996
aF0
aF0.0018450613980469967
aF0
aF0.00081278020142784254
aF0
aF1.8071923007686304e-05
aF0
aF0.00064638573638222372
aF0.00058588689945056783
aF0
aF9.18520102063856e-06
aF0.00011822701612348741
aF0
aF0.00062019667298880026
aF0.00034540926134285336
aF0
aF6.0155092816643851e-09
aF1.0198030169623915e-06
aF0
as(I5
g2
g3
(g5
S'\x08\x00\x00\x00\x00\x00\x00\x00'
tRp30
g13
I1
tp31
(lp32
F0
aF0.00024329134108735939
aF0
aF0.0001092189207491101
aF0
aF-0.00041665690049741411
aF0
aF-0.0011513245073713901
aF0
aF-0.0042840686944765356
aF-0.033098834650249917
aF0
aF-0.0077498566210145899
aF0.011914398422840467
aF0
aF-0.00019906420954789286
aF-0.056869217351763098
aF0
aF0.00045226874747291817
aF2.4435501095626023e-07
as(I2
g2
g3
(g5
S'\x03\x00\x00\x00\x00\x00\x00\x00'
tRp33
g2
I1
tp34
(lp35
F0
aF0.0041391234955024669
aF0
aF0.0040656246607165989
aF0
aF0.0036439620385889902
aF0
aF0.0016030939222764582
aF0
aF-0.0060988093227276798
aF0.021284647126183661
aF0
aF-0.0010822555607985366
aF0.0036994012587282907
aF0
aF-0.0032465706014201509
aF0.015006984737635294
aF0
aF4.8422649916411654e-05
aF-0.00025103223806845182
as(I9
g13
g3
(g5
S'\x08\x00\x00\x00\x00\x00\x00\x00'
tRp36
g13
I2
tp37
(lp38
F-0.25448524101899223
aF0
aF-0.25837440960206193
aF0
aF-0.2781462161984164
aF0
aF-0.33980515493714381
aF0
aF-0.0097898109440693742
aF-0.029608806335764647
aF0
aF-0.0040946481107451901
aF-0.31186291566958008
aF0
aF-0.0053466798620930298
aF-0.0018254034784399226
aF0
aF-0.00035852264005642502
aF-0.25578024290021933
aF0
as(I1
g2
g3
(g5
S'\x02\x00\x00\x00\x00\x00\x00\x00'
tRp39
g2
I1
tp40
(lp41
F0
aF-0.00075002514016060673
aF0
aF-0.0015113965381006594
aF0
aF-0.003730430262531767
aF0
aF-0.0028220198781026828
aF0
aF0.0067542404659127137
aF-0.021254634270218908
aF0
aF0.0013987013631329211
aF-0.0019195436671048589
aF0
aF0.0034894104174951028
aF-0.021209811379184103
aF0
aF-4.1986614659516374e-05
aF-0.00031083066506235372
as(I4
g2
I4
g2
I0
tp42
(lp43
F0.019547715006449112
aF0.019045871976979434
aF0.019065607026963055
aF0.017449181839136102
aF0.015574111382934561
aF0.010355775975646395
aF0.0028082472833176513
aF-0.014656352101979131
aF0.00027698989809259481
aF0.035087000254760359
aF0.036577744814351311
aF0.00013186899382578601
aF0.012126617749516946
aF0.001005467155334444
aF8.2060473138239264e-05
aF0.015479817562200349
aF0.0085505786950225201
aF3.766526892255981e-06
aF0.00033329621973163308
aF-0.014334420323335591
as(I2
g2
g3
(g5
S'\x06\x00\x00\x00\x00\x00\x00\x00'
tRp44
g2
I1
tp45
(lp46
F0
aF0.025860610459195809
aF0
aF0.014428230755666637
aF0
aF-0.031370995154047114
aF0
aF-0.11318228590927305
aF0
aF-0.014299413869659338
aF0.033641857232191354
aF0
aF-0.0054544344931681506
aF-0.23983346018984214
aF0
aF-0.0051262523009861401
aF0.17061980394267151
aF0
aF-3.666644658833858e-05
aF-0.064662357265683729
as(I4
g2
g3
(g5
S'\x08\x00\x00\x00\x00\x00\x00\x00'
tRp47
g13
I0
tp48
(lp49
F0
aF0.019547715006449112
aF0
aF0.019065607026963069
aF0
aF0.015574111382934561
aF0
aF0.0028082472833176504
aF0
aF0.00064214100665098764
aF0.038616231358201539
aF0
aF0.00017557677718577349
aF0.0081885277541572984
aF0
aF0.00030877907853013879
aF0.022519347403592981
aF0
aF1.5391151565942289e-06
aF9.8106186375618225e-05
as(I5
g2
g3
(g5
S'\x04\x00\x00\x00\x00\x00\x00\x00'
tRp50
g2
I0
tp51
(lp52
F0
aF-0.0015291047808674019
aF0
aF-0.0018940428396530262
aF0
aF-0.0032367859500968543
aF0
aF-0.004197185506537332
aF0
aF-0.0056158501556103817
aF0.0050061448230603323
aF0
aF-0.0011609139076282191
aF-0.017746321142406367
aF0
aF-0.0031750247096208805
aF0.023089269601987903
aF0
aF-5.152219214913442e-06
aF-0.0045392869775417958
as(I2
g2
g3
(g5
S'\x07\x00\x00\x00\x00\x00\x00\x00'
tRp53
g2
I1
tp54
(lp55
F0
aF0.029655836913542816
aF0
aF0.017586291992898087
aF0
aF-0.030034865436422073
aF0
aF-0.11336866609307938
aF0
aF-0.0083761887542469302
aF0.043126709227622989
aF0
aF-0.05564693559769001
aF-0.24696504452367851
aF0
aF0.00043649671966275417
aF0.18181609425464898
aF0
aF-0.032647652190237873
aF-0.061506457196372419
as(I6
g2
g3
(g5
S'\x08\x00\x00\x00\x00\x00\x00\x00'
tRp56
g13
I1
tp57
(lp58
F0
aF-0.0057535316987848903
aF0
aF-0.0054207521487086192
aF0
aF-0.0040473136744671916
aF0
aF-0.00084988459914419961
aF0
aF0.00015837648429208975
aF-0.0028026489178565378
aF0
aF0.00038970653668277605
aF-0.0022891215829596583
aF0
aF2.9459928764563003e-06
aF-8.3383824012740445e-05
aF0
aF0.00013067706906512528
aF-8.7425075756431751e-05
as(I4
g2
g3
(g5
S'\x00\x00\x00\x00\x00\x00\x00\x00'
tRp59
g2
I0
tp60
(lp61
F0
aF0.21216608589499875
aF0
aF0.21704475050106387
aF0
aF0.22852177037637114
aF0
aF0.19339105622555913
aF0
aF0.018436142486364937
aF0.72332074379306688
aF0
aF0.013820782352033231
aF0.4411158763722044
aF0
aF0.0037398697035244165
aF0.26929032333770758
aF0
aF0.0011820006868934613
aF0.092551810625415468
as(I2
g2
g3
(g5
S'\x08\x00\x00\x00\x00\x00\x00\x00'
tRp62
g13
I1
tp63
(lp64
F0
aF-0.021174452181378145
aF0
aF-0.023041261404090956
aF0
aF-0.02564800792548437
aF0
aF-0.0089018229185918868
aF0
aF0.0010177805348814918
aF-0.12654014443008127
aF0
aF0.00032192184740933798
aF-0.015467551040053073
aF0
aF0.0004590843068331726
aF-0.093402038769991008
aF0
aF5.4107614455071556e-06
aF-7.2003647730121067e-05
as(I0
g2
I0
g2
I2
tp65
(lp66
F0.19244896048136467
aF0.71574608239149573
aF0.18027922456316775
aF0.7113697153629287
aF0.13274551483368502
aF0.68742573616660685
aF0.029467437977525348
aF0.53358035983534424
aF0.00053079676935429028
aF0.32274931225167619
aF1.1767668855225695
aF0.0001943687645195074
aF0.13402672925173931
aF0.93947978195055548
aF0.00020755617108266227
aF0.14168563804264733
aF0.54806463900019486
aF3.6699405094724154e-06
aF0.0095247520938146046
aF0.36369753909917618
as(I5
g2
g3
(g5
S'\x01\x00\x00\x00\x00\x00\x00\x00'
tRp67
g2
I1
tp68
(lp69
F0
aF-0.027100177129617598
aF0
aF-0.015569220155756291
aF0
aF0.031542362590591511
aF0
aF0.12309340276467073
aF0
aF0.024704430026691131
aF-0.088035873321898342
aF0
aF-0.00083096045458774001
aF0.27839824595075269
aF0
aF0.018180483221089661
aF-0.26015092248596139
aF0
aF-0.00035574828744177331
aF0.078768743225245533
as(I1
g2
g3
(g5
S'\x04\x00\x00\x00\x00\x00\x00\x00'
tRp70
g2
I2
tp71
(lp72
F0
aF0.14970792327003377
aF0
aF0.1489285610714689
aF0
aF0.14496586152226246
aF0
aF0.11821874404309264
aF0
aF0.015300034883319238
aF0.44744069807275982
aF0
aF0.0021361684212906867
aF0.19600188562601645
aF0
aF0.01023301703053112
aF0.32557200203057129
aF0
aF3.3329872360935692e-05
aF0.090878698582280218
as(I6
g2
g3
(g5
S'\x00\x00\x00\x00\x00\x00\x00\x00'
tRp73
g2
I1
tp74
(lp75
F0
aF0.026427781294235952
aF0
aF0.014875289944102588
aF0
aF-0.031261674552449145
aF0
aF-0.11322801740765698
aF0
aF-0.0049060804064117568
aF0.059063144931282147
aF0
aF-0.0046249963236135502
aF-0.24589504255997038
aF0
aF-0.00033258128054959715
aF0.20450975475352823
aF0
aF-0.00037946937436929247
aF-0.058951935038173614
as(I6
g2
g3
(g5
S'\x07\x00\x00\x00\x00\x00\x00\x00'
tRp76
g2
I0
tp77
(lp78
F0
aF0.0060994431939336013
aF0
aF0.00755121329450259
aF0
aF0.01288808567937777
aF0
aF0.016675235266428348
aF0
aF0.015171117589200513
aF0.032668883949891737
aF0
aF0.010062969731560095
aF0.037686634050161767
aF0
aF0.0028636193493887124
aF0.0043910490082927061
aF0
aF0.00030821910924972774
aF0.01216671202039793
as(I4
g2
g3
(g5
S'\x02\x00\x00\x00\x00\x00\x00\x00'
tRp79
g2
I2
tp80
(lp81
F0
aF-0.1655430742662351
aF0
aF-0.16491870473790982
aF0
aF-0.16178413450233209
aF0
aF-0.13712219470445727
aF0
aF0.010530061867478709
aF-0.49077520149146886
aF0
aF0.0039351741111178264
aF-0.23243644637771374
aF0
aF0.0029556588008674053
aF-0.35619284013797292
aF0
aF-0.00058936512219382451
aF-0.10267085529999358
as(I6
g2
g3
(g5
S'\t\x00\x00\x00\x00\x00\x00\x00'
tRp82
g13
I1
tp83
(lp84
F0
aF0.0022193726778734039
aF0
aF0.0018948795006861572
aF0
aF0.00090910918511210225
aF0
aF2.9644534010632842e-05
aF0
aF0.00046471944100848141
aF0.00036791935848530549
aF0
aF8.3363579966384333e-05
aF4.7985104788957577e-05
aF0
aF0.00027946835160982893
aF0.00025445407366439792
aF0
aF2.2229298681993773e-07
aF6.1732395503684029e-08
as(I2
g2
g3
(g5
S'\x01\x00\x00\x00\x00\x00\x00\x00'
tRp85
g2
I1
tp86
(lp87
F0
aF0.00075002514016063448
aF0
aF0.0015113965381006733
aF0
aF0.003730430262531767
aF0
aF0.0028220198781026811
aF0
aF-0.0067120690540327949
aF0.021836243880236743
aF0
aF-0.0014726741015801046
aF0.0072706808726568564
aF0
aF-0.0033333604573598991
aF0.011605795081878681
aF0
aF4.7124843408447552e-05
aF0.00053307193072548754
as(I6
g2
g3
(g5
S'\x02\x00\x00\x00\x00\x00\x00\x00'
tRp88
g2
I2
tp89
(lp90
F0
aF-0.17126895491540789
aF0
aF-0.17056787507320217
aF0
aF-0.166554369754225
aF0
aF-0.13531513868306269
aF0
aF0.017061258974039994
aF-0.52116326848936112
aF0
aF0.00023929030730279443
aF-0.23457719782348049
aF0
aF0.0095609622515636199
aF-0.36385374586335217
aF0
aF-0.00072517243812567935
aF-0.095724836517043568
as(I0
g2
g3
(g5
S'\x01\x00\x00\x00\x00\x00\x00\x00'
tRp91
g2
I0
tp92
(lp93
F0
aF0.003825261901735072
aF0
aF0.0047356328163473127
aF0
aF0.0080816873448201765
aF0
aF0.010447007842486422
aF0
aF0.020881263568255544
aF0.023374425634794003
aF0
aF0.0087943444725522187
aF0.026594544441122768
aF0
aF0.0072752665948721696
aF-0.0027959090845058807
aF0
aF0.00022900108020564147
aF0.0061095693503043563
as(I5
g2
g3
(g5
S'\x00\x00\x00\x00\x00\x00\x00\x00'
tRp94
g2
I1
tp95
(lp96
F0
aF-0.023860512995584574
aF0
aF-0.012873502694711712
aF0
aF0.03165121670845273
aF0
aF0.11315206595717513
aF0
aF0.02270020382120853
aF-0.066613517261654251
aF0
aF-0.00052263231112767026
aF0.25744485687825047
aF0
aF0.01695324476235931
aF-0.23033076067425429
aF0
aF-0.00027836795132164143
aF0.064461595006345102
as(I1
g2
g3
(g5
S'\x07\x00\x00\x00\x00\x00\x00\x00'
tRp97
g2
I0
tp98
(lp99
F0
aF-0.21773702176054216
aF0
aF-0.22267170192221361
aF0
aF-0.23381344373384519
aF0
aF-0.19348912735981566
aF0
aF-0.029263249702460959
aF-0.72438778775663593
aF0
aF-0.08809866464045979
aF-0.46335236167292165
aF0
aF-0.00086899599728220193
aF-0.29020271360362077
aF0
aF-0.036837451963680032
aF-0.1116980910633783
as(I6
g2
g3
(g5
S'\x04\x00\x00\x00\x00\x00\x00\x00'
tRp100
g2
I2
tp101
(lp102
F0
aF-0.0077708298602907275
aF0
aF-0.0079790531282582979
aF0
aF-0.0086791764138893605
aF0
aF-0.0084425968327889248
aF0
aF0.025135037248382053
aF-0.61020848250070125
aF0
aF0.0026298357085903514
aF0.015003741821280668
aF0
aF0.016268638519818295
aF-0.53015086488193131
aF0
aF-0.00013935511352771465
aF0.028493961458699882
as(I8
g13
g3
(g5
S'\x04\x00\x00\x00\x00\x00\x00\x00'
tRp103
g2
I0
tp104
(lp105
F-0.019547715006449112
aF0
aF-0.019065607026963055
aF0
aF-0.015574111382934561
aF0
aF-0.0028082472833176513
aF0
aF-0.00027698989809259481
aF-0.02975643368284293
aF0
aF-0.00013186899382578601
aF-0.0098424129526064521
aF0
aF-8.2060473138239264e-05
aF-0.012753338410504458
aF0
aF-3.766526892255981e-06
aF-0.00022970002114288562
aF0
as(I0
g2
g3
(g5
S'\x04\x00\x00\x00\x00\x00\x00\x00'
tRp106
g2
I2
tp107
(lp108
F0
aF0.16701975461965668
aF0
aF0.16621486102704383
aF0
aF0.1615663720812667
aF0
aF0.12756802296583339
aF0
aF0.020222617684110489
aF0.53086985575808587
aF0
aF0.0035091324308014608
aF0.22478208463840399
aF0
aF0.01237497064810697
aF0.37427359291015966
aF0
aF6.3765206461976269e-05
aF0.094768099562074937
as(I5
g2
I5
g2
I1
tp109
(lp110
F-0.00701033830119107
aF0.018476552776570662
aF-0.0072637701133763388
aF0.012695642610160304
aF-0.0071267164663701699
aF-0.010378097959465668
aF-0.0024675734315361213
aF-0.07586075418729675
aF-0.011207144756126601
aF-0.014190185724431809
aF-0.011699270516380846
aF-0.00078414008300206779
aF-0.012068027855187933
aF-0.104332544703423
aF-0.0091376163888072549
aF-0.0022321546033143166
aF0.039260228454258167
aF2.6978248216463623e-06
aF-0.0029003184908293583
aF-0.036754300346931418
as(I1
g2
g3
(g5
S'\x00\x00\x00\x00\x00\x00\x00\x00'
tRp111
g2
I2
tp112
(lp113
F0
aF-0.017690388530992536
aF0
aF-0.017375694574492548
aF0
aF-0.015571997045852602
aF0
aF-0.0068525145894313801
aF0
aF0.018930757399705154
aF0.1852600330851539
aF0
aF0.0031964498069681764
aF-0.036182706709317558
aF0
aF0.010343976690741134
aF0.23174726582856414
aF0
aF-0.00013976292521903467
aF0.002670727534382814
as(I6
g2
g3
(g5
S'\x03\x00\x00\x00\x00\x00\x00\x00'
tRp114
g2
I0
tp115
(lp116
F0
aF-0.20941185394400458
aF0
aF-0.21543492142370357
aF0
aF-0.23090827195341651
aF0
aF-0.20157602914269002
aF0
aF-0.028203071011300769
aF-0.67586236974004144
aF0
aF-0.012832558362247688
aF-0.49510077534992236
aF0
aF-0.0082154993409589896
aF-0.21691437970974239
aF0
aF-0.00011112632143955194
aF-0.11455958832262728
as(I0
g2
g3
(g5
S'\x02\x00\x00\x00\x00\x00\x00\x00'
tRp117
g2
I2
tp118
(lp119
F0
aF0
aF0
aF0
aF0
aF0
aF0
aF0
aF0
aF0.037556565038706372
aF0.63317991460606626
aF0
aF0.010102290647330302
aF-0.024971595348380657
aF0
aF0.017771335692580995
aF0.53642624303727904
aF0
aF0.00029504436675310494
aF-0.041477251979279567
as(I2
g2
I2
g2
I2
tp120
(lp121
F0.1968637019800871
aF0.71132723712401402
aF0.18343181900403741
aF0.70739955977990487
aF0.13190303146574289
aF0.68805583151468497
aF0.026908322329418213
aF0.56572972433190827
aF0.00071635343768768664
aF0.33305527186907441
aF1.105827962718815
aF0.00027787196858487372
aF0.12655734017707473
aF1.0284751518187403
aF0.00026660551072439046
aF0.15585662518916554
aF0.49914132973069447
aF5.889866671810204e-06
aF0.0082174150725953347
aF0.43588301321002071
as(I1
g2
g3
(g5
S'\x06\x00\x00\x00\x00\x00\x00\x00'
tRp122
g2
I2
tp123
(lp124
F0
aF0.15462921883022179
aF0
aF0.15361908110657438
aF0
aF0.14860999671562719
aF0
aF0.11792218761888486
aF0
aF0.032444582082082923
aF0.45256160022543696
aF0
aF0.0071062021491924534
aF0.19224075652151346
aF0
aF0.016022482925515714
aF0.33501360188014107
aF0
aF-0.00020262782155662184
aF0.085036280972223821
as(I0
g2
g3
(g5
S'\x05\x00\x00\x00\x00\x00\x00\x00'
tRp125
g2
I0
tp126
(lp127
F0
aF0.21269460763988157
aF0
aF0.21739530182614214
aF0
aF0.2282514175037752
aF0
aF0.19215066588068613
aF0
aF0.046222505862422082
aF0.68749665018070205
aF0
aF0.036549420136288577
aF0.48106122900326193
aF0
aF0.010997350201172176
aF0.23318264821749812
aF0
aF0.0066323376044582164
aF0.11052455262293436
as(I2
g2
I2
g2
I0
tp128
(lp129
F0.090936839597455771
aF0.0036388615948975099
aF0.084732277885981019
aF0.0053199885578799101
aF0.06092969244290504
aF0.011554691966309856
aF0.01242970525747023
aF0.021771637662947142
aF0.00033090365061142884
aF0.21183328853184011
aF0.046218786970099443
aF0.00012835681937134293
aF0.057394766188640353
aF0.034245123713758222
aF0.0001231525279708191
aF0.1226935835360803
aF0.0016311856045658395
aF2.7206938373991465e-06
aF0.0022550478631494127
aF0.0058627791753048421
as(I0
g2
g3
(g5
S'\x02\x00\x00\x00\x00\x00\x00\x00'
tRp130
g2
I0
tp131
(lp132
F0
aF0
aF0
aF0
aF0
aF0
aF0
aF0
aF0
aF0.017348425821544871
aF0.013405355411100623
aF0
aF0.0046665300658425982
aF0.0021495997411081287
aF0
aF0.0082090760615293364
aF-0.0078452727058475873
aF0
aF0.00013628922947041768
aF-0.0051206618286173252
as(I1
g2
g3
(g5
S'\x03\x00\x00\x00\x00\x00\x00\x00'
tRp133
g2
I0
tp134
(lp135
F0
aF0.0039368769364387327
aF0
aF0.0040424398423180713
aF0
aF0.0043976729794436963
aF0
aF0.0042830661583141
aF0
aF-0.019839110967301312
aF-0.0060545097091282696
aF0
aF-0.0054608339930272446
aF0.010608926565352891
aF0
aF-0.0096881679998948034
aF0.0019501979373770587
aF0
aF-0.00024319169511979221
aF0.0097690967976210973
as(I6
g2
g3
(g5
S'\x00\x00\x00\x00\x00\x00\x00\x00'
tRp136
g2
I2
tp137
(lp138
F0
aF-0.17102530763112145
aF0
aF-0.17035357766962958
aF0
aF-0.16658796771525608
aF0
aF-0.13687307270290355
aF0
aF0.018025052642988794
aF-0.52757520104952604
aF0
aF0.00023616548842797486
aF-0.22342501206466414
aF0
aF0.0097882693076462492
aF-0.37276358288676026
aF0
aF-0.00085938937946169493
aF-0.087690607791229058
as(I3
g2
g3
(g5
S'\x07\x00\x00\x00\x00\x00\x00\x00'
tRp139
g2
I2
tp140
(lp141
F0
aF0.15756742924529976
aF0
aF0.15691297127599188
aF0
aF0.15380697732459681
aF0
aF0.13099197142284519
aF0
aF0.064810802918045751
aF0.48986873980268214
aF0
aF0.10089746002067279
aF0.19901827568278804
aF0
aF0.0023944401758842814
aF0.37257448638255103
aF0
aF0.013436241290502637
aF0.088037630144450985
as(I1
g2
g3
(g5
S'\t\x00\x00\x00\x00\x00\x00\x00'
tRp142
g13
I2
tp143
(lp144
F0
aF0.00013898829542972164
aF0
aF0.00011586484589205336
aF0
aF4.9790097038838386e-05
aF0
aF9.8756924609852636e-07
aF0
aF4.311582965015358e-05
aF3.6799933763478273e-05
aF0
aF1.5291380037605001e-06
aF1.9149806612763931e-06
aF0
aF3.8838711071866024e-05
aF3.1787970739555687e-05
aF0
aF1.0642631900835575e-10
aF1.7252187079848118e-09
as(I0
g2
g3
(g5
S'\x06\x00\x00\x00\x00\x00\x00\x00'
tRp145
g2
I2
tp146
(lp147
F0
aF0.17102530763112145
aF0
aF0.17035357766962958
aF0
aF0.16658796771525608
aF0
aF0.13687307270290355
aF0
aF0.039468747919968621
aF0.53546731117857016
aF0
aF0.011343306308300445
aF0.2313159288511023
aF0
aF0.01635959350873065
aF0.37267023292714646
aF0
aF-0.00029281307135001179
aF0.093443577383573076
as(I1
g2
g3
(g5
S'\x02\x00\x00\x00\x00\x00\x00\x00'
tRp148
g2
I2
tp149
(lp150
F0
aF-0.022017913779566606
aF0
aF-0.02067013669010075
aF0
aF-0.015185046457794633
aF0
aF-0.0029655616205526165
aF0
aF0.010248541157781595
aF0.10969355490158395
aF0
aF0.0019844911982596636
aF-0.019281190060802623
aF0
aF0.0059892468255196363
aF0.15312556803346775
aF0
aF1.6367519036281322e-05
aF-1.181437417605282e-05
as(I3
g2
g3
(g5
S'\x06\x00\x00\x00\x00\x00\x00\x00'
tRp151
g2
I0
tp152
(lp153
F0
aF0.20941185394400458
aF0
aF0.21543492142370357
aF0
aF0.23090827195341651
aF0
aF0.20157602914269002
aF0
aF-0.010692072383888635
aF0.70895830537097193
aF0
aF0.0010192558217887381
aF0.45605677121046612
aF0
aF-0.0074720765975904522
aF0.25851355958608019
aF0
aF0.00040679944359932124
aF0.097587288395919736
as(I2
g2
g3
(g5
S'\x06\x00\x00\x00\x00\x00\x00\x00'
tRp154
g2
I0
tp155
(lp156
F0
aF-0.20865521958072372
aF0
aF-0.21353176286528375
aF0
aF-0.22557490235995264
aF0
aF-0.19604256650490734
aF0
aF0.01080066350518461
aF-0.69043252004971578
aF0
aF-0.0022748011013785253
aF-0.44817562804075339
aF0
aF0.0073292926401639013
aF-0.23008483689090711
aF0
aF-0.00079067372882096483
aF-0.089741123444630908
as(I1
g2
g3
(g5
S'\x08\x00\x00\x00\x00\x00\x00\x00'
tRp157
g13
I0
tp158
(lp159
F0
aF-0.10262412423182773
aF0
aF-0.096161289743848355
aF0
aF-0.070946766763576169
aF0
aF-0.016090818158369758
aF0
aF-0.00074941001917076583
aF-0.27143111571115097
aF0
aF-0.00025364535927718644
aF-0.028725096538294557
aF0
aF-0.00035831094367835305
aF-0.20741416355107709
aF0
aF-1.7642212895692223e-05
aF-0.00028923614542566858
as(I4
g2
I4
g2
I1
tp160
(lp161
F-0.00014854468174557017
aF0.0082592074403703142
aF-0.0001546952887252484
aF0.0029817691130526042
aF-0.00015089435866401379
aF-0.014491031354784516
aF-3.4045176180318073e-05
aF-0.036128355319716275
aF2.455247040605813e-06
aF-0.007320284643294676
aF-0.056887623382964388
aF9.0870517777904555e-07
aF-0.0010586979918708157
aF-0.056700896910512819
aF9.5276342280423247e-07
aF-0.0051233018516169708
aF-0.010071762766394158
aF1.7687502696440613e-08
aF1.7464736587521613e-05
aF-0.0063676628487299878
as(I3
g2
I3
g2
I2
tp162
(lp163
F0.20232643648962473
aF0.58977629923312025
aF0.18792182179578856
aF0.588831804920946
aF0.13366215533141015
aF0.58340709929690193
aF0.026993774668723679
aF0.5110780431291384
aF0.0028435895643702486
aF0.31694541857526481
aF0.88186799645878733
aF0.00033818793236946239
aF0.11990649154599015
aF0.913305415556666
aF0.0022691159202702115
aF0.14952764704626725
aF0.4131861544359095
aF6.9695813230566727e-06
aF0.0088070621664594739
aF0.44696802759323845
as(I6
g2
I6
g2
I1
tp164
(lp165
F-0.003534159020911482
aF0.014120729253950639
aF-0.0035258726480224588
aF0.015963932015624564
aF-0.0031382044893550863
aF0.02288466348486979
aF-0.00082024006513356539
aF0.03701017978225489
aF0.0005332018040571805
aF-0.0028670261663116727
aF0.084953622191719425
aF1.4881216917684825e-05
aF-0.0018088398712302557
aF0.058563784286663562
aF0.00049081388045634118
aF4.541645568898786e-05
aF0.030357252543590511
aF2.3097916384200553e-10
aF0.0001744059360685112
aF0.015406883477398303
as(I3
g2
g3
(g5
S'\x05\x00\x00\x00\x00\x00\x00\x00'
tRp166
g2
I2
tp167
(lp168
F0
aF0.15270221953177388
aF0
aF0.15238064307530647
aF0
aF0.15079623599302702
aF0
aF0.13380908397288352
aF0
aF0.077230766308473295
aF0.48399539267742187
aF0
aF0.05192970974397125
aF0.20612438709242767
aF0
aF0.020382899911028374
aF0.36303013093377351
aF0
aF0.0079596414776752413
aF0.095778066082757615
as(I8
g13
g3
(g5
S'\x03\x00\x00\x00\x00\x00\x00\x00'
tRp169
g2
I0
tp170
(lp171
F0.10316067311245693
aF0
aF0.09614198712955932
aF0
aF0.069197560219454959
aF0
aF0.014213173222587689
aF0
aF0.00044491958034847549
aF0.19077341563512451
aF0
aF0.00016351681780298584
aF0.079280755021188781
aF0
aF0.00018435171950020464
aF0.074930477918154298
aF0
aF3.6675214787500136e-06
aF0.0042638503723654193
aF0
as(I6
g2
g3
(g5
S'\x08\x00\x00\x00\x00\x00\x00\x00'
tRp172
g13
I0
tp173
(lp174
F0
aF0.011427515733581389
aF0
aF0.012527219776543169
aF0
aF0.015141114320129573
aF0
aF0.0080647803607510407
aF0
aF0.00017266255783057673
aF0.046574174038324659
aF0
aF0.0023160455484510225
aF0.010899773365948079
aF0
aF-8.458235799330351e-06
aF0.027100852196562261
aF0
aF0.0016573566218919681
aF0.00024270342219643481
as(I5
g2
g3
(g5
S'\x07\x00\x00\x00\x00\x00\x00\x00'
tRp175
g2
I2
tp176
(lp177
F0
aF0.0076764986841658233
aF0
aF0.0078832197339465879
aF0
aF0.0085847018713290021
aF0
aF0.0084728416726999392
aF0
aF0.2500233088769625
aF-0.58762493786561132
aF0
aF0.044709238973495796
aF0.053191058437716383
aF0
aF0.071126183565519127
aF-0.54713007822439896
aF0
aF-0.037192688444043255
aF0.043082428426130324
as(I2
g2
g3
(g5
S'\x08\x00\x00\x00\x00\x00\x00\x00'
tRp178
g13
I0
tp179
(lp180
F0
aF0.090936839597455771
aF0
aF0.084732277885981019
aF0
aF0.06092969244290504
aF0
aF0.01242970525747023
aF0
aF0.00069657214894435263
aF0.24669701050286696
aF0
aF0.00022194879102119185
aF0.022071783747630837
aF0
aF0.00032993837376554634
aF0.19799320466582859
aF0
aF5.8430854956401973e-06
aF0.00021368530182855523
as(I0
g2
I0
g2
I1
tp181
(lp182
F0.02438333380554622
aF-0.011409466739068008
aF0.025777219602018023
aF-0.011112915569126088
aF0.026866225190243721
aF-0.0098494422252741569
aF0.0089324671933206298
aF-0.0045949849983281527
aF-0.00042125389872417409
aF0.1005140495366128
aF-0.042046222010481984
aF-0.00015089160098322489
aF0.044800946083923557
aF-0.008225611983784395
aF-0.00016787913764883367
aF0.042886919572420391
aF-0.034078241947432836
aF-2.7376265637385409e-06
aF0.0022629385320431308
aF-0.0052690606195249312
as(I5
g2
g3
(g5
S'\x01\x00\x00\x00\x00\x00\x00\x00'
tRp183
g2
I0
tp184
(lp185
F0
aF0.21167685710893092
aF0
aF0.21750902324029175
aF0
aF0.23313976146853094
aF0
aF0.21140271908283509
aF0
aF0.025848347909416199
aF0.70832113504280625
aF0
aF0.0084514128378784803
aF0.46717916772619006
aF0
aF0.011687534834145414
aF0.27040140535218249
aF0
aF0.00014782615258964574
aF0.10820391270638595
as(I7
g2
g3
(g5
S'\x08\x00\x00\x00\x00\x00\x00\x00'
tRp186
g13
I0
tp187
(lp188
F0
aF-0.0060503943426238934
aF0
aF-0.0061040886751191747
aF0
aF-0.0063314808992923259
aF0
aF-0.0061537529994887792
aF0
aF0.0018761487130278885
aF-0.021841510189990528
aF0
aF-0.0017921830873452651
aF-0.0020472484605367244
aF0
aF-6.2390576304363922e-05
aF-0.0138914546544801
aF0
aF-0.0073847378246750832
aF0.00018973374764754937
as(I4
g2
g3
(g5
S'\x01\x00\x00\x00\x00\x00\x00\x00'
tRp189
g2
I2
tp190
(lp191
F0
aF-0.14970792327003377
aF0
aF-0.1489285610714689
aF0
aF-0.14496586152226243
aF0
aF-0.11821874404309261
aF0
aF0.009117301481056132
aF-0.47548678575837849
aF0
aF0.0049365116777094643
aF-0.18404476198628095
aF0
aF0.0019956417422901545
aF-0.35687482023382711
aF0
aF-0.00033069402315159406
aF-0.081338451767054204
as(I3
g2
g3
(g5
S'\x02\x00\x00\x00\x00\x00\x00\x00'
tRp192
g2
I1
tp193
(lp194
F0
aF-0.0041391234955024678
aF0
aF-0.0040656246607165998
aF0
aF-0.0036439620385889911
aF0
aF-0.0016030939222764591
aF0
aF-0.0064518993154639229
aF-0.0037983053675048509
aF0
aF-0.0012044480744327088
aF-0.0070367372362394355
aF0
aF-0.0034099886475239894
aF0.0094676377022471468
aF0
aF4.3218520390058687e-05
aF-0.00064403512160275916
as(I0
g2
g3
(g5
S'\x08\x00\x00\x00\x00\x00\x00\x00'
tRp195
g13
I2
tp196
(lp197
F0
aF0.19244896048136467
aF0
aF0.18027922456316775
aF0
aF0.13274551483368502
aF0
aF0.029467437977525348
aF0
aF0.0010894761396003573
aF0.39836719271364635
aF0
aF0.00036085492814723591
aF0.057683683255895346
aF0
aF0.00051505638008108819
aF0.27493469282171817
aF0
aF1.1555814876632038e-05
aF0.00057045383613923311
as(I6
g2
g3
(g5
S'\t\x00\x00\x00\x00\x00\x00\x00'
tRp198
g13
I2
tp199
(lp200
F0
aF0.050667899474891837
aF0
aF0.043259775618124441
aF0
aF0.020754807546381943
aF0
aF0.00067677965228894938
aF0
aF0.013327979949854407
aF0.0064464157720506357
aF0
aF0.0017582197946494245
aF0.00095849306913361424
aF0
aF0.009205898604468828
aF0.004267094439476731
aF0
aF3.0751607953054248e-06
aF2.4431777120397777e-06
as(I2
g2
g3
(g5
S'\x01\x00\x00\x00\x00\x00\x00\x00'
tRp201
g2
I0
tp202
(lp203
F0
aF0.0080371916502426644
aF0
aF0.0087371203477596693
aF0
aF0.010286935282133605
aF0
aF0.0050992121191178533
aF0
aF0.013802012009763177
aF0.050127041253426034
aF0
aF0.0049814164143024029
aF0.0099754281583943494
aF0
aF0.0056940319974839925
aF0.034515045696078397
aF0
aF0.00013524684302661989
aF0.00098160842425610087
as(I6
g2
g3
(g5
S'\x02\x00\x00\x00\x00\x00\x00\x00'
tRp204
g2
I1
tp205
(lp206
F0
aF-0.025860610459195892
aF0
aF-0.01442823075566672
aF0
aF0.031370995154047003
aF0
aF0.11318228590927298
aF0
aF0.003342409981913326
aF-0.011720478975838883
aF0
aF0.0039386994958162096
aF0.24691123467896339
aF0
aF-0.00026876094868475363
aF-0.14815499248774799
aF0
aF0.0003401382212719969
aF0.064508090706888302
as(I0
g2
g3
(g5
S'\x01\x00\x00\x00\x00\x00\x00\x00'
tRp207
g2
I1
tp208
(lp209
F0
aF-0.0075419700853299829
aF0
aF-0.0074078061351262343
aF0
aF-0.0066388330410557632
aF0
aF-0.0029214429039947755
aF0
aF0.0061274862934281756
aF-0.031355765737521316
aF0
aF0.0010281936943152777
aF-0.0073029646761693665
aF0
aF0.0033009730983684844
aF-0.019598268043817126
aF0
aF-5.4250871295197277e-05
aF-0.0001804126729786955
as(I8
g13
g3
(g5
S'\x07\x00\x00\x00\x00\x00\x00\x00'
tRp210
g2
I0
tp211
(lp212
F0.0060503943426238908
aF0
aF0.0061040886751191729
aF0
aF0.0063314808992923242
aF0
aF0.0061537529994887792
aF0
aF0.004191212639527468
aF0.00051667386774361518
aF0
aF-0.00085165622960850886
aF0.018180403333213649
aF0
aF0.006759570172578418
aF-0.0033953631511695289
aF0
aF9.211347902457961e-07
aF0.0070085907145311897
aF0
as(I6
g2
g3
(g5
S'\x00\x00\x00\x00\x00\x00\x00\x00'
tRp213
g2
I0
tp214
(lp215
F0
aF0.20731584415008356
aF0
aF0.21236120495198046
aF0
aF0.22517226429986931
aF0
aF0.19828546660252172
aF0
aF0.03631564634880035
aF0.69830662700551815
aF0
aF0.012612213165436474
aF0.45044718229699465
aF0
aF0.013387898190147926
aF0.24201831486931186
aF0
aF-0.00012278379767864764
aF0.093179544353469687
as(I4
g2
g3
(g5
S'\x07\x00\x00\x00\x00\x00\x00\x00'
tRp216
g2
I0
tp217
(lp218
F0
aF0.0092870192077142144
aF0
aF0.010094351424993847
aF0
aF0.011898184843835841
aF0
aF0.0060130939419578353
aF0
aF0.0081948436740771537
aF0.035729527865747096
aF0
aF0.0064423214676396327
aF0.020484209708026738
aF0
aF0.0014029935898455111
aF0.003580507249855537
aF0
aF0.00049166640945746487
aF0.0015026962746248157
as(I9
g13
g3
(g5
S'\x01\x00\x00\x00\x00\x00\x00\x00'
tRp219
g2
I2
tp220
(lp221
F-0.00013898829542972164
aF0
aF-0.00011586484589205336
aF0
aF-4.9790097038838386e-05
aF0
aF-9.8756924609852636e-07
aF0
aF-4.4291658391554329e-05
aF-3.2477159842593094e-05
aF0
aF-3.3582988601923217e-07
aF-6.274320657763303e-06
aF0
aF-4.3304249872616295e-05
aF-1.9650053077179743e-05
aF0
aF-6.3291860545575655e-11
aF-5.6659031929392943e-08
aF0
as(I0
g2
g3
(g5
S'\x04\x00\x00\x00\x00\x00\x00\x00'
tRp222
g2
I1
tp223
(lp224
F0
aF0.023724977903951901
aF0
aF0.012732340046165688
aF0
aF-0.031793067565841798
aF0
aF-0.11316168848084832
aF0
aF0.0042996366903584474
aF0.033813245488568379
aF0
aF-0.00054494977168182595
aF-0.25153148076813209
aF0
aF0.0034408992894630198
aF0.17238179484691929
aF0
aF-0.00015408138056227132
aF-0.074061705108338913
as(I5
g2
I5
g2
I0
tp225
(lp226
F-0.011232393098963067
aF-0.016021953628243074
aF-0.011073021422013773
aF-0.015033331934746541
aF-0.010068004194699979
aF-0.0095622616877538424
aF-0.0046316843336904768
aF0.01866407791035149
aF-0.00090287067680125334
aF-0.023008096767943943
aF-0.038163365049959624
aF-0.0002817536569018228
aF-0.011029726968499694
aF0.0034501232654087048
aF-0.00083060557917174636
aF-0.0064390010171253217
aF-0.014661592549754479
aF-7.4377210291734692e-05
aF0.0011234074697956062
aF0.016350229208607216
as(I6
g2
g3
(g5
S'\x03\x00\x00\x00\x00\x00\x00\x00'
tRp227
g2
I1
tp228
(lp229
F0
aF-0.022544585366484599
aF0
aF-0.011590566601525742
aF0
aF0.032722591201186035
aF0
aF0.11336951406065629
aF0
aF0.0023847866860575552
aF-0.014168224109536998
aF0
aF0.0037782522721652992
aF0.2501819851004134
aF0
aF-0.00035643759842111158
aF-0.14141425555339912
aF0
aF0.00047950186815520171
aF0.076931449091448875
as(I5
g2
g3
(g5
S'\x08\x00\x00\x00\x00\x00\x00\x00'
tRp230
g13
I2
tp231
(lp232
F0
aF0.32106522462472864
aF0
aF0.31600755508666784
aF0
aF0.28576791162913917
aF0
aF0.13035324301577048
aF0
aF0.047770313630934244
aF0.32217593557260421
aF0
aF0.09786934348964349
aF0.1329892911041059
aF0
aF0.01831199936388208
aF0.10109978095016245
aF0
aF0.050622305480906168
aF0.0044229663271199062
as(I0
g2
g3
(g5
S'\x05\x00\x00\x00\x00\x00\x00\x00'
tRp233
g2
I1
tp234
(lp235
F0
aF0.023860512995584643
aF0
aF0.012873502694711769
aF0
aF-0.031651216708452709
aF0
aF-0.11315206595717514
aF0
aF0.031042168016074421
aF0.038354548690023652
aF0
aF-0.0098152222462541995
aF-0.25929566109895968
aF0
aF0.013248698083300755
aF0.1764972222689159
aF0
aF-0.010023202344259715
aF-0.073739706669413083
as(I9
g13
I9
g13
I2
tp236
(lp237
F-0.25448524101899223
aF-0.40578046858784744
aF-0.25837440960206193
aF-0.36836646336511869
aF-0.2781462161984164
aF-0.23620289229964925
aF-0.33980515493714381
aF-0.031947661839367758
aF-0.0097898109440693742
aF-0.3293530220673288
aF-0.06413500035348782
aF-0.0040946481107451867
aF-0.013848300391764667
aF-0.0055712572696331774
aF-0.0053466798620930281
aF-0.29518595714262158
aF-0.050267853802742728
aF-0.00035852264005642399
aF-2.5838866804098803e-05
aF-8.8271114996369773e-06
as(I4
g2
g3
(g5
S'\x03\x00\x00\x00\x00\x00\x00\x00'
tRp238
g2
I0
tp239
(lp240
F0
aF-0.20209928396956039
aF0
aF-0.20923557969389345
aF0
aF-0.23005905220272604
aF0
aF-0.22086117581280246
aF0
aF-0.013845668826819668
aF-0.66708416097561918
aF0
aF-0.012871426584591464
aF-0.51331324851685123
aF0
aF-0.0021960179497073793
aF-0.19205208116162312
aF0
aF-0.0016011338811650097
aF-0.11290115353325074
as(I4
g2
g3
(g5
S'\x07\x00\x00\x00\x00\x00\x00\x00'
tRp241
g2
I2
tp242
(lp243
F0
aF0.0079010134368163558
aF0
aF0.0074209524455475699
aF0
aF0.0054667253144573035
aF0
aF0.0010914214259786748
aF0
aF0.027381856348353627
aF-0.14707264107519388
aF0
aF0.018099475898389686
aF0.012968860520034554
aF0
aF0.0052678014815405894
aF-0.17991613482254037
aF0
aF0.00051933232987905642
aF-0.00023747212089513434
as(I3
g2
g3
(g5
S'\x07\x00\x00\x00\x00\x00\x00\x00'
tRp244
g2
I1
tp245
(lp246
F0
aF0.026766778403563243
aF0
aF0.015071560227221389
aF0
aF-0.031500120231611375
aF0
aF-0.11466598009622377
aF0
aF-0.0090032808989918695
aF0.053591814438748553
aF0
aF-0.056292894484612076
aF-0.2588883417928573
aF0
aF0.00048837163190976272
aF0.21690414896772142
aF0
aF-0.032060042843261125
aF-0.062580300834984282
as(I1
g2
g3
(g5
S'\t\x00\x00\x00\x00\x00\x00\x00'
tRp247
g13
I1
tp248
(lp249
F0
aF3.8226938814065993e-05
aF0
aF3.1867132127368804e-05
aF0
aF1.3694124294174713e-05
aF0
aF2.7161818934854499e-07
aF0
aF1.1860759123756363e-05
aF1.0126114169077562e-05
aF0
aF4.2027831541754958e-07
aF5.2664385549690671e-07
aF0
aF1.0685130809341402e-05
aF8.7477049968835994e-06
aF0
aF2.9131401051354812e-11
aF4.7373044827921639e-10
as(I9
g13
g3
(g5
S'\x03\x00\x00\x00\x00\x00\x00\x00'
tRp250
g2
I2
tp251
(lp252
F-0.0068085076893338948
aF0
aF-0.0057062387913595948
aF0
aF-0.0025136929964205373
aF0
aF-5.5891206769638816e-05
aF0
aF-0.002024385477331019
aF-0.0018967959732209166
aF0
aF-2.5824813531510575e-05
aF-0.00036773459600287708
aF0
aF-0.0019508042060612861
aF-0.0011396618939106288
aF0
aF-1.8851858959263033e-08
aF-2.9302543201362576e-06
aF0
as(I7
g2
g3
(g5
S'\x01\x00\x00\x00\x00\x00\x00\x00'
tRp253
g2
I2
tp254
(lp255
F0
aF-0.15718180614647193
aF0
aF-0.15646759470679855
aF0
aF-0.15196209726590398
aF0
aF-0.11749497482354027
aF0
aF0.044697375704193153
aF-0.51785236773569709
aF0
aF-0.010700472908233977
aF-0.19457198083011429
aF0
aF0.067002511694322212
aF-0.39087179838455111
aF0
aF2.03850752904917e-06
aF-0.08555297044066773
as(I9
g13
g3
(g5
S'\x08\x00\x00\x00\x00\x00\x00\x00'
tRp256
g13
I0
tp257
(lp258
F-0.012156305928117011
aF0
aF-0.012342084572538631
aF0
aF-0.013286548498126006
aF0
aF-0.016231885993965526
aF0
aF-0.00046764180247943639
aF0.0026475289378018346
aF0
aF-0.00019559403485599434
aF-0.0084468224197539257
aF0
aF-0.00025540135782748481
aF7.8052595183249129e-07
aF0
aF-1.712598686364221e-05
aF-0.015214199270099028
aF0
as(I6
g2
g3
(g5
S'\x05\x00\x00\x00\x00\x00\x00\x00'
tRp259
g2
I1
tp260
(lp261
F0
aF0.0010189460141760698
aF0
aF0.0020653714595631895
aF0
aF0.0051177769240152576
aF0
aF0.0038823687808854195
aF0
aF-0.0011607813674348838
aF0.040412049362553618
aF0
aF0.00036336208057640774
aF0.012454549660171199
aF0
aF-0.00094284966460444044
aF0.023423916119829809
aF0
aF7.1643030482691612e-05
aF0.0007060093778073252
as(I3
g2
g3
(g5
S'\x06\x00\x00\x00\x00\x00\x00\x00'
tRp262
g2
I1
tp263
(lp264
F0
aF0.022544585366484599
aF0
aF0.011590566601525742
aF0
aF-0.032722591201186035
aF0
aF-0.11336951406065629
aF0
aF-0.012673377824453358
aF0.044537403729112662
aF0
aF-0.0035521790512077671
aF-0.25071177455434224
aF0
aF-0.0055867206349667492
aF0.19677011157172453
aF0
aF4.0372846907143677e-05
aF-0.066584900707127054
as(I8
g13
g3
(g5
S'\x02\x00\x00\x00\x00\x00\x00\x00'
tRp265
g2
I1
tp266
(lp267
F0.021174452181378131
aF0
aF0.023041261404090949
aF0
aF0.025648007925484363
aF0
aF0.0089018229185918868
aF0
aF-0.0004862936173884166
aF0.084906098896807794
aF0
aF-0.00018355757375699774
aF0.041100829000275625
aF0
aF-0.00018557316666351369
aF0.03144869778380395
aF0
aF-3.7140511226435757e-06
aF0.0034461532439676885
aF0
as(I1
g2
g3
(g5
S'\x08\x00\x00\x00\x00\x00\x00\x00'
tRp268
g13
I1
tp269
(lp270
F0
aF0.021600199501908703
aF0
aF0.023652994509625942
aF0
aF0.02682150022076505
aF0
aF0.009935032565216606
aF0
aF-0.0010836302120876835
aF0.12739053867292263
aF0
aF-0.00033408796949986803
aF0.016267474505615553
aF0
aF-0.00049551377097035662
aF0.091414667810992514
aF0
aF2.275381098402954e-06
aF4.8872760120048727e-05
as(I3
g2
I3
g2
I1
tp271
(lp272
F-0.021258597713516313
aF-0.016700851921491344
aF-0.023160274447319912
aF-0.013556284421532755
aF-0.025979996339457669
aF-0.00056957202725563261
aF-0.0093019093809389893
aF0.039630823602223031
aF9.3481473477054298e-05
aF-0.093600932972004822
aF-0.016081767788616065
aF0.00019793890934228088
aF-0.04427627200400356
aF0.045603577732721855
aF-0.00022031775364100923
aF-0.038088252140348201
aF-0.031700278540348237
aF4.326465059618636e-06
aF-0.0024718324085569233
aF0.014809071231784593
as(I7
g2
g3
(g5
S'\t\x00\x00\x00\x00\x00\x00\x00'
tRp273
g13
I1
tp274
(lp275
F0
aF0.0022058894936285377
aF0
aF0.0020712598403285409
aF0
aF0.0015227523860871582
aF0
aF0.00029771044001696039
aF0
aF-0.0039861486486826988
aF0.0025986596862010102
aF0
aF0.0021041280901504546
aF-0.00024375634916990764
aF0
aF-0.0099291281190967591
aF0.0031829903482438571
aF0
aF4.2844684230364941e-06
aF2.0307944844903435e-08
as(I1
g2
g3
(g5
S'\x05\x00\x00\x00\x00\x00\x00\x00'
tRp276
g2
I2
tp277
(lp278
F0
aF0.15162197703167177
aF0
aF0.15131091670767632
aF0
aF0.14909147715435625
aF0
aF0.12583374384488932
aF0
aF0.083972074920621032
aF0.44902035530893697
aF0
aF0.047248534664734061
aF0.21758653249712986
aF0
aF0.025454825141917829
aF0.33174838636853571
aF0
aF0.0065854642418294636
aF0.10637869779172117
as(I6
g2
I6
g2
I0
tp279
(lp280
F0.014292498388734136
aF0.006874142908945613
aF0.015033862059234671
aF0.0064131373513817425
aF0.016476622982956431
aF0.0057565856555467365
aF0.0081273035610810469
aF0.007267256628086291
aF0.0024592839259347824
aF0.032903092197347147
aF0.0070853434772994578
aF2.9424180346827189e-05
aF0.025430401803648382
aF0.025465188679947674
aF0.0023718113656592222
aF0.010048416600976919
aF-0.040923386364564648
aF-3.9529898281369153e-10
aF0.0035900483635619607
aF-0.0057451954926652201
as(I8
g13
g3
(g5
S'\t\x00\x00\x00\x00\x00\x00\x00'
tRp281
g13
I2
tp282
(lp283
F0.25448524101899223
aF0
aF0.25837440960206193
aF0
aF0.2781462161984164
aF0
aF0.33980515493714381
aF0
aF0.0097898109440693742
aF-0.023498365213206932
aF0
aF0.0040946481107451867
aF0.00034734010974683311
aF0
aF0.0053466798620930281
aF-0.024235888615178128
aF0
aF0.00035852264005642399
aF2.5467091848781072e-06
aF0
as(I8
g13
g3
(g5
S'\x03\x00\x00\x00\x00\x00\x00\x00'
tRp284
g2
I1
tp285
(lp286
F0.019869806411241878
aF0
aF0.021996322644114046
aF0
aF0.02546725623115377
aF0
aF0.0092905087590439885
aF0
aF-0.00049959575083807241
aF0.080849943312793965
aF0
aF-0.00020410779635406001
aF0.041428868244258274
aF0
aF-0.00016831114845506585
aF0.028920659112072058
aF0
aF-4.330840769983922e-06
aF0.0040995311584694919
aF0
as(I1
g2
g3
(g5
S'\x00\x00\x00\x00\x00\x00\x00\x00'
tRp287
g2
I1
tp288
(lp289
F0
aF0.0075419700853299829
aF0
aF0.0074078061351262343
aF0
aF0.0066388330410557649
aF0
aF0.0029214429039947773
aF0
aF0.0068436722592250844
aF0.012623638090343274
aF0
aF0.0012504510712487351
aF0.010781837466411445
aF0
aF0.0036652130936165443
aF-0.0042798117045359588
aF0
aF-4.3547906616751916e-05
aF0.0011229113798844829
as(I2
g2
g3
(g5
S'\x03\x00\x00\x00\x00\x00\x00\x00'
tRp290
g2
I0
tp291
(lp292
F0
aF0.0019876608179547617
aF0
aF0.0024612254056881888
aF0
aF0.0042024694852116073
aF0
aF0.005437995609559057
aF0
aF0.018482994915035994
aF0.033985794712656739
aF0
aF0.0077507787736523729
aF0.0087648036143245199
aF0
aF0.0064655981087819864
aF0.019673160293930719
aF0
aF0.00020022679357502353
aF0.00016915650046296711
as(I9
g13
g3
(g5
S'\x05\x00\x00\x00\x00\x00\x00\x00'
tRp293
g2
I1
tp294
(lp295
F0.0072536296422784294
aF0
aF0.0073729890341254489
aF0
aF0.0067100595658727488
aF0
aF0.0013162489241647633
aF0
aF0.0041964479863046064
aF0.0010476467916334263
aF0
aF0.0023088021845988913
aF0.0017460318872660233
aF0
aF-0.00036517338195465529
aF-0.00068241608897880721
aF0
aF3.7870490830203286e-05
aF0.00010929519536770163
aF0
as(I9
g13
g3
(g5
S'\x05\x00\x00\x00\x00\x00\x00\x00'
tRp296
g2
I2
tp297
(lp298
F-0.17411735781408111
aF0
aF-0.15585933362810672
aF0
aF-0.092737343806187214
aF0
aF-0.0077242401841313762
aF0
aF-0.11063297253860974
aF-0.046737087067029823
aF0
aF-0.0037283835042969584
aF-0.015310482706686923
aF0
aF-0.10309416534864059
aF-0.020294102081850222
aF0
aF-9.9217804133723268e-05
aF-0.0003094962717644177
aF0
as(I8
g13
g3
(g5
S'\x06\x00\x00\x00\x00\x00\x00\x00'
tRp299
g2
I1
tp300
(lp301
F0.0057535316987848868
aF0
aF0.0054207521487086158
aF0
aF0.0040473136744671881
aF0
aF0.00084988459914419831
aF0
aF0.00015158509192337373
aF0.013306847104732594
aF0
aF-1.0741678067388495e-05
aF0.0032826741834557677
aF0
aF0.00018084479845343568
aF0.0093230623314679087
aF0
aF-4.6755752146939341e-10
aF0.00018891864719486253
aF0
as(I7
g2
g3
(g5
S'\x08\x00\x00\x00\x00\x00\x00\x00'
tRp302
g13
I1
tp303
(lp304
F0
aF0.020429664094778296
aF0
aF0.015030226938344125
aF0
aF-0.003032622743670086
aF0
aF-0.022012991732635521
aF0
aF0.011002424280845613
aF-0.020182400143114489
aF0
aF-0.0074308082455489784
aF-0.0065405086041686452
aF0
aF0.0028287157532732995
aF0.01336342659616551
aF0
aF-0.026073551031328211
aF0.0006316877107964353
as(I1
g2
g3
(g5
S'\x04\x00\x00\x00\x00\x00\x00\x00'
tRp305
g2
I0
tp306
(lp307
F0
aF0.20904320358610723
aF0
aF0.21558919259938791
aF0
aF0.23315550383279321
aF0
aF0.2090791213105648
aF0
aF-0.0037547444931039444
aF0.68247629083422778
aF0
aF-8.7647750016320639e-05
aF0.48954351611588426
aF0
aF-0.003025281852775607
aF0.22017206060412292
aF0
aF1.7686727215711186e-05
aF0.11471398903152728
as(I4
g2
g3
(g5
S'\x05\x00\x00\x00\x00\x00\x00\x00'
tRp308
g2
I0
tp309
(lp310
F0
aF0.0015291047808674296
aF0
aF0.0018940428396530262
aF0
aF0.0032367859500969376
aF0
aF0.0041971855065374014
aF0
aF0.0071303172904107915
aF-0.0066061468089303639
aF0
aF0.0044189383704570512
aF0.020420546208542615
aF0
aF0.0013987946354097889
aF-0.021103757515308269
aF0
aF4.2252091165355648e-05
aF0.0077039518734839836
as(I7
g2
g3
(g5
S'\x01\x00\x00\x00\x00\x00\x00\x00'
tRp311
g2
I1
tp312
(lp313
F0
aF0.021895875515486579
aF0
aF0.01144246873816479
aF0
aF-0.031704128411808002
aF0
aF-0.1148911849184108
aF0
aF-0.035950672555534802
aF0.083047211775131247
aF0
aF0.004383347861320731
aF-0.26860090021307886
aF0
aF-0.041701811555395402
aF0.24917993199493041
aF0
aF0.00016914737600455716
aF-0.080357089446708288
as(I3
g2
g3
(g5
S'\x02\x00\x00\x00\x00\x00\x00\x00'
tRp314
g2
I0
tp315
(lp316
F0
aF-0.0019876608179547617
aF0
aF-0.0024612254056881611
aF0
aF-0.0042024694852115518
aF0
aF-0.0054379956095589876
aF0
aF-0.019416507547036291
aF-0.033724471431396209
aF0
aF-0.007786675923361447
aF-0.0086299121227467364
aF0
aF-0.0070615283170356747
aF-0.023502313420016029
aF0
aF-0.00018285604859867271
aF-0.001664274527152128
as(I0
g2
g3
(g5
S'\x08\x00\x00\x00\x00\x00\x00\x00'
tRp317
g13
I1
tp318
(lp319
F0
aF0.02438333380554622
aF0
aF0.025777219602018023
aF0
aF0.026866225190243721
aF0
aF0.0089324671933206298
aF0
aF-0.00086084422740889937
aF0.13031821331944474
aF0
aF-0.00028344677200589684
aF0.015568927800799048
aF0
aF-0.00039119369853996249
aF0.096080184954513412
aF0
aF-6.8329198564388116e-06
aF3.0972687782065514e-05
as(I4
g2
g3
(g5
S'\x02\x00\x00\x00\x00\x00\x00\x00'
tRp320
g2
I0
tp321
(lp322
F0
aF0.20360952941947619
aF0
aF0.20954781590139918
aF0
aF0.22589655507665193
aF0
aF0.20777507114292021
aF0
aF0.017818801443025514
aF0.67981092180230485
aF0
aF0.013206409732519585
aF0.49346354767982753
aF0
aF0.0037236059409219507
aF0.19707842802981076
aF0
aF0.0011263854932835775
aF0.098421381324816051
as(I1
g2
I1
g2
I2
tp323
(lp324
F0.19563168508852774
aF0.56931320494646243
aF0.18329725615950623
aF0.56805044676776961
aF0.1351990531692488
aF0.55927080937029072
aF0.030653014652868904
aF0.46516991512925498
aF0.0007232215246011194
aF0.30856169576970532
aF0.90531414708507485
aF0.0002631567091917121
aF0.12929244747560958
aF0.80568821738393215
aF0.00029651127664074428
aF0.136006597106861
aF0.43916335118483868
aF5.5576645665650249e-06
aF0.010565100804762912
aF0.36393268625200381
as(I6
g2
g3
(g5
S'\x02\x00\x00\x00\x00\x00\x00\x00'
tRp325
g2
I0
tp326
(lp327
F0
aF0.20865521958072378
aF0
aF0.2135317628652838
aF0
aF0.2255749023599527
aF0
aF0.1960425665049074
aF0
aF0.035186215130658456
aF0.69443455660782361
aF0
aF0.011501012066617567
aF0.46881527265666356
aF0
aF0.013656914648212571
aF0.22068760277840443
aF0
aF-0.0001304759913317684
aF0.09234327094530792
as(I8
g13
g3
(g5
S'\x07\x00\x00\x00\x00\x00\x00\x00'
tRp328
g2
I1
tp329
(lp330
F-0.020429664094778116
aF0
aF-0.015030226938343955
aF0
aF0.003032622743670184
aF0
aF0.022012991732635528
aF0
aF0.010584865002701298
aF-0.020494915596837592
aF0
aF-0.0041117323328292727
aF0.065049886758501305
aF0
aF0.020551719465630672
aF-0.039565755761925975
aF0
aF-5.7533815747829284e-05
aF0.014099419471479526
aF0
as(I1
g2
g3
(g5
S'\x07\x00\x00\x00\x00\x00\x00\x00'
tRp331
g2
I2
tp332
(lp333
F0
aF0.15718180614647195
aF0
aF0.15646759470679855
aF0
aF0.15196209726590404
aF0
aF0.11749497482354028
aF0
aF0.07520136446190398
aF0.4617371791114061
aF0
aF0.089860311572517157
aF0.20286396486454936
aF0
aF0.0050612117889730739
aF0.34246390858903863
aF0
aF0.0059040603585397587
aF0.091092270869001776
as(I7
g2
g3
(g5
S'\x00\x00\x00\x00\x00\x00\x00\x00'
tRp334
g2
I1
tp335
(lp336
F0
aF0.024615145199428395
aF0
aF0.013607311881039065
aF0
aF-0.03101967669620254
aF0
aF-0.11296086606975685
aF0
aF-0.034489288046996795
aF0.071431276575875613
aF0
aF0.0043127975087915629
aF-0.26138930519187531
aF0
aF-0.040659749995532013
aF0.24246849662518136
aF0
aF0.00014043216837787779
aF-0.0649841449775031
as(I9
g13
g3
(g5
S'\x01\x00\x00\x00\x00\x00\x00\x00'
tRp337
g2
I1
tp338
(lp339
F-3.8226938814065993e-05
aF0
aF-3.1867132127368804e-05
aF0
aF-1.3694124294174713e-05
aF0
aF-2.7161818934854499e-07
aF0
aF-1.2180480611462422e-05
aF-8.9258869403833375e-06
aF0
aF-9.2540216635863408e-08
aF-1.7254030873788115e-06
aF0
aF-1.1908418335602145e-05
aF-5.3987835232189668e-06
aF0
aF-1.7627165785502862e-11
aF-1.5571313278112367e-08
aF0
as(I0
g2
g3
(g5
S'\x04\x00\x00\x00\x00\x00\x00\x00'
tRp340
g2
I0
tp341
(lp342
F0
aF-0.21216608589499875
aF0
aF-0.21704475050106387
aF0
aF-0.22852177037637114
aF0
aF-0.19339105622555913
aF0
aF0.0035160799861438633
aF-0.67926092550035044
aF0
aF-0.00025599256962046307
aF-0.46754770980528948
aF0
aF0.0030979087950017839
aF-0.23168414541980742
aF0
aF-3.3202995829659983e-05
aF-0.10330519179903293
as(I2
g2
g3
(g5
S'\x05\x00\x00\x00\x00\x00\x00\x00'
tRp343
g2
I0
tp344
(lp345
F0
aF0.20333782717019031
aF0
aF0.20920345920169278
aF0
aF0.22539718997211761
aF0
aF0.2078854632793477
aF0
aF0.041735850309359813
aF0.69243200304186836
aF0
aF0.040363240548200313
aF0.483114724982106
aF0
aF0.0088044527895581055
aF0.20942002984274752
aF0
aF0.0093922102772455267
aF0.09381349000026043
as(I7
g2
g3
(g5
S'\x03\x00\x00\x00\x00\x00\x00\x00'
tRp346
g2
I1
tp347
(lp348
F0
aF-0.026766778403563202
aF0
aF-0.015071560227221351
aF0
aF0.031500120231611396
aF0
aF0.11466598009622377
aF0
aF0.020608774790470769
aF0.0052800272441385025
aF0
aF-0.0013678996305450069
aF0.23157411329732461
aF0
aF0.023135012388184908
aF-0.10368056734346665
aF0
aF-2.3049060064141187e-05
aF0.066079288780535428
as(I1
g2
g3
(g5
S'\x00\x00\x00\x00\x00\x00\x00\x00'
tRp349
g2
I0
tp350
(lp351
F0
aF-0.003825261901735072
aF0
aF-0.0047356328163473127
aF0
aF-0.0080816873448200932
aF0
aF-0.010447007842486339
aF0
aF-0.02193849910113338
aF-0.022887061852393406
aF0
aF-0.0085756751443757315
aF-0.028980074435924184
aF0
aF-0.0081529862847314078
aF-0.00033197556686645051
aF0
aF-0.0001903608719142421
aF-0.0088909939984960981
as(I4
g2
g3
(g5
S'\x02\x00\x00\x00\x00\x00\x00\x00'
tRp352
g2
I1
tp353
(lp354
F0
aF0.02742147306595813
aF0
aF0.015653284374253146
aF0
aF-0.031057405646687589
aF0
aF-0.113450181440146
aF0
aF-0.0038982610031878962
aF0.012379026020820472
aF0
aF-0.0055326288545190965
aF-0.2435003393516349
aF0
aF0.00038119676573991911
aF0.13988933073298551
aF0
aF-0.00064887850830333299
aF-0.061276901588217865
as(I0
g2
g3
(g5
S'\x05\x00\x00\x00\x00\x00\x00\x00'
tRp355
g2
I2
tp356
(lp357
F0
aF0.16816441853975053
aF0
aF0.16738342088026792
aF0
aF0.16275780057323289
aF0
aF0.12823101785872806
aF0
aF0.082472126598553311
aF0.52784124915728847
aF0
aF0.04535115469176193
aF0.23826200341315357
aF0
aF0.024968557664959631
aF0.37429122611429794
aF0
aF0.0055857866204703059
aF0.10236176436889145
as(I5
g2
g3
(g5
S'\x02\x00\x00\x00\x00\x00\x00\x00'
tRp358
g2
I2
tp359
(lp360
F0
aF-0.16652577797093948
aF0
aF-0.16594344491056029
aF0
aF-0.16299110081134111
aF0
aF-0.13880314408893279
aF0
aF0.033472410602361502
aF-0.51027189230304693
aF0
aF-0.0050631734091601726
aF-0.2319455298311322
aF0
aF0.033044581826335212
aF-0.36379378866026929
aF0
aF-0.00037187920571175528
aF-0.097720736748788783
as(I6
g2
I6
g2
I2
tp361
(lp362
F0.25157146768816019
aF-0.66625276533359967
aF0.23254324637840601
aF-0.66285012740993665
aF0.16208013630932921
aF-0.64483120329535282
aF0.030353308343985051
aF-0.51989368770503397
aF0.014744283185215538
aF0.16451529149105285
aF-1.0624565572521982
aF0.00034191655928828349
aF0.073945594349962881
aF-0.90757260389518946
aF0.013764255939606982
aF0.073446869434320813
aF-0.49765637221251952
aF3.95983660529335e-09
aF0.0068107532447328045
aF-0.38144604586315223
as(I9
g13
I9
g13
I1
tp363
(lp364
F0.025719337704557848
aF0.0041789318342368396
aF0.019491793891827078
aF0.0045389343641892331
aF-0.0039554878778284303
aF0.004777243978683207
aF-0.042932273827802937
aF0.0010000229538428209
aF0.0091740357144820366
aF-0.0071784820614943755
aF0.0029220127928600262
aF0.0034483104756698503
aF0.0059531421678477832
aF2.405790848350944e-05
aF0.0043629951155740171
aF-0.021173834887482462
aF0.0027538173800213577
aF5.3183053221001772e-05
aF1.7075783440110618e-05
aF-7.9252375192444467e-07
as(I1
g2
g3
(g5
S'\x03\x00\x00\x00\x00\x00\x00\x00'
tRp365
g2
I2
tp366
(lp367
F0
aF-0.0041194180213778618
aF0
aF-0.0042298755601552183
aF0
aF-0.0046015797842119729
aF0
aF-0.0044816589911680438
aF0
aF0.037871936915690178
aF0.54614713650496283
aF0
aF0.010469227078970671
aF-0.039867347293159848
aF0
aF0.018471282893721845
aF0.4800849161132752
aF0
aF0.00047273459403833208
aF-0.042601655950385432
as(I4
g2
g3
(g5
S'\x03\x00\x00\x00\x00\x00\x00\x00'
tRp368
g2
I1
tp369
(lp370
F0
aF0.027643588804310962
aF0
aF0.015818228249516272
aF0
aF-0.031280266926115366
aF0
aF-0.11634362605112215
aF0
aF-0.0029315731275316665
aF0.022777070170450966
aF0
aF-0.0054204362647835951
aF-0.25222968178368549
aF0
aF0.00040033639966729231
aF0.14602307783880117
aF0
aF-0.00092508569567821401
aF-0.074383203443009263
as(I4
g2
g3
(g5
S'\x07\x00\x00\x00\x00\x00\x00\x00'
tRp371
g2
I1
tp372
(lp373
F0
aF-0.0026397592830965377
aF0
aF-0.0053119548782372683
aF0
aF-0.013095617556179995
aF0
aF-0.0099254007860260264
aF0
aF-0.0015865478983931262
aF-0.06431947419319077
aF0
aF-0.0049510806713655552
aF-0.023054612743104455
aF0
aF0.00050481379904611942
aF-0.032013618981600649
aF0
aF-0.0012309975999880765
aF-0.0013695718860736793
as(I8
g13
g3
(g5
S'\x01\x00\x00\x00\x00\x00\x00\x00'
tRp374
g2
I2
tp375
(lp376
F-0.19549269679309805
aF0
aF-0.18318139131361419
aF0
aF-0.13514926307220995
aF0
aF-0.030652027083622801
aF0
aF-0.00067892986620956511
aF-0.48867156937401918
aF0
aF-0.00026282087930569285
aF-0.14037878229809359
aF0
aF-0.000253207026768128
aF-0.28195722043371807
aF0
aF-5.55760127470448e-06
aF-0.0092776653497248628
aF0
as(I1
g2
g3
(g5
S'\t\x00\x00\x00\x00\x00\x00\x00'
tRp377
g13
I0
tp378
(lp379
F0
aF-4.4586980013919561e-05
aF0
aF-3.7169054790782964e-05
aF0
aF-1.5972496494744937e-05
aF0
aF-3.1680890899494057e-07
aF0
aF-1.3837571123805092e-05
aF-1.1811868844405385e-05
aF0
aF-4.8980589123501727e-07
aF-6.1400599036767507e-07
aF0
aF-1.2467368245242606e-05
aF-1.0204789370039419e-05
aF0
aF-3.4014292180176523e-11
aF-5.5311492466160143e-10
as(I9
g13
g3
(g5
S'\x08\x00\x00\x00\x00\x00\x00\x00'
tRp380
g13
I1
tp381
(lp382
F0.025719337704558157
aF0
aF0.019491793891827328
aF0
aF-0.0039554878778282551
aF0
aF-0.042932273827802916
aF0
aF0.0091740357144820817
aF0.017423169555781298
aF0
aF0.0034483104756698525
aF-0.018401022719408428
aF0
aF0.0043629951155740553
aF0.0014305977820147395
aF0
aF5.3183053221001393e-05
aF-0.047095275467651722
aF0
as(I3
g2
g3
(g5
S'\t\x00\x00\x00\x00\x00\x00\x00'
tRp383
g13
I2
tp384
(lp385
F0
aF0.0068085076893338948
aF0
aF0.0057062387913595948
aF0
aF0.0025136929964205373
aF0
aF5.5891206769638816e-05
aF0
aF0.0019675629444960833
aF0.0020827652837922817
aF0
aF0.00012295866350283869
aF9.0326684781421606e-05
aF0
aF0.0016419763817796037
aF0.0018389727621131071
aF0
aF5.7022706456112207e-08
aF5.0425911067414306e-08
as(I8
g13
g3
(g5
S'\x02\x00\x00\x00\x00\x00\x00\x00'
tRp386
g2
I0
tp387
(lp388
F-0.090936839597455771
aF0
aF-0.084732277885981019
aF0
aF-0.06092969244290504
aF0
aF-0.01242970525747023
aF0
aF-0.00033090365061142884
aF-0.17414252043529593
aF0
aF-0.00012835681937134293
aF-0.071688005024733797
aF0
aF-0.0001231525279708191
aF-0.064903142425086019
aF0
aF-2.7206938373991465e-06
aF-0.0030360457546820653
aF0
as(I3
g2
I3
g2
I0
tp389
(lp390
F-0.10536214332343333
aF-0.0045881654029953783
aF-0.097987048527606313
aF-0.0058371489456560816
aF-0.070010340420882805
aF-0.011267996944903061
aF-0.014231245145595374
aF-0.026215331692133241
aF-0.0010913053167306995
aF-0.23232521646203741
aF-0.039966651322200078
aF-0.00017270201882362441
aF-0.063898821294394656
aF-0.039719935897883349
aF-0.00080454839248900493
aF-0.13281529130021338
aF0.0070625484530990627
aF-3.6735369880316782e-06
aF-0.0026945032336598198
aF-0.0083014698301601478
as(I2
g2
g3
(g5
S'\x00\x00\x00\x00\x00\x00\x00\x00'
tRp391
g2
I1
tp392
(lp393
F0
aF-2.7755575615628914e-17
aF0
aF0
aF0
aF0
aF0
aF1.1102230246251565e-16
aF0
aF-0.016290754618385788
aF0.0069293450118834456
aF0
aF-0.0044361258091330912
aF0.0013469518301350834
aF0
aF-0.0050910177396499608
aF0.0033330473661956385
aF0
aF0.0012899386158631769
aF-0.0012964007059829542
as(I7
g2
g3
(g5
S'\t\x00\x00\x00\x00\x00\x00\x00'
tRp394
g13
I0
tp395
(lp396
F0
aF0.0015134030317610824
aF0
aF0.0014210371512137277
aF0
aF0.0010447205466919921
aF0
aF0.0002042513388861833
aF0
aF-0.00040244713193254058
aF0.00018710030663340166
aF0
aF0.00061372685445695505
aF7.4444389020280217e-06
aF0
aF-0.002216072611613116
aF0.00017035533045661999
aF0
aF-1.8570003301122619e-08
aF2.0879854750317229e-08
as(I1
g2
g3
(g5
S'\x05\x00\x00\x00\x00\x00\x00\x00'
tRp397
g2
I1
tp398
(lp399
F0
aF0.027100177129617681
aF0
aF0.015569220155756364
aF0
aF-0.031542362590591476
aF0
aF-0.12309340276467075
aF0
aF0.034393009398484199
aF0.034102615947788545
aF0
aF-0.013262541770206582
aF-0.25765676911953578
aF0
aF0.01478863688831406
aF0.15819449002991762
aF0
aF-0.012594869665782295
aF-0.075422251150965777
as(I7
g2
g3
(g5
S'\x02\x00\x00\x00\x00\x00\x00\x00'
tRp400
g2
I2
tp401
(lp402
F0
aF-0.17107168654887026
aF0
aF-0.17066414650795952
aF0
aF-0.16842381017397906
aF0
aF-0.14575294020407842
aF0
aF0.038687934031412061
aF-0.53367429190021587
aF0
aF-0.010108421351614142
aF-0.2460969507027943
aF0
aF0.06146087991830225
aF-0.37141291236410501
aF0
aF2.2056259319262096e-06
aF-0.10207282287176374
as(I8
g13
g3
(g5
S'\x03\x00\x00\x00\x00\x00\x00\x00'
tRp403
g2
I2
tp404
(lp405
F-0.19551792880029084
aF0
aF-0.18221558300442897
aF0
aF-0.13114846233498961
aF0
aF-0.02693788346195404
aF0
aF-0.00081920408703922915
aF-0.48532888703926824
aF0
aF-0.00031236311883795181
aF-0.12673097323560592
aF0
aF-0.00031831171420892539
aF-0.29284568363354485
aF0
aF-6.95072946409741e-06
aF-0.0076872500427206001
aF0
as(I6
g2
g3
(g5
S'\x08\x00\x00\x00\x00\x00\x00\x00'
tRp406
g13
I2
tp407
(lp408
F0
aF0.20090356821326849
aF0
aF0.18928347076028168
aF0
aF0.1413253287629474
aF0
aF0.029676528691696145
aF0
aF0.0034591563616625251
aF0.16914221107328387
aF0
aF0.011627043382841307
aF0.061913765926547723
aF0
aF4.4153590051654329e-05
aF0.067655735669488848
aF0
aF0.0053482997534258234
aF0.0014964120320746796
as(I6
g2
g3
(g5
S'\x07\x00\x00\x00\x00\x00\x00\x00'
tRp409
g2
I1
tp410
(lp411
F0
aF0.017405060721822664
aF0
aF0.017096796971829593
aF0
aF0.01532865389815923
aF0
aF0.0067672299977381426
aF0
aF-0.00082411946554438766
aF0.073124004103255702
aF0
aF0.0023475943117009642
aF0.016488495117504422
aF0
aF-0.00071049027064412531
aF0.046876667813508056
aF0
aF0.00087782036407694781
aF-0.00032074532700993356
as(I9
g13
g3
(g5
S'\x05\x00\x00\x00\x00\x00\x00\x00'
tRp412
g2
I0
tp413
(lp414
F-0.00019717415667095859
aF0
aF-0.00017649838622197509
aF0
aF-0.00010501771785679454
aF0
aF-8.7470919806644649e-06
aF0
aF-0.00095284329075228334
aF-0.00019867007743383798
aF0
aF7.4628659334997018e-05
aF4.2973448869921284e-05
aF0
aF-0.0011913221281637985
aF-0.00013422545975870395
aF0
aF-7.6513030832967097e-07
aF2.2244977230760789e-05
aF0
as(I8
g13
g3
(g5
S'\x06\x00\x00\x00\x00\x00\x00\x00'
tRp415
g2
I0
tp416
(lp417
F-0.011427515733581528
aF0
aF-0.012527219776543308
aF0
aF-0.015141114320129725
aF0
aF-0.0080647803607511032
aF0
aF-0.00039141521177975161
aF-0.019573062549771335
aF0
aF7.4701322301610668e-06
aF-0.02303042979123766
aF0
aF-0.000411804763059317
aF0.0012206226333272563
aF0
aF1.2886487325885089e-10
aF-0.0026466298146691348
aF0
as(I7
g2
g3
(g5
S'\x08\x00\x00\x00\x00\x00\x00\x00'
tRp418
g13
I2
tp419
(lp420
F0
aF0.26773487827013409
aF0
aF0.27011089622207901
aF0
aF0.2801731873738606
aF0
aF0.27230858303164618
aF0
aF0.0082451273804248892
aF0.35150915976004249
aF0
aF0.22273694473481376
aF0.057042279779634601
aF0
aF0.0029733923552459443
aF0.23253541963115404
aF0
aF0.21115706083872515
aF0.00043238086338641759
as(I1
g2
g3
(g5
S'\x04\x00\x00\x00\x00\x00\x00\x00'
tRp421
g2
I1
tp422
(lp423
F0
aF0.023333918698819955
aF0
aF0.012236087728761724
aF0
aF-0.032805938975535034
aF0
aF-0.11658477779748681
aF0
aF0.0029452665756677949
aF0.016738930606704921
aF0
aF-0.00051295545262616306
aF-0.23960094787956396
aF0
aF0.0026449148297543069
aF0.13207768046720164
aF0
aF-8.56621843411118e-05
aF-0.073046472329118192
as(I7
g2
g3
(g5
S'\x01\x00\x00\x00\x00\x00\x00\x00'
tRp424
g2
I0
tp425
(lp426
F0
aF0.21773702176054199
aF0
aF0.22267170192221347
aF0
aF0.23381344373384511
aF0
aF0.19348912735981563
aF0
aF0.044234143111532613
aF0.71452278866761043
aF0
aF-0.00058681257833411685
aF0.45312321887041296
aF0
aF0.044423851144013059
aF0.2891810237752987
aF0
aF2.9511480975147933e-05
aF0.10967756033840403
as(I0
g2
g3
(g5
S'\x08\x00\x00\x00\x00\x00\x00\x00'
tRp427
g13
I0
tp428
(lp429
F0
aF0.088897547257143272
aF0
aF0.08327600650582484
aF0
aF0.061318859029347812
aF0
aF0.013611832215678084
aF0
aF0.00050325944272913443
aF0.24457522861536307
aF0
aF0.00016668896494792057
aF0.02548380750956751
aF0
aF0.00023791892028840231
aF0.18664807275182302
aF0
aF5.3379534839819029e-06
aF0.00018871763610109855
as(I2
g2
g3
(g5
S'\x04\x00\x00\x00\x00\x00\x00\x00'
tRp430
g2
I1
tp431
(lp432
F0
aF-0.027421473065958126
aF0
aF-0.015653284374253146
aF0
aF0.031057405646687568
aF0
aF0.11345018144014597
aF0
aF-0.0042539215208344189
aF-0.033391619936193481
aF0
aF0.00082937555018086704
aF0.25011569951913409
aF0
aF-0.0036219571532108649
aF-0.16656483680232873
aF0
aF0.00016589336408096987
aF0.069021652292184071
as(I7
g2
g3
(g5
S'\x05\x00\x00\x00\x00\x00\x00\x00'
tRp433
g2
I1
tp434
(lp435
F0
aF-0.011850362596328406
aF0
aF-0.0085147356639187211
aF0
aF0.0079883690990827927
aF0
aF0.076190988048972785
aF0
aF-0.013059205272126461
aF-0.0084859885960456224
aF0
aF0.017150655355447828
aF0.10243018766630405
aF0
aF-0.010627752246493129
aF-0.046292037782919272
aF0
aF0.012101197049291081
aF0.044073724883002381
as(I1
g2
I1
g2
I1
tp436
(lp437
F0.021638426440722766
aF0.018684989014692122
aF0.023684861641753312
aF0.01505273265583193
aF0.026835194345059224
aF-4.1070007787413765e-05
aF0.0099353041834059543
aF-0.044381412107526858
aF-0.00050689241255293962
aF0.096452713327517092
aF0.0097619401450214915
aF-0.00019582615952125012
aF0.046500952999532295
aF-0.047943118758867732
aF-0.00018620568795701871
aF0.038291575987843982
aF0.036830642762096494
aF-3.9665309050484289e-06
aF0.0025986360642711965
aF-0.013429107011612573
as(I3
g2
g3
(g5
S'\x01\x00\x00\x00\x00\x00\x00\x00'
tRp438
g2
I2
tp439
(lp440
F0
aF0.004119418021377861
aF0
aF0.0042298755601552192
aF0
aF0.0046015797842119729
aF0
aF0.0044816589911680429
aF0
aF0.038175426245308175
aF0.5726965307902202
aF0
aF0.013200350536668815
aF-0.032618051591675669
aF0
aF0.016124369738319662
aF0.54345444587706204
aF0
aF0.00056128873930443132
aF-0.024274746947095485
as(I7
g2
g3
(g5
S'\x06\x00\x00\x00\x00\x00\x00\x00'
tRp441
g2
I2
tp442
(lp443
F0
aF-0.0010716496392414393
aF0
aF-0.0010526694850350774
aF0
aF-0.00094380287909153512
aF0
aF-0.00041666614679758982
aF0
aF0.060406711953147979
aF-0.25098766769940367
aF0
aF-0.0058289365936262582
aF0.021864677970298667
aF0
aF0.069975424593910845
aF-0.27702377705899628
aF0
aF-2.7336669513847036e-05
aF-0.004505630429937112
as(I5
g2
g3
(g5
S'\t\x00\x00\x00\x00\x00\x00\x00'
tRp444
g13
I2
tp445
(lp446
F0
aF0.17411735781408111
aF0
aF0.15585933362810672
aF0
aF0.092737343806187214
aF0
aF0.0077242401841313762
aF0
aF0.11323507130785057
aF0.034104638332837958
aF0
aF0.010547590313732117
aF0.0030179978171379408
aF0
aF0.087149776626769329
aF0.026588672972594152
aF0
aF1.3879341580943066e-05
aF5.7733263197830486e-06
as(I8
g13
g3
(g5
S'\x07\x00\x00\x00\x00\x00\x00\x00'
tRp447
g2
I2
tp448
(lp449
F-0.26773487827013398
aF0
aF-0.2701108962220789
aF0
aF-0.28017318737386054
aF0
aF-0.27230858303164618
aF0
aF-0.015222743943990763
aF-0.56706260680440035
aF0
aF-0.0013076669337581408
aF-0.90342059571183442
aF0
aF-0.012954280567508459
aF-0.069763997660465052
aF0
aF-3.9410682359701339e-05
aF-0.26719208339010792
aF0
as(I5
g2
g3
(g5
S'\x03\x00\x00\x00\x00\x00\x00\x00'
tRp450
g2
I0
tp451
(lp452
F0
aF0.20279148671820618
aF0
aF0.20963516672422999
aF0
aF0.22974325526231076
aF0
aF0.22262522204893742
aF0
aF0.025520463242031
aF0.67042925671063014
aF0
aF0.006730326406318367
aF0.50789133082786231
aF0
aF0.013474205083426104
aF0.18618219167678365
aF0
aF8.7513871492253715e-05
aF0.1092984398855959
as(I7
g2
g3
(g5
S'\x00\x00\x00\x00\x00\x00\x00\x00'
tRp453
g2
I2
tp454
(lp455
F0
aF-0.17330062574264896
aF0
aF-0.17263205746173468
aF0
aF-0.16815333327425713
aF0
aF-0.13156319568911021
aF0
aF0.039230667421858767
aF-0.55324514081262333
aF0
aF-0.010091206180581101
aF-0.21610671717946742
aF0
aF0.060696198818988106
aF-0.40010457333218297
aF0
aF-1.4583325598594963e-06
aF-0.083195402294156243
as(I9
g13
g3
(g5
S'\x01\x00\x00\x00\x00\x00\x00\x00'
tRp456
g2
I0
tp457
(lp458
F4.4586980013919561e-05
aF0
aF3.7169054790782964e-05
aF0
aF1.5972496494744937e-05
aF0
aF3.1680890899494057e-07
aF0
aF1.4204862732467878e-05
aF1.040836456004872e-05
aF0
aF1.0814212568798259e-07
aF2.0123602151457441e-06
aF0
aF1.3886912717057236e-05
aF6.2952543015478624e-06
aF0
aF2.0271636901641362e-11
aF1.819767128101077e-08
aF0
as(I2
g2
g3
(g5
S'\x05\x00\x00\x00\x00\x00\x00\x00'
tRp459
g2
I1
tp460
(lp461
F0
aF-0.027888024130222816
aF0
aF-0.016055486618712617
aF0
aF0.030852099415231954
aF0
aF0.11346840595182126
aF0
aF-0.031705502181029237
aF-0.036566621519309582
aF0
aF0.012322162671825466
aF0.25674735317452552
aF0
aF-0.012847683439284819
aF-0.17709143913369532
aF0
aF0.012065722398463596
aF0.068996029514600071
as(I6
g2
g3
(g5
S'\x01\x00\x00\x00\x00\x00\x00\x00'
tRp462
g2
I1
tp463
(lp464
F0
aF0.021641909956314459
aF0
aF0.010791897091468466
aF0
aF-0.033103558687425608
aF0
aF-0.11270157765291727
aF0
aF-0.003723088571661069
aF0.058316008544918502
aF0
aF-0.0046841778892469715
aF-0.24826976875577045
aF0
aF-3.7138254423186819e-05
aF0.19455742363891881
aF0
aF-0.00058046883702586279
aF-0.07206270486064062
as(I7
g2
g3
(g5
S'\x05\x00\x00\x00\x00\x00\x00\x00'
tRp465
g2
I0
tp466
(lp467
F0
aF0.0061888499711923242
aF0
aF0.006355510009266643
aF0
aF0.0069210500926233879
aF0
aF0.0068308675738025324
aF0
aF-0.0029004812695880553
aF0.022380961947597491
aF0
aF0.0011115924869893453
aF0.011838645618803954
aF0
aF-0.0047512594816120964
aF0.0037453731735812776
aF0
aF-7.520374780965131e-06
aF-0.0011422737700418513
as(I5
g2
g3
(g5
S'\x08\x00\x00\x00\x00\x00\x00\x00'
tRp468
g13
I0
tp469
(lp470
F0
aF-0.011429567255634026
aF0
aF-0.011249519808235747
aF0
aF-0.010173021912556774
aF0
aF-0.004640431425671142
aF0
aF-0.00049682688094415336
aF-0.026864453642244508
aF0
aF-0.0011086051484069661
aF-0.0066597731389828356
aF0
aF-0.00059723183836264432
aF-0.012589483773915484
aF0
aF-0.0013433482365504974
aF-4.6317185603420901e-05
as(I7
g2
g3
(g5
S'\x02\x00\x00\x00\x00\x00\x00\x00'
tRp471
g2
I1
tp472
(lp473
F0
aF-0.029655836913542823
aF0
aF-0.017586291992898101
aF0
aF0.03003486543642208
aF0
aF0.11336866609307936
aF0
aF0.020132253037405769
aF0.0043296746435473469
aF0
aF-0.0015033179933258989
aF0.22823663336248498
aF0
aF0.022993702416251045
aF-0.10385071247749869
aF0
aF-2.3289638728596198e-05
aF0.05592670967082046
as(I5
g2
g3
(g5
S'\x03\x00\x00\x00\x00\x00\x00\x00'
tRp474
g2
I1
tp475
(lp476
F0
aF0.029642830738449505
aF0
aF0.017577527685861224
aF0
aF-0.030560300040021401
aF0
aF-0.11898169735394422
aF0
aF-0.025544851417231652
aF0.0070347400618779848
aF0
aF0.001621932694835452
aF-0.2411310088512427
aF0
aF-0.020287741138701264
aF0.11532560636247544
aF0
aF0.00032191851344313602
aF-0.071668479215822367
as(I6
g2
g3
(g5
S'\x03\x00\x00\x00\x00\x00\x00\x00'
tRp477
g2
I2
tp478
(lp479
F0
aF-0.15745633185496183
aF0
aF-0.1565254423570227
aF0
aF-0.15177243311425659
aF0
aF-0.12105768701724162
aF0
aF0.014746958206081682
aF-0.48560919164859118
aF0
aF0.0016680622119356326
aF-0.21227351070766917
aF0
aF0.0066013600941124554
aF-0.3549180030007768
aF0
aF-0.0007542941511707842
aF-0.099157543693292494
as(I6
g2
g3
(g5
S'\x05\x00\x00\x00\x00\x00\x00\x00'
tRp480
g2
I0
tp481
(lp482
F0
aF0.0067399078932487422
aF0
aF0.0073292080225139666
aF0
aF0.0086388348999825032
aF0
aF0.0042996809810472436
aF0
aF0.011925266839658222
aF0.027021656239566597
aF0
aF0.0021722182986060267
aF0.010755067696068026
aF0
aF0.0065057805849010018
aF0.010920896976110763
aF0
aF-5.7434489416994913e-05
aF0.0016061194093831984
as(I9
g13
I9
g13
I0
tp483
(lp484
F-0.012156305928117013
aF-0.0023295026525943221
aF-0.012342084572538629
aF-0.002221947367289276
aF-0.013286548498126004
aF-0.0016564942294529106
aF-0.016231885993965526
aF-0.00025713289928011075
aF-0.00046764180247943634
aF-0.0066295303435663176
aF-0.00017085141336724372
aF-0.00019559403485599417
aF0.00082827822569689661
aF-5.7290988437721661e-05
aF-0.0002554013578274847
aF-0.0088640555861828115
aF-3.6716290952875513e-05
aF-1.7125986863642159e-05
aF1.3092372285261551e-06
aF-6.9300385007527673e-08
as(I7
g2
g3
(g5
S'\x04\x00\x00\x00\x00\x00\x00\x00'
tRp485
g2
I2
tp486
(lp487
F0
aF-0.0079010134368163558
aF0
aF-0.0074209524455475691
aF0
aF-0.0054667253144573026
aF0
aF-0.0010914214259786748
aF0
aF0.018125742223729261
aF-0.18601838794364095
aF0
aF-0.00086999298001841569
aF0.0073474579281880194
aF0
aF0.020115954849741657
aF-0.20774081245321721
aF0
aF1.0751623480923156e-05
aF-0.00044872455866671695
as(I0
g2
g3
(g5
S'\x03\x00\x00\x00\x00\x00\x00\x00'
tRp488
g2
I0
tp489
(lp490
F0
aF0.004176589157328936
aF0
aF0.0045410575992818059
aF0
aF0.005348628764865887
aF0
aF0.0026504333314445877
aF0
aF0.013541251348544189
aF0.030298870024679701
aF0
aF0.0044151851785219675
aF0.0092912267625313624
aF0
aF0.0059840958179546285
aF0.013726663278912893
aF0
aF9.6454756332812333e-05
aF0.00043461889654483827
as(I5
g2
g3
(g5
S'\x02\x00\x00\x00\x00\x00\x00\x00'
tRp491
g2
I1
tp492
(lp493
F0
aF0.027888024130222844
aF0
aF0.016055486618712627
aF0
aF-0.030852099415231909
aF0
aF-0.1134684059518212
aF0
aF-0.024512959453996327
aF-0.007853619487307676
aF0
aF0.0012785407935135772
aF-0.22891662788604153
aF0
aF-0.0194208236832542
aF0.095899523122913111
aF0
aF0.00028339840575855601
aF-0.059845962217830846
as(I2
g2
g3
(g5
S'\x03\x00\x00\x00\x00\x00\x00\x00'
tRp494
g2
I2
tp495
(lp496
F0
aF0.014899829642994697
aF0
aF0.014635251860172321
aF0
aF0.013117369815013111
aF0
aF0.0057707450308244063
aF0
aF0.018303151095798473
aF0.2954699796362717
aF0
aF0.0038159075834319715
aF-0.013526860126911481
aF0
aF0.0093114292860226131
aF0.31608939118172386
aF0
aF-0.0001021563013706716
aF0.0069201815803052874
as(I6
g2
g3
(g5
S'\x01\x00\x00\x00\x00\x00\x00\x00'
tRp497
g2
I0
tp498
(lp499
F0
aF-0.20892779773544884
aF0
aF-0.21523233689388788
aF0
aF-0.23159219386600899
aF0
aF-0.20255212537971454
aF0
aF-0.029162827957059077
aF-0.6863850491917618
aF0
aF-0.014408317409916532
aF-0.47494162067402235
aF0
aF-0.0077290516692996129
aF-0.24487479718529656
aF0
aF-0.0001993179954916653
aF-0.11567749474599184
as(I8
g13
I8
g13
I2
tp500
(lp501
F0.25448524101899223
aF-1.781506116357138
aF0.25837440960206193
aF-1.6944595574899752
aF0.2781462161984164
aF-1.3528816870483027
aF0.33980515493714381
aF-0.55630822155491366
aF0.0097898109440693742
aF-0.03776022359044582
aF-2.5757220814520472
aF0.0040946481107451901
aF-0.024669611843719512
aF-0.50540171565357117
aF0.0053466798620930298
aF-0.023079240749736239
aF-1.6004776301460795
aF0.00035852264005642502
aF-0.012688484460873053
aF-0.0092319240579458693
as(I0
g2
g3
(g5
S'\x07\x00\x00\x00\x00\x00\x00\x00'
tRp502
g2
I0
tp503
(lp504
F0
aF0.21446568238948205
aF0
aF0.21840179123063153
aF0
aF0.22668263113303494
aF0
aF0.18711073233494513
aF0
aF0.022936872405697029
aF0.69688106370560943
aF0
aF0.082578654442506644
aF0.45648798158306164
aF0
aF0.00048916103471603463
aF0.24859914567314026
aF0
aF0.038322508830824734
aF0.10202028513355232
as(I2
g2
g3
(g5
S'\x00\x00\x00\x00\x00\x00\x00\x00'
tRp505
g2
I0
tp506
(lp507
F0
aF0
aF0
aF0
aF0
aF0
aF0
aF0
aF0
aF0.017345276565105358
aF0.014340801318699387
aF0
aF0.005729016661698165
aF-0.0024734132392474125
aF0
aF0.0072195744005033018
aF0.02725283345225684
aF0
aF0.0001512467888679722
aF0.0028624099169445318
as(I1
g2
g3
(g5
S'\x05\x00\x00\x00\x00\x00\x00\x00'
tRp508
g2
I0
tp509
(lp510
F0
aF-0.21167685710893119
aF0
aF-0.21750902324029203
aF0
aF-0.23313976146853105
aF0
aF-0.21140271908283509
aF0
aF-0.051831973431069357
aF-0.68570096334353436
aF0
aF-0.042045657734386559
aF-0.51033012339551753
aF0
aF-0.012634904960410136
aF-0.22003761158433871
aF0
aF-0.0088280774727067211
aF-0.12736429827664877
as(I4
g2
I4
g2
I2
tp511
(lp512
F0.21147915719416607
aF-0.6168454200389174
aF0.18994961753569833
aF-0.61438049606468903
aF0.1146689875757281
aF-0.60151080623158837
aF0.010004195963280459
aF-0.50193734549968427
aF0.00092170445342554448
aF0.15730037454455809
aF-0.95369127695756284
aF0.00035514639331686874
aF0.045197110253473033
aF-0.89267824671898044
aF0.00034473453676919915
aF0.079314354724890276
aF-0.44740329882638835
aF7.3960294190155601e-06
aF0.00095434311489220216
aF-0.40400383957743696
as(I8
g13
g3
(g5
S'\t\x00\x00\x00\x00\x00\x00\x00'
tRp513
g13
I0
tp514
(lp515
F0.012156305928117013
aF0
aF0.012342084572538629
aF0
aF0.013286548498126004
aF0
aF0.016231885993965526
aF0
aF0.00046764180247943634
aF0.0061793006030946155
aF0
aF0.00019559403485599417
aF-0.0016116617871037334
aF0
aF0.0002554013578274847
aF0.010682852649412232
aF0
aF1.7125986863642159e-05
aF-9.865884868396743e-07
aF0
as(I2
g2
g3
(g5
S'\x07\x00\x00\x00\x00\x00\x00\x00'
tRp516
g2
I2
tp517
(lp518
F0
aF0.17107168654887023
aF0
aF0.1706641465079595
aF0
aF0.16842381017397903
aF0
aF0.14575294020407842
aF0
aF0.062931978514739195
aF0.55968870649932323
aF0
aF0.10630748400140692
aF0.23157629571616237
aF0
aF0.002081804226202002
aF0.39875884031076536
aF0
aF0.018002453932738492
aF0.092407960557378058
as(I4
g2
g3
(g5
S'\x00\x00\x00\x00\x00\x00\x00\x00'
tRp519
g2
I1
tp520
(lp521
F0
aF-0.023724977903951894
aF0
aF-0.012732340046165691
aF0
aF0.031793067565841798
aF0
aF0.11316168848084832
aF0
aF0.0036743086423999846
aF-0.05499640217015641
aF0
aF0.0055350360265274305
aF0.24568430648855386
aF0
aF-0.00036582460811900361
aF-0.19678716425758735
aF0
aF0.00073131805938879055
aF0.064860481932268219
as(I7
g2
g3
(g5
S'\x02\x00\x00\x00\x00\x00\x00\x00'
tRp522
g2
I0
tp523
(lp524
F0
aF-0.20254093095670994
aF0
aF-0.20799776236942247
aF0
aF-0.22313955466345192
aF0
aF-0.20716660430275022
aF0
aF-0.046195788127238312
aF-0.67056043557775191
aF0
aF0.0039566547152249656
aF-0.48603742503829317
aF0
aF-0.054381676319823047
aF-0.17754802257130037
aF0
aF2.8787006419316226e-08
aF-0.093072484929512214
as(I5
g2
g3
(g5
S'\x07\x00\x00\x00\x00\x00\x00\x00'
tRp525
g2
I1
tp526
(lp527
F0
aF0.011850362596328406
aF0
aF0.0085147356639187211
aF0
aF-0.0079883690990828482
aF0
aF-0.076190988048972841
aF0
aF0.009494852054975177
aF0.00073233595390222259
aF0
aF-0.032607265786373366
aF-0.098321508570129598
aF0
aF0.00898368139130209
aF0.042050408421520774
aF0
aF-0.012667218104446241
aF-0.042229205231919045
as(I2
g2
g3
(g5
S'\x01\x00\x00\x00\x00\x00\x00\x00'
tRp528
g2
I2
tp529
(lp530
F0
aF0.022017913779566602
aF0
aF0.020670136690100739
aF0
aF0.015185046457794626
aF0
aF0.0029655616205526139
aF0
aF0.011629933040639471
aF0.21730899669748716
aF0
aF0.0027280951400511589
aF-0.00089006750884227227
aF0
aF0.0062091847473026178
aF0.22897785422518674
aF0
aF3.1463402979767679e-05
aF0.00063957857466623888
as(I5
g2
g3
(g5
S'\x06\x00\x00\x00\x00\x00\x00\x00'
tRp531
g2
I2
tp532
(lp533
F0
aF0.005173771880837519
aF0
aF0.0048577675602844202
aF0
aF0.0035710624611899216
aF0
aF0.00069967099695005105
aF0
aF0.034530463247833418
aF-0.15201043309409068
aF0
aF0.001482823357712962
aF0.011982997870129143
aF0
aF0.02786130591658453
aF-0.18278234377999272
aF0
aF-5.504797575024892e-05
aF-0.00021122598519215981
as(I2
g2
g3
(g5
S'\x00\x00\x00\x00\x00\x00\x00\x00'
tRp534
g2
I2
tp535
(lp536
F0
aF0
aF0
aF0
aF0
aF0
aF0
aF0
aF0
aF0.037549747402598602
aF0.63522500175315466
aF0
aF0.012402404061104577
aF-0.033010090601448203
aF0
aF0.015629222980424674
aF0.58922080627119089
aF0
aF0.00032742508867641197
aF-0.029874878854416472
as(I3
g2
g3
(g5
S'\x04\x00\x00\x00\x00\x00\x00\x00'
tRp537
g2
I0
tp538
(lp539
F0
aF0.20209928396956037
aF0
aF0.20923557969389345
aF0
aF0.23005905220272607
aF0
aF0.22086117581280251
aF0
aF-0.0040039261161973674
aF0.66774894266969653
aF0
aF-0.00020992570522554519
aF0.50521536672872924
aF0
aF-0.0029914201645027121
aF0.18340762026194923
aF0
aF2.7815323869021974e-05
aF0.11003321995964403
as(I2
g2
g3
(g5
S'\x04\x00\x00\x00\x00\x00\x00\x00'
tRp540
g2
I0
tp541
(lp542
F0
aF-0.20360952941947616
aF0
aF-0.20954781590139915
aF0
aF-0.22589655507665188
aF0
aF-0.2077750711429201
aF0
aF0.0038529336301310591
aF-0.66279969477895495
aF0
aF-0.0001089770408325309
aF-0.48736979330811719
aF0
aF0.0030844302932311342
aF-0.19282311546278658
aF0
aF-5.5859199532884683e-05
aF-0.10210732083811098
as(I1
g2
I1
g2
I0
tp543
(lp544
F-0.10266871121184165
aF-0.019368454163455798
aF-0.096198458798639142
aF-0.018789508991018292
aF-0.07096273926007092
aF-0.016176457151083887
aF-0.016091134967278754
aF-0.0045237535556615846
aF-0.0003706157372876344
aF-0.22895942608004127
aF-0.069098168571022689
aF-0.00013807564044386226
aF-0.071703576044955419
aF-0.014029866644970582
aF-0.00014681592850212109
aF-0.11996651838319315
aF-0.047199872083868298
aF-2.9174897361127757e-06
aF-0.0033800164682271576
aF0.0018843504188371153
as(I5
g2
g3
(g5
S'\t\x00\x00\x00\x00\x00\x00\x00'
tRp545
g13
I1
tp546
(lp547
F0
aF-0.0072536296422784155
aF0
aF-0.007372989034125435
aF0
aF-0.0067100595658727419
aF0
aF-0.0013162489241647624
aF0
aF-0.010442293915805189
aF-0.0054681445229027188
aF0
aF-0.0015063504469610192
aF0.00018952091703555295
aF0
aF-0.0063460623495249294
aF-0.005818925301901836
aF0
aF1.2533110891364846e-06
aF7.1965375997538601e-07
as(I7
g2
g3
(g5
S'\x04\x00\x00\x00\x00\x00\x00\x00'
tRp548
g2
I1
tp549
(lp550
F0
aF0.0026397592830965516
aF0
aF0.0053119548782372961
aF0
aF0.013095617556180009
aF0
aF0.0099254007860260316
aF0
aF0.00029546488037562619
aF0.06379759410017101
aF0
aF0.00073747773666528959
aF0.016125850832682705
aF0
aF-0.00083521853118745208
aF0.043120398650650323
aF0
aF1.8696168868149036e-05
aF0.0011374453880613426
as(I5
g2
g3
(g5
S'\x00\x00\x00\x00\x00\x00\x00\x00'
tRp551
g2
I2
tp552
(lp553
F0
aF-0.16816441853975059
aF0
aF-0.16738342088026797
aF0
aF-0.16275780057323289
aF0
aF-0.12823101785872806
aF0
aF0.034131521229989123
aF-0.52615468736411952
aF0
aF-0.0051010063411083021
aF-0.20711716684054357
aF0
aF0.032856945861625707
aF-0.39073186926720588
aF0
aF-0.00042972862474214803
aF-0.084398970469525825
as(I6
g2
g3
(g5
S'\x04\x00\x00\x00\x00\x00\x00\x00'
tRp554
g2
I1
tp555
(lp556
F0
aF-0.0039677729069180212
aF0
aF-0.002846626094146848
aF0
aF0.0027098795473368686
aF0
aF0.02573837609427615
aF0
aF-0.00068120044046983321
aF0.017440743123013219
aF0
aF-0.00022652640138923392
aF0.037353348627188886
aF0
aF-0.00028767328665326125
aF-0.010380682852633105
aF0
aF-3.4979407822801129e-06
aF0.014147318965450567
as(I2
g2
g3
(g5
S'\x05\x00\x00\x00\x00\x00\x00\x00'
tRp557
g2
I2
tp558
(lp559
F0
aF0.16652577797093945
aF0
aF0.16594344491056029
aF0
aF0.16299110081134108
aF0
aF0.13880314408893279
aF0
aF0.077435320276140335
aF0.54859296185857498
aF0
aF0.051058746196422963
aF0.22867217045998006
aF0
aF0.020676938987034415
aF0.39956803133208246
aF0
aF0.0075177792886129448
aF0.099402715303168646
as(I3
g2
g3
(g5
S'\x07\x00\x00\x00\x00\x00\x00\x00'
tRp560
g2
I0
tp561
(lp562
F0
aF-0.20320668968663183
aF0
aF-0.20982776049173515
aF0
aF-0.22854329460921396
aF0
aF-0.21365581949937057
aF0
aF-0.019198577276038745
aF-0.71580098408601622
aF0
aF-0.097351309770756164
aF-0.47129800045549186
aF0
aF-6.8263212378783173e-05
aF-0.24630264364962687
aF0
aF-0.054740354291467924
aF-0.093665872629035266
as(I3
g2
g3
(g5
S'\x00\x00\x00\x00\x00\x00\x00\x00'
tRp563
g2
I0
tp564
(lp565
F0
aF-0.004176589157328825
aF0
aF-0.0045410575992816948
aF0
aF-0.005348628764865776
aF0
aF-0.0026504333314445183
aF0
aF-0.013968701544411048
aF-0.031956178478429111
aF0
aF-0.0049254568911105568
aF-0.0044511215026750428
aF0
aF-0.0058580740954053048
aF-0.02541576348905969
aF0
aF-0.00012632741988523845
aF-0.00069255216816212434
as(I8
g13
g3
(g5
S'\x00\x00\x00\x00\x00\x00\x00\x00'
tRp566
g2
I2
tp567
(lp568
F-0.19244896048136467
aF0
aF-0.18027922456316775
aF0
aF-0.13274551483368502
aF0
aF-0.029467437977525348
aF0
aF-0.00053079676935429028
aF-0.491647007667744
aF0
aF-0.0001943687645195074
aF-0.141059906181905
aF0
aF-0.00020755617108266227
aF-0.27959672929252888
aF0
aF-3.6699405094724154e-06
aF-0.0078704357828908722
aF0
as(I5
g2
g3
(g5
S'\x02\x00\x00\x00\x00\x00\x00\x00'
tRp569
g2
I0
tp570
(lp571
F0
aF-0.20333782717019019
aF0
aF-0.2092034592016927
aF0
aF-0.22539718997211755
aF0
aF-0.2078854632793477
aF0
aF-0.028008921533760011
aF-0.68226246947565972
aF0
aF-0.0066206395592419056
aF-0.48773659184584539
aF0
aF-0.015450946691085349
aF-0.18836968345773497
aF0
aF-6.3373708057157696e-05
aF-0.095642043747587349
as(I5
g2
g3
(g5
S'\x04\x00\x00\x00\x00\x00\x00\x00'
tRp572
g2
I2
tp573
(lp574
F0
aF-0.0011298063699281705
aF0
aF-0.001109853460329587
aF0
aF-0.00099516851849018335
aF0
aF-0.00043852074009365202
aF0
aF0.02406981147285589
aF-0.24282008938962873
aF0
aF0.0001955974691687814
aF0.024996334566295807
aF0
aF0.021270670027725008
aF-0.27953992709071129
aF0
aF-3.0095894120514185e-05
aF-0.005224215940738383
as(I9
g13
g3
(g5
S'\x06\x00\x00\x00\x00\x00\x00\x00'
tRp575
g2
I0
tp576
(lp577
F-0.0028649826551526009
aF0
aF-0.0025066422826913529
aF0
aF-0.0013355086628267111
aF0
aF-6.252320032994424e-05
aF0
aF-0.002067868714155029
aF-0.00053994015447618514
aF0
aF-3.6894312576988235e-05
aF-0.00015499747055137394
aF0
aF-0.0019600066025999043
aF-0.00025034108161018807
aF0
aF2.6643410955484075e-10
aF-1.3056817334520079e-06
aF0
as(I0
g2
g3
(g5
S'\x03\x00\x00\x00\x00\x00\x00\x00'
tRp578
g2
I1
tp579
(lp580
F0
aF-0.00041006105961008399
aF0
aF-0.00082835034973570421
aF0
aF-0.0020476761585754705
aF0
aF-0.0015486711337236395
aF0
aF0.0067119610637949136
aF-0.016788894034871341
aF0
aF0.001586631619109155
aF-0.004913741504391252
aF0
aF0.0032924472962997903
aF-0.01075819083563203
aF0
aF-3.0420401533831206e-05
aF-0.00049079118624921719
as(I8
g13
g3
(g5
S'\x01\x00\x00\x00\x00\x00\x00\x00'
tRp581
g2
I0
tp582
(lp583
F0.10262412423182773
aF0
aF0.096161289743848355
aF0
aF0.070946766763576169
aF0
aF0.016090818158369758
aF0
aF0.00035641087455516655
aF0.1880589943285898
aF0
aF0.00013796749831817428
aF0.085331799349622636
aF0
aF0.00013292901578506385
aF0.069332916300999428
aF0
aF2.9174694644758739e-06
aF0.0051250497288760659
aF0
as(I6
g2
g3
(g5
S'\t\x00\x00\x00\x00\x00\x00\x00'
tRp584
g13
I0
tp585
(lp586
F0
aF0.0028649826551526009
aF0
aF0.0025066422826913529
aF0
aF0.0013355086628267111
aF0
aF6.252320032994424e-05
aF0
aF0.0024414743306783475
aF0.00078763820273894045
aF0
aF4.7233775603255056e-05
aF7.1908393983473724e-05
aF0
aF0.0022093126159790943
aF0.00060446150634729085
aF0
aF-7.19801256982272e-07
aF2.4377145180106763e-08
as(I0
g2
g3
(g5
S'\x06\x00\x00\x00\x00\x00\x00\x00'
tRp587
g2
I1
tp588
(lp589
F0
aF-0.026427781294235959
aF0
aF-0.014875289944102598
aF0
aF0.031261674552449152
aF0
aF0.11322801740765698
aF0
aF0.014405328087235113
aF-0.036934786037310027
aF0
aF0.0054204446427039699
aF0.24122029348835489
aF0
aF0.0052627742357510771
aF-0.17498739532347451
aF0
aF4.3616095186478617e-05
aF0.06237204249018103
as(I5
g2
g3
(g5
S'\x07\x00\x00\x00\x00\x00\x00\x00'
tRp590
g2
I0
tp591
(lp592
F0
aF-0.0061888499711923242
aF0
aF-0.006355510009266643
aF0
aF-0.0069210500926233896
aF0
aF-0.0068308675738025341
aF0
aF-0.0081203004104632853
aF-0.011356994388753275
aF0
aF-0.0038208271579718098
aF-0.024001374279006331
aF0
aF-0.0019932021867170831
aF0.031288984711243278
aF0
aF0.00036241072525665223
aF-0.0031174572977293344
as(I7
g2
g3
(g5
S'\x03\x00\x00\x00\x00\x00\x00\x00'
tRp593
g2
I2
tp594
(lp595
F0
aF-0.15756742924529982
aF0
aF-0.15691297127599194
aF0
aF-0.15380697732459683
aF0
aF-0.13099197142284522
aF0
aF0.042395514737780596
aF-0.50016363311600165
aF0
aF-0.010532001417104125
aF-0.22211299788371569
aF0
aF0.065839759463594438
aF-0.36561341292725957
aF0
aF2.6040075021925809e-06
aF-0.10484537115777166
as(I8
g13
I8
g13
I1
tp596
(lp597
F-0.025719337704558157
aF-0.019710153770170144
aF-0.019491793891827328
aF-0.013956628485098398
aF0.0039554878778282551
aF0.0050750264229280327
aF0.042932273827802916
aF0.023373077934430057
aF-0.0091740357144820817
aF-0.02443926359922571
aF0.055733146929742072
aF-0.0034483104756698525
aF0.033527598888685811
aF-0.0037329437284530469
aF-0.0043629951155740553
aF-0.00413964964173029
aF0.045123640257264078
aF-5.3183053221001393e-05
aF0.072850961277842199
aF-0.00052165927606185832
as(I8
g13
g3
(g5
S'\x02\x00\x00\x00\x00\x00\x00\x00'
tRp598
g2
I2
tp599
(lp600
F-0.1968637019800871
aF0
aF-0.18343181900403741
aF0
aF-0.13190303146574289
aF0
aF-0.026908322329418213
aF0
aF-0.00071635343768768664
aF-0.49761731362475908
aF0
aF-0.00027787196858487372
aF-0.13084017065860823
aF0
aF-0.00026660551072439046
aF-0.29560770168384959
aF0
aF-5.889866671810204e-06
aF-0.0067309852183889017
aF0
as(I4
g2
g3
(g5
S'\x08\x00\x00\x00\x00\x00\x00\x00'
tRp601
g13
I2
tp602
(lp603
F0
aF0.21147915719416605
aF0
aF0.18994961753569833
aF0
aF0.1146689875757281
aF0
aF0.010004195963280459
aF0
aF0.0019508123942261369
aF0.16529225853499108
aF0
aF0.00060288929925868414
aF0.035928375416297634
aF0
aF0.00086865115259984445
aF0.096809407105269168
aF0
aF7.8271008578827634e-06
aF0.00051177890698496332
as(I0
g2
g3
(g5
S'\x07\x00\x00\x00\x00\x00\x00\x00'
tRp604
g2
I1
tp605
(lp606
F0
aF-0.024615145199428479
aF0
aF-0.013607311881039169
aF0
aF0.031019676696202453
aF0
aF0.1129608660697568
aF0
aF0.0095989515186684672
aF-0.044382523578895675
aF0
aF0.05500907107306241
aF0.24835470565238499
aF0
aF-0.00066712964532637971
aF-0.18110496302177981
aF0
aF0.029075730906334217
aF0.068303242656675325
as(I8
g13
g3
(g5
S'\x05\x00\x00\x00\x00\x00\x00\x00'
tRp607
g2
I0
tp608
(lp609
F0.011429567255634026
aF0
aF0.011249519808235747
aF0
aF0.010173021912556774
aF0
aF0.0046404314256711411
aF0
aF0.0018557139675535368
aF0.017071343335510428
aF0
aF0.00020712499756682577
aF0.01362592309325238
aF0
aF0.0020219277073355449
aF0.0061262082697185558
aF0
aF7.5142340600064367e-05
aF0.0028492187881294499
aF0
as(I7
g2
g3
(g5
S'\t\x00\x00\x00\x00\x00\x00\x00'
tRp610
g13
I2
tp611
(lp612
F0
aF0.1740477153141109
aF0
aF0.16342525048163586
aF0
aF0.12014725785362072
aF0
aF0.023489763226931696
aF0
aF0.22427765724868454
aF0.021464381031043468
aF0
aF0.0010706623721296938
aF0.0015025247179189236
aF0
aF0.22138535543371013
aF0.017541325657819188
aF0
aF6.2805261101970778e-06
aF5.5845633803875106e-07
as(I0
g2
I0
g2
I0
tp613
(lp614
F0.088897547257143272
aF0.01568021104334472
aF0.08327600650582484
aF0.015667828019357843
aF0.061318859029347812
aF0.014670330070255292
aF0.013611832215678084
aF0.00068231656148126565
aF0.00024518984550286096
aF0.20699819327166261
aF0.06567647581440185
aF8.9784358335667013e-05
aF0.063395817057106493
aF0.010931920767612867
aF9.5875989567214954e-05
aF0.11022498890068536
aF0.048899003981173576
aF1.6952479714917458e-06
aF0.0027945385841400584
aF-0.00090334468402360711
as(I8
g13
g3
(g5
S'\t\x00\x00\x00\x00\x00\x00\x00'
tRp615
g13
I1
tp616
(lp617
F-0.025719337704557848
aF0
aF-0.019491793891827078
aF0
aF0.0039554878778284303
aF0
aF0.042932273827802937
aF0
aF-0.0091740357144820366
aF0.021543170995982384
aF0
aF-0.0034483104756698503
aF-0.0066110479774286442
aF0
aF-0.0043629951155740171
aF0.037508331651921314
aF0
aF-5.3183053221001772e-05
aF-2.2827555029785234e-05
aF0
as(I3
g2
g3
(g5
S'\x05\x00\x00\x00\x00\x00\x00\x00'
tRp618
g2
I1
tp619
(lp620
F0
aF-0.02964283073844946
aF0
aF-0.017577527685861179
aF0
aF0.030560300040021457
aF0
aF0.11898169735394426
aF0
aF-0.033592120517548368
aF-0.030728417174436706
aF0
aF0.014018645081117694
aF0.24910429911891604
aF0
aF-0.013441495962022302
aF-0.15444371334883328
aF0
aF0.013627885653491212
aF0.069262717605272126
as(I5
g2
g3
(g5
S'\x06\x00\x00\x00\x00\x00\x00\x00'
tRp621
g2
I0
tp622
(lp623
F0
aF-0.0067399078932487422
aF0
aF-0.0073292080225139666
aF0
aF-0.0086388348999825032
aF0
aF-0.0042996809810472436
aF0
aF-0.0078903496568429807
aF-0.025467080204676626
aF0
aF-0.0024086746548388363
aF-0.015369908615356644
aF0
aF-0.0034490809526477699
aF0.0010265332727829313
aF0
aF-2.4152460069422251e-05
aF-0.00089109307514564505
as(I4
g2
g3
(g5
S'\x00\x00\x00\x00\x00\x00\x00\x00'
tRp624
g2
I2
tp625
(lp626
F0
aF-0.16701975461965668
aF0
aF-0.16621486102704386
aF0
aF-0.1615663720812667
aF0
aF-0.12756802296583342
aF0
aF0.010744084497499791
aF-0.5095950773396194
aF0
aF0.0041360524576558137
aF-0.20678483460224631
aF0
aF0.0029608958994944644
aF-0.36653708138644064
aF0
aF-0.00056737585286690097
aF-0.081285961319302477
as(I7
g2
I7
g2
I2
tp627
(lp628
F0.44178259358424493
aF-0.67577070944351458
aF0.43353614670371476
aF-0.6730336116170138
aF0.40032044522748128
aF-0.65734144810361483
aF0.29579834625857787
aF-0.53578401138505027
aF0.2261605793465736
aF-0.019220125818164395
aF-1.0731460816002762
aF0.0020046165214528595
aF0.45355534735401593
aF-0.95962738349076682
aF0.22197408289109041
aF-0.032215003531770613
aF-0.49038118490578214
aF4.1803514923993309e-05
aF0.26441208113736581
aF-0.40609126401676571
as(I7
g2
g3
(g5
S'\x00\x00\x00\x00\x00\x00\x00\x00'
tRp629
g2
I0
tp630
(lp631
F0
aF-0.21446568238948185
aF0
aF-0.2184017912306313
aF0
aF-0.2266826311330348
aF0
aF-0.1871107323349451
aF0
aF-0.044588900738252411
aF-0.7230281036162769
aF0
aF0.0014704949116167289
aF-0.42754538581989232
aF0
aF-0.046819253410018816
aF-0.28280543171910766
aF0
aF-2.3199526835563598e-05
aF-0.087214172629487899
as(I8
g13
g3
(g5
S'\x06\x00\x00\x00\x00\x00\x00\x00'
tRp632
g2
I2
tp633
(lp634
F-0.20090356821326838
aF0
aF-0.18928347076028157
aF0
aF-0.14132532876294729
aF0
aF-0.0296765286916961
aF0
aF-0.00075923084201622113
aF-0.41989661809378864
aF0
aF-8.1425482592877214e-05
aF-0.12415363756183571
aF0
aF-0.00053275561044973795
aF-0.23379162753138999
aF0
aF-2.5114548612121019e-09
aF-0.0063043543931364087
aF0
as(I4
g2
g3
(g5
S'\x03\x00\x00\x00\x00\x00\x00\x00'
tRp635
g2
I2
tp636
(lp637
F0
aF-0.15137631755002706
aF0
aF-0.15082822826240186
aF0
aF-0.14833550837256404
aF0
aF-0.1290009227851622
aF0
aF0.0087317650907206834
aF-0.46380634783030888
aF0
aF0.0045430373548092989
aF-0.21049076371889291
aF0
aF0.0019717685125154728
aF-0.34993700000073019
aF0
aF-0.00035359992545158685
aF-0.10535235767066539
as(I5
g2
g3
(g5
S'\x06\x00\x00\x00\x00\x00\x00\x00'
tRp638
g2
I1
tp639
(lp640
F0
aF-0.0010189460141760281
aF0
aF-0.0020653714595631339
aF0
aF-0.0051177769240152299
aF0
aF-0.0038823687808854125
aF0
aF-0.0022496875867883269
aF-0.037461600972320763
aF0
aF-0.00022350749388483848
aF-0.0061525249999566586
aF0
aF-0.0016017001213237546
aF-0.030174880633944509
aF0
aF2.7635488464901033e-06
aF-0.00033704564581664507
as(I6
g2
g3
(g5
S'\x07\x00\x00\x00\x00\x00\x00\x00'
tRp641
g2
I2
tp642
(lp643
F0
aF0.0010716496392414393
aF0
aF0.0010526694850350774
aF0
aF0.00094380287909153512
aF0
aF0.00041666614679758982
aF0
aF0.06630107098824492
aF-0.24534741663896933
aF0
aF0.02817528794112302
aF0.022439047139530491
aF0
aF0.015612478975818515
aF-0.27197692245603766
aF0
aF-0.0034795862800681126
aF-0.0046658829477840965
as(I3
g2
g3
(g5
S'\x04\x00\x00\x00\x00\x00\x00\x00'
tRp644
g2
I1
tp645
(lp646
F0
aF-0.02764358880431099
aF0
aF-0.015818228249516314
aF0
aF0.031280266926115352
aF0
aF0.11634362605112221
aF0
aF-0.0029209025549483867
aF-0.022427754036223893
aF0
aF0.00061941371312791661
aF0.23959727079319376
aF0
aF-0.0027136346544885891
aF-0.13222777144205425
aF0
aF8.6094333180263618e-05
aF0.068176397937984079
as(I4
g2
g3
(g5
S'\x01\x00\x00\x00\x00\x00\x00\x00'
tRp647
g2
I0
tp648
(lp649
F0
aF-0.20904320358610734
aF0
aF-0.21558919259938797
aF0
aF-0.23315550383279324
aF0
aF-0.2090791213105648
aF0
aF-0.014534524907194854
aF-0.71073426240427073
aF0
aF-0.01385706674748932
aF-0.46520866585289367
aF0
aF-0.0022127660216929028
aF-0.2585372539793408
aF0
aF-0.0017839422646900309
aF-0.10563059220748626
as(I5
g2
g3
(g5
S'\t\x00\x00\x00\x00\x00\x00\x00'
tRp650
g13
I0
tp651
(lp652
F0
aF0.00019717415667095859
aF0
aF0.00017649838622197509
aF0
aF0.00010501771785679454
aF0
aF8.7470919806644649e-06
aF0
aF-0.00092519538950266511
aF-0.00010143301441018634
aF0
aF0.00016137875144763331
aF6.6851189246110345e-06
aF0
aF-0.0012522526644963702
aF-0.00011341664798410927
aF0
aF4.3312065546253615e-07
aF4.0582413250328929e-08
as(I3
g2
g3
(g5
S'\x01\x00\x00\x00\x00\x00\x00\x00'
tRp653
g2
I1
tp654
(lp655
F0
aF-0.0049967337128862532
aF0
aF-0.0035853810039213896
aF0
aF0.0034088583194184507
aF0
aF0.03239541714258945
aF0
aF-0.016824425422574407
aF0.0073498086047263655
aF0
aF-0.0035736266122712588
aF0.031976506250569477
aF0
aF-0.0053864567659780115
aF-0.011571617573760844
aF0
aF0.001792010345723306
aF0.011293660414467119
as(I7
g2
g3
(g5
S'\x04\x00\x00\x00\x00\x00\x00\x00'
tRp656
g2
I0
tp657
(lp658
F0
aF-0.0092870192077142977
aF0
aF-0.010094351424993903
aF0
aF-0.011898184843835855
aF0
aF-0.0060130939419578422
aF0
aF-0.0071815946708596538
aF-0.038588691626708492
aF0
aF-0.00059782214698988708
aF-0.01421384986924464
aF0
aF-0.0057202247030782513
aF-0.016793887944957914
aF0
aF-4.6963078491575839e-06
aF-0.0017734715891503953
as(I3
g2
g3
(g5
S'\x01\x00\x00\x00\x00\x00\x00\x00'
tRp659
g2
I0
tp660
(lp661
F0
aF-0.0039368769364387327
aF0
aF-0.0040424398423180713
aF0
aF-0.0043976729794436955
aF0
aF-0.0042830661583140982
aF0
aF-0.020178390347822209
aF-0.030127910431581244
aF0
aF-0.0070052126538754879
aF-0.0026922060242337009
aF0
aF-0.0085115600516299256
aF-0.040689642490548211
aF0
aF-0.00030337675493554746
aF-0.005548914284709495
as(I6
g2
g3
(g5
S'\x04\x00\x00\x00\x00\x00\x00\x00'
tRp662
g2
I0
tp663
(lp664
F0
aF-0.0035966202295904673
aF0
aF-0.0036929934653076083
aF0
aF-0.0040170357642100082
aF0
aF-0.0039075382044137328
aF0
aF0.0078565352475790419
aF-0.01115981123532208
aF0
aF0.00013707432340246729
aF-0.0088866758748904484
aF0
aF0.0060031331900486339
aF0.006081619664469861
aF0
aF-5.0187527246865049e-05
aF0.0013124825360004639
as(I7
g2
g3
(g5
S'\x05\x00\x00\x00\x00\x00\x00\x00'
tRp665
g2
I2
tp666
(lp667
F0
aF-0.0076764986841658216
aF0
aF-0.0078832197339465861
aF0
aF-0.0085847018713290021
aF0
aF-0.0084728416726999357
aF0
aF0.26072307321107063
aF-0.63295644454367395
aF0
aF-0.027434518810587318
aF0.022174674226874809
aF0
aF0.29788876883302612
aF-0.55440131203804777
aF0
aF0.0046518022453175085
aF0.033540291044237662
as(I9
g13
g3
(g5
S'\x07\x00\x00\x00\x00\x00\x00\x00'
tRp668
g2
I1
tp669
(lp670
F-0.0022058894936285377
aF0
aF-0.0020712598403285409
aF0
aF-0.0015227523860871582
aF0
aF-0.00029771044001696039
aF0
aF-0.0089498172278843473
aF0.0022998302317823812
aF0
aF0.0016318868196301393
aF0.00064621420051129007
aF0
aF-0.013675380453836223
aF0.0006243271524000026
aF0
aF9.0327442954279712e-07
aF-0.00019022830651841671
aF0
as(I3
g2
g3
(g5
S'\x00\x00\x00\x00\x00\x00\x00\x00'
tRp671
g2
I1
tp672
(lp673
F0
aF0.00041006105961005623
aF0
aF0.00082835034973569033
aF0
aF0.0020476761585754566
aF0
aF0.0015486711337236378
aF0
aF-0.0065101526326454794
aF0.013608736832908155
aF0
aF-0.0013717616707883237
aF0.00025200707227869123
aF0
aF-0.0033096023736160969
aF0.015164679838905314
aF0
aF4.2404878935343224e-05
aF5.6553022686709247e-05
as(I8
g13
g3
(g5
S'\x00\x00\x00\x00\x00\x00\x00\x00'
tRp674
g2
I1
tp675
(lp676
F-0.02438333380554622
aF0
aF-0.025777219602018023
aF0
aF-0.026866225190243721
aF0
aF-0.0089324671933206298
aF0
aF0.00042125389872417409
aF-0.071535958555006565
aF0
aF0.00015089160098322489
aF-0.044943714575828658
aF0
aF0.00016787913764883367
aF-0.013746601430929553
aF0
aF2.7376265637385409e-06
aF-0.0037656470223006336
aF0
as(I1
g2
g3
(g5
S'\x06\x00\x00\x00\x00\x00\x00\x00'
tRp677
g2
I0
tp678
(lp679
F0
aF0.20892779773544887
aF0
aF0.2152323368938879
aF0
aF0.23159219386600899
aF0
aF0.20255212537971456
aF0
aF-0.010991681331128756
aF0.69408672354440926
aF0
aF0.0012665097101458266
aF0.46522790644036072
aF0
aF-0.0081684522406079915
aF0.2559323324892312
aF0
aF0.00037200651755812334
aF0.10603660675359231
as(I1
g2
g3
(g5
S'\x07\x00\x00\x00\x00\x00\x00\x00'
tRp680
g2
I1
tp681
(lp682
F0
aF-0.021895875515486676
aF0
aF-0.011442468738164888
aF0
aF0.031704128411807898
aF0
aF0.11489118491841074
aF0
aF0.010998016129181571
aF-0.064474135928862419
aF0
aF0.05597999998900921
aF0.26393731705450624
aF0
aF-0.00069701212543204182
aF-0.22068385618591363
aF0
aF0.028015647228693281
aF0.073169266777857844
as(I6
g2
g3
(g5
S'\x05\x00\x00\x00\x00\x00\x00\x00'
tRp683
g2
I2
tp684
(lp685
F0
aF-0.005173771880837519
aF0
aF-0.0048577675602844202
aF0
aF-0.0035710624611899216
aF0
aF-0.00069967099695005105
aF0
aF0.038443224005958586
aF-0.17857905213087555
aF0
aF0.0080997451770543905
aF0.007718793507048665
aF0
aF0.01960881825603996
aF-0.2014220881255738
aF0
aF-0.00019224725705027396
aF-0.00041572260719895229
as(I4
g2
g3
(g5
S'\x06\x00\x00\x00\x00\x00\x00\x00'
tRp686
g2
I2
tp687
(lp688
F0
aF0.0077708298602907292
aF0
aF0.0079790531282582997
aF0
aF0.0086791764138893623
aF0
aF0.0084425968327889265
aF0
aF0.027503809547837585
aF-0.56482653737616395
aF0
aF0.018391824636828272
aF0.045797118895380393
aF0
aF0.0050694750970514766
aF-0.52308945363654069
aF0
aF0.00050711038654866684
aF0.038745175117818408
as(I3
g2
g3
(g5
S'\x08\x00\x00\x00\x00\x00\x00\x00'
tRp689
g13
I0
tp690
(lp691
F0
aF-0.10316067311245695
aF0
aF-0.096141987129559348
aF0
aF-0.069197560219454973
aF0
aF-0.01421317322258769
aF0
aF-0.00095705999401154301
aF-0.27034597307668068
aF0
aF-0.00088272416523970504
aF-0.024583512685922057
aF0
aF-0.00041866150193422354
aF-0.21683992974942123
aF0
aF-0.00042866267296896068
aF-0.00029415298195591279
as(I7
g2
g3
(g5
S'\x03\x00\x00\x00\x00\x00\x00\x00'
tRp692
g2
I0
tp693
(lp694
F0
aF0.20320668968663164
aF0
aF0.20982776049173496
aF0
aF0.22854329460921385
aF0
aF0.21365581949937054
aF0
aF0.045309055227272889
aF0.65425377029902221
aF0
aF-0.0032316321615439192
aF0.51157767199458604
aF0
aF0.051715190401114712
aF0.18037169923126234
aF0
aF8.8953460170315578e-07
aF0.11609089960581331
as(I4
g2
g3
(g5
S'\x05\x00\x00\x00\x00\x00\x00\x00'
tRp695
g2
I2
tp696
(lp697
F0
aF0.0011298063699281703
aF0
aF0.001109853460329587
aF0
aF0.00099516851849018313
aF0
aF0.00043852074009365181
aF0
aF0.030690729083052846
aF-0.23665154194740756
aF0
aF0.021202099052036533
aF0.025751927003285414
aF0
aF0.005651139053129731
aF-0.27410701743127425
aF0
aF0.00089824467778785847
aF-0.0053002936702654579
as(I9
g13
g3
(g5
S'\x06\x00\x00\x00\x00\x00\x00\x00'
tRp698
g2
I1
tp699
(lp700
F-0.0022193726778734039
aF0
aF-0.0018948795006861572
aF0
aF-0.00090910918511210225
aF0
aF-2.9644534010632842e-05
aF0
aF-0.00068478689598055423
aF-0.00022735548212619698
aF0
aF-4.139538850296332e-06
aF-6.3357869850281888e-05
aF0
aF-0.00067165867890977692
aF-0.00010917044336478877
aF0
aF2.3657835762738798e-10
aF-5.9739192291821899e-07
aF0
as(I0
g2
g3
(g5
S'\x03\x00\x00\x00\x00\x00\x00\x00'
tRp701
g2
I2
tp702
(lp703
F0
aF0.018545587327325537
aF0
aF0.017410103749760025
aF0
aF0.012788265476741513
aF0
aF0.0024925360293375966
aF0
aF0.01092126863042743
aF0.21289360168142263
aF0
aF0.0022231542544383408
aF-0.002750218992683605
aF0
aF0.0062334735253784567
aF0.22384350479577797
aF0
aF2.0966421584980734e-05
aF0.00049127308644278942
as(I8
g13
g3
(g5
S'\x01\x00\x00\x00\x00\x00\x00\x00'
tRp704
g2
I1
tp705
(lp706
F-0.021600199501908703
aF0
aF-0.023652994509625942
aF0
aF-0.02682150022076505
aF0
aF-0.009935032565216606
aF0
aF0.00051907289316440201
aF-0.066891240019291962
aF0
aF0.00019591869973788596
aF-0.047026878734351456
aF0
aF0.00019811410629262086
aF-0.0089020989713865135
aF0
aF3.9665485322142141e-06
aF-0.0046959778975832157
aF0
as(I4
g2
g3
(g5
S'\x06\x00\x00\x00\x00\x00\x00\x00'
tRp707
g2
I1
tp708
(lp709
F0
aF0.003967772906918049
aF0
aF0.002846626094146848
aF0
aF-0.0027098795473369242
aF0
aF-0.025738376094276205
aF0
aF-0.00012581398695909497
aF-0.013890130574683721
aF0
aF-0.0012227977777768163
aF-0.033043578795261055
aF0
aF0.00017877962647502366
aF0.0062705959653165761
aF0
aF-0.00037026852538345548
aF-0.0094612330127475507
as(I9
g13
g3
(g5
S'\x03\x00\x00\x00\x00\x00\x00\x00'
tRp710
g2
I1
tp711
(lp712
F0.0013887913022744328
aF0
aF0.0011639518032058639
aF0
aF0.00051274010830390027
aF0
aF1.1400621895000062e-05
aF0
aF0.00040611427736101817
aF0.00037896437293721656
aF0
aF6.1688870117791288e-06
aF7.4818560560970933e-05
aF0
aF0.000388628902096075
aF0.00022477951256668426
aF0
aF4.3757103652871614e-09
aF5.6298297803444442e-07
aF0
as(I0
g2
g3
(g5
S'\x06\x00\x00\x00\x00\x00\x00\x00'
tRp713
g2
I0
tp714
(lp715
F0
aF-0.20731584415008356
aF0
aF-0.21236120495198046
aF0
aF-0.22517226429986931
aF0
aF-0.19828546660252172
aF0
aF0.011073870727252496
aF-0.6676002334508222
aF0
aF-0.0025443495248596111
aF-0.46203472617236185
aF0
aF0.0078931079084311184
aF-0.2181531997713429
aF0
aF-0.00076241273290273337
aF-0.097284607522228533
as(I8
g13
g3
(g5
S'\x04\x00\x00\x00\x00\x00\x00\x00'
tRp716
g2
I1
tp717
(lp718
F0.00014854468174557017
aF0
aF0.0001546952887252484
aF0
aF0.00015089435866401379
aF0
aF3.4045176180318073e-05
aF0
aF-2.455247040605813e-06
aF0.0076496443823351676
aF0
aF-9.0870517777904555e-07
aF0.00011916022257184029
aF0
aF-9.5276342280423247e-07
aF0.0065895353688540277
aF0
aF-1.7687502696440613e-08
aF-4.473343933628169e-05
aF0
as(I1
g2
g3
(g5
S'\x02\x00\x00\x00\x00\x00\x00\x00'
tRp719
g2
I0
tp720
(lp721
F0
aF-0.0080371916502425811
aF0
aF-0.0087371203477595583
aF0
aF-0.010286935282133453
aF0
aF-0.0050992121191177874
aF0
aF-0.014422993283738375
aF-0.047322244306520628
aF0
aF-0.0046300522615079394
aF-0.016269614784472107
aF0
aF-0.0064858864337140887
aF-0.022131924257882025
aF0
aF-0.00010499987024016444
aF-0.00112796641255986
as(I6
g2
g3
(g5
S'\x01\x00\x00\x00\x00\x00\x00\x00'
tRp722
g2
I2
tp723
(lp724
F0
aF-0.15462921883022179
aF0
aF-0.15361908110657435
aF0
aF-0.14860999671562719
aF0
aF-0.11792218761888484
aF0
aF0.015789058735238854
aF-0.48834350843556418
aF0
aF0.0019108382056467952
aF-0.19641213936979618
aF0
aF0.0067323301686991899
aF-0.36220911829971725
aF0
aF-0.00090815597458007214
aF-0.088400661582624079
as(I8
g13
I8
g13
I0
tp725
(lp726
F0.012156305928117011
aF0.012455141347913135
aF0.012342084572538631
aF0.010055774161450532
aF0.013286548498126006
aF0.0036850526195632491
aF0.016231885993965526
aF0.0041836106889003629
aF0.00046764180247943639
aF-0.0043350159128583135
aF0.014020408105310403
aF0.00019559403485599434
aF0.0096037200984171421
aF-0.0046282615535675553
aF0.00025540135782748481
aF0.00056763619754299547
aF0.01647355471108702
aF1.712598686364221e-05
aF0.022718513441161079
aF-0.00030323998116425348
as(I3
g2
g3
(g5
S'\x06\x00\x00\x00\x00\x00\x00\x00'
tRp727
g2
I2
tp728
(lp729
F0
aF0.15745633185496183
aF0
aF0.1565254423570227
aF0
aF0.15177243311425659
aF0
aF0.12105768701724162
aF0
aF0.030726220350210776
aF0.4857545382641516
aF0
aF0.0076627061608560924
aF0.18718906722098552
aF0
aF0.014168175164933747
aF0.37173542932189746
aF0
aF-0.00018136147651056798
aF0.082627291245064557
as(I2
g2
g3
(g5
S'\x06\x00\x00\x00\x00\x00\x00\x00'
tRp730
g2
I2
tp731
(lp732
F0
aF0.17126895491540786
aF0
aF0.17056787507320215
aF0
aF0.16655436975422497
aF0
aF0.13531513868306266
aF0
aF0.037760535455723249
aF0.55649774575369793
aF0
aF0.011831302780153971
aF0.21718205656577966
aF0
aF0.014843915359090678
aF0.40113268255886425
aF0
aF-0.00023886528451346603
aF0.086310577559601628
as(I4
g2
g3
(g5
S'\x08\x00\x00\x00\x00\x00\x00\x00'
tRp733
g13
I1
tp734
(lp735
F0
aF-0.00014854468174557017
aF0
aF-0.0001546952887252484
aF0
aF-0.00015089435866401379
aF0
aF-3.4045176180318073e-05
aF0
aF5.1396164089621245e-06
aF-0.0082446906055972675
aF0
aF1.5882880278085662e-06
aF-0.00013765598178660282
aF0
aF2.1545847060224844e-06
aF-0.0066701019023567166
aF0
aF6.1037566107134032e-09
aF5.5202535848066295e-05
as(I1
g2
g3
(g5
S'\x08\x00\x00\x00\x00\x00\x00\x00'
tRp736
g13
I2
tp737
(lp738
F0
aF0.19549269679309805
aF0
aF0.18318139131361419
aF0
aF0.13514926307220995
aF0
aF0.030652027083622801
aF0
aF0.001428843361384341
aF0.37983960701881236
aF0
aF0.00049926813854740573
aF0.05703408804593884
aF0
aF0.00068256280391895316
aF0.25941092091582124
aF0
aF4.6441980640338543e-05
aF0.0006338587102347773
as(I3
g2
g3
(g5
S'\x08\x00\x00\x00\x00\x00\x00\x00'
tRp739
g13
I2
tp740
(lp741
F0
aF0.19551792880029092
aF0
aF0.18221558300442905
aF0
aF0.13114846233498967
aF0
aF0.026937883461954047
aF0
aF0.0019173334518991958
aF0.38296070692866047
aF0
aF0.0023556999335813101
aF0.050626855335280101
aF0
aF0.00079456481457381171
aF0.27443731596520543
aF0
aF0.0012625870468321761
aF0.00059466530899947008
as(I0
g2
g3
(g5
S'\x07\x00\x00\x00\x00\x00\x00\x00'
tRp742
g2
I2
tp743
(lp744
F0
aF0.17330062574264893
aF0
aF0.17263205746173466
aF0
aF0.16815333327425713
aF0
aF0.13156319568911021
aF0
aF0.071835096814978669
aF0.54189645176663959
aF0
aF0.095433977530736278
aF0.23756988112998589
aF0
aF0.0042846509373811814
aF0.37560708512640384
aF0
aF0.010214352722021062
aF0.09637432908848359
as(I8
g13
g3
(g5
S'\x05\x00\x00\x00\x00\x00\x00\x00'
tRp745
g2
I1
tp746
(lp747
F-0.00024329134108735939
aF0
aF-0.0001092189207491101
aF0
aF0.00041665690049741411
aF0
aF0.0011513245073713624
aF0
aF0.0070106967698219912
aF0.027428795947883691
aF0
aF-0.0015246621015968234
aF-0.01022963416972131
aF0
aF0.0095027897707619085
aF0.012746403143581369
aF0
aF-4.0568315651849644e-05
aF-0.012437042443425044
aF0
as(I5
g2
g3
(g5
S'\x04\x00\x00\x00\x00\x00\x00\x00'
tRp748
g2
I1
tp749
(lp750
F0
aF0.0010749714509483859
aF0
aF0.0010559869516990191
aF0
aF0.00094686821984156554
aF0
aF0.00041723722648103238
aF0
aF-1.3703369189725992e-05
aF-0.019083515963075851
aF0
aF3.770239502213188e-05
aF0.0046411557860096958
aF0
aF-9.3564010914215685e-05
aF-0.028334820101360989
aF0
aF-1.7365769495926458e-07
aF0.00099302570250706232
as(I3
g2
g3
(g5
S'\x05\x00\x00\x00\x00\x00\x00\x00'
tRp751
g2
I0
tp752
(lp753
F0
aF-0.20279148671820613
aF0
aF-0.20963516672422999
aF0
aF-0.22974325526231076
aF0
aF-0.22262522204893742
aF0
aF-0.046146062091326143
aF-0.69886079620731067
aF0
aF-0.045208921679777352
aF-0.50031021337867343
aF0
aF-0.0098731955618533672
aF-0.20146598656053616
aF0
aF-0.011168638871120233
aF-0.10149177106797849
as(I2
g2
g3
(g5
S'\x07\x00\x00\x00\x00\x00\x00\x00'
tRp754
g2
I0
tp755
(lp756
F0
aF0.20254093095671005
aF0
aF0.20799776236942258
aF0
aF0.22313955466345198
aF0
aF0.20716660430275025
aF0
aF0.014328008442460658
aF0.6945174438592242
aF0
aF0.091521120147832064
aF0.46541994508928258
aF0
aF-8.0035081484684941e-05
aF0.21074285881079102
aF0
aF0.055648541565073539
aF0.084705619267198135
as(I8
g13
g3
(g5
S'\x04\x00\x00\x00\x00\x00\x00\x00'
tRp757
g2
I2
tp758
(lp759
F-0.21147915719416607
aF0
aF-0.18994961753569833
aF0
aF-0.1146689875757281
aF0
aF-0.010004195963280459
aF0
aF-0.00092170445342554448
aF-0.29506303512808657
aF0
aF-0.00035514639331686874
aF-0.059055314455806536
aF0
aF-0.00034473453676919915
aF-0.1808200494987269
aF0
aF-7.3960294190155601e-06
aF-0.00099364333169031909
aF0
as(I7
g2
I7
g2
I0
tp760
(lp761
F-0.0045369913108628084
aF-0.0052605143294736922
aF-0.0046830515239054448
aF-0.0051901458963350133
aF-0.0052867603526003323
aF-0.0053306678840178978
aF-0.0059495016606025963
aF-0.0029898514130927978
aF-0.00022078091616990796
aF-0.0043305173008698801
aF-0.0082511531490677692
aF0.00036840359027342725
aF-0.019427353652542823
aF-0.021427034023112815
aF-0.0013512050861344918
aF0.0016818290551567333
aF0.037902811799925142
aF-8.8338447328539959e-07
aF-0.01062459391029762
aF0.0080861082943696674
as(I7
g2
I7
g2
I1
tp762
(lp763
F0.022635553588406646
aF-0.036527258637245444
aF0.017101486778672497
aF-0.027907649358426462
aF-0.0015098703575830265
aF0.0045665133171267098
aF-0.021715281292618568
aF0.079531754038396324
aF-0.0016350477748169501
aF0.007893402679406334
aF0.0026012699774197083
aF0.002479845513199133
aF-0.029534589792744172
aF0.098448989805374462
aF-0.0068763390117944469
aF0.030602697109007797
aF-0.053844881268105264
aF5.6630541318286485e-05
aF0.0067275210738677697
aF0.026533771041826137
as(I3
g2
g3
(g5
S'\x02\x00\x00\x00\x00\x00\x00\x00'
tRp764
g2
I2
tp765
(lp766
F0
aF-0.014899829642994699
aF0
aF-0.014635251860172324
aF0
aF-0.013117369815013115
aF0
aF-0.0057707450308244089
aF0
aF0.017005270083904244
aF0.20718322195762762
aF0
aF0.0031931789782972311
aF-0.039166241674436886
aF0
aF0.0089684111795149315
aF0.26656014622425811
aF0
aF-0.00011363059989648787
aF0.0037953045810244063
as(I5
g2
g3
(g5
S'\x01\x00\x00\x00\x00\x00\x00\x00'
tRp767
g2
I2
tp768
(lp769
F0
aF-0.15162197703167182
aF0
aF-0.15131091670767638
aF0
aF-0.14909147715435628
aF0
aF-0.12583374384488932
aF0
aF0.040011877328459969
aF-0.50021461293037051
aF0
aF-0.0051476071649939224
aF-0.19117609714076919
aF0
aF0.037258238416784842
aF-0.38902401980082235
aF0
aF-0.00051386641300680278
aF-0.091109663172950439
as(I3
g2
g3
(g5
S'\t\x00\x00\x00\x00\x00\x00\x00'
tRp770
g13
I0
tp771
(lp772
F0
aF-0.0022014702109763996
aF0
aF-0.0018450613980469967
aF0
aF-0.00081278020142784254
aF0
aF-1.8071923007686304e-05
aF0
aF-0.00064976449764763181
aF-0.00069064221275050579
aF0
aF-3.8466014209771157e-05
aF-2.8132957382023293e-05
aF0
aF-0.00054731703485378692
aF-0.0006144791084968863
aF0
aF-1.7364122573442432e-08
aF-1.5985913248563334e-08
as(I8
g13
g3
(g5
S'\x05\x00\x00\x00\x00\x00\x00\x00'
tRp773
g2
I2
tp774
(lp775
F-0.32106522462472864
aF0
aF-0.31600755508666784
aF0
aF-0.28576791162913917
aF0
aF-0.13035324301577045
aF0
aF-0.010571964894529287
aF-0.90486716087539665
aF0
aF-0.0097778384336442269
aF-0.38645401550008301
aF0
aF-0.0028369758609569301
aF-0.47333123960423412
aF0
aF-0.0020780259640996827
aF-0.068449960568695067
aF0
as(I3
g2
g3
(g5
S'\x04\x00\x00\x00\x00\x00\x00\x00'
tRp776
g2
I2
tp777
(lp778
F0
aF0.15137631755002709
aF0
aF0.15082822826240191
aF0
aF0.1483355083725641
aF0
aF0.12900092278516226
aF0
aF0.014927815756045881
aF0.47384871583647492
aF0
aF0.0023695087821930926
aF0.19965486347178313
aF0
aF0.0095314606471373388
aF0.36401879472400067
aF0
aF3.0775721492484886e-05
aF0.095815726104603427
as(I2
g2
g3
(g5
S'\x04\x00\x00\x00\x00\x00\x00\x00'
tRp779
g2
I2
tp780
(lp781
F0
aF0.1655430742662351
aF0
aF0.16491870473790982
aF0
aF0.16178413450233203
aF0
aF0.13712219470445719
aF0
aF0.019981601315085723
aF0.54057896712421316
aF0
aF0.0038879543703075532
aF0.22489187866701227
aF0
aF0.011710983050776273
aF0.40097051358751645
aF0
aF7.0128800650025923e-05
aF0.099720294369183407
as(I4
g2
g3
(g5
S'\x05\x00\x00\x00\x00\x00\x00\x00'
tRp782
g2
I1
tp783
(lp784
F0
aF-0.0010749714509483859
aF0
aF-0.0010559869516990191
aF0
aF-0.00094686821984156532
aF0
aF-0.00041723722648103227
aF0
aF-0.00020382509150506344
aF-0.025388916194192524
aF0
aF-0.00022543103486340199
aF0.00054858530200162497
aF0
aF-9.386110498389201e-06
aF-0.019548666607473827
aF0
aF-2.0310382799869277e-05
aF0.0028777767866283665
as(I9
g13
g3
(g5
S'\x07\x00\x00\x00\x00\x00\x00\x00'
tRp785
g2
I2
tp786
(lp787
F-0.1740477153141109
aF0
aF-0.16342525048163586
aF0
aF-0.12014725785362072
aF0
aF-0.023489763226931696
aF0
aF-0.21093783540258282
aF-0.032202746300663956
aF0
aF-0.00069694958769471872
aF-0.033617987580523298
aF0
aF-0.20901980232358194
aF-0.0038495699590831121
aF0
aF-2.3928325642919678e-06
aF-0.0046241636568275894
aF0
as(I7
g2
g3
(g5
S'\x06\x00\x00\x00\x00\x00\x00\x00'
tRp788
g2
I1
tp789
(lp790
F0
aF-0.017405060721822664
aF0
aF-0.017096796971829593
aF0
aF-0.01532865389815923
aF0
aF-0.0067672299977381426
aF0
aF-0.0085103358586496557
aF-0.027771816146365497
aF0
aF0.00016512447953457356
aF-0.021380868038034358
aF0
aF-0.0085050599990075058
aF-8.0706995398742432e-05
aF0
aF1.9241975072073084e-06
aF-0.0033897986879355647
as(I2
g2
g3
(g5
S'\x08\x00\x00\x00\x00\x00\x00\x00'
tRp791
g13
I2
tp792
(lp793
F0
aF0.1968637019800871
aF0
aF0.18343181900403741
aF0
aF0.13190303146574289
aF0
aF0.026908322329418213
aF0
aF0.0015079672060787836
aF0.4064350098500058
aF0
aF0.00048048360646633909
aF0.052183376789870846
aF0
aF0.00071426376782278618
aF0.29359435708725984
aF0
aF1.2649344828232454e-05
aF0.00056940807300642272
as(I0
g2
g3
(g5
S'\x01\x00\x00\x00\x00\x00\x00\x00'
tRp794
g2
I2
tp795
(lp796
F0
aF0.017690388530992536
aF0
aF0.017375694574492548
aF0
aF0.015571997045852597
aF0
aF0.0068525145894313758
aF0
aF0.020721378229260803
aF0.28657760028722817
aF0
aF0.0041648936562934018
aF-0.0059751189564535342
aF0
aF0.010647996872215503
aF0.28738410543183041
aF0
aF-0.00012945303508089887
aF0.0061042290837220172
as(I5
g2
g3
(g5
S'\x00\x00\x00\x00\x00\x00\x00\x00'
tRp797
g2
I0
tp798
(lp799
F0
aF-0.21269460763988129
aF0
aF-0.21739530182614189
aF0
aF-0.22825141750377509
aF0
aF-0.19215066588068613
aF0
aF-0.028061729367918179
aF-0.72377330398458695
aF0
aF-0.0080424696083506997
aF-0.43904498443907319
aF0
aF-0.013598424612167587
aF-0.27890730486541587
aF0
aF-0.00010390653485503621
aF-0.090892701415659929
as(I4
g2
g3
(g5
S'\x06\x00\x00\x00\x00\x00\x00\x00'
tRp800
g2
I0
tp801
(lp802
F0
aF0.0035966202295904669
aF0
aF0.0036929934653076087
aF0
aF0.004017035764210009
aF0
aF0.0039075382044137337
aF0
aF0.0076172638270822031
aF0.0071510073988780079
aF0
aF0.0044187666429257606
aF0.014923937730611465
aF0
aF0.0014629450640070453
aF-0.023950990682357762
aF0
aF-0.0001414890835043341
aF-9.0540603836826092e-05
as(I7
g2
g3
(g5
S'\x06\x00\x00\x00\x00\x00\x00\x00'
tRp803
g2
I0
tp804
(lp805
F0
aF-0.0060994431939336013
aF0
aF-0.00755121329450259
aF0
aF-0.01288808567937777
aF0
aF-0.016675235266428348
aF0
aF-0.012707784180758517
aF-0.033781546086343213
aF0
aF-0.0017216814356427138
aF-0.036093541232913792
aF0
aF-0.0086144339744497912
aF-0.0023600116389218828
aF0
aF-2.1908230193648294e-06
aF-0.0098713350110049506
as(I3
g2
g3
(g5
S'\t\x00\x00\x00\x00\x00\x00\x00'
tRp806
g13
I1
tp807
(lp808
F0
aF-0.0013887913022744328
aF0
aF-0.0011639518032058639
aF0
aF-0.00051274010830390027
aF0
aF-1.1400621895000062e-05
aF0
aF-0.00041282657013236095
aF-0.00043057342881269934
aF0
aF-2.3655691890375464e-05
aF-1.8334224993609319e-05
aF0
aF-0.0003494597782363272
aF-0.0003810842050246655
aF0
aF-8.3300407193582735e-09
aF-9.6440788478080852e-09
as(I5
g2
I5
g2
I2
tp809
(lp810
F0.49518258243880975
aF-0.62729392887906044
aF0.47186688871477456
aF-0.62538729173990981
aF0.37850525543532643
aF-0.61447601871792856
aF0.13807748319990185
aF-0.51794299783587749
aF0.12120493743313904
aF0.30063693353855625
aF-0.96126292038026462
aF0.013506221937941185
aF0.20430902749137606
aF-0.94629048819990003
aF0.10593114120959754
aF0.078993393838948225
aF-0.43870735715379328
aF0.0021772437682334059
aF0.035752985545816435
aF-0.4317455183133122
as(I5
g2
g3
(g5
S'\x03\x00\x00\x00\x00\x00\x00\x00'
tRp811
g2
I2
tp812
(lp813
F0
aF-0.15270221953177388
aF0
aF-0.15238064307530647
aF0
aF-0.15079623599302702
aF0
aF-0.13380908397288352
aF0
aF0.037309669760725236
aF-0.48679954168654188
aF0
aF-0.0049951707808631642
aF-0.21228371683363281
aF0
aF0.036028624705842782
aF-0.36273555059791979
aF0
aF-0.000403136514551202
aF-0.10242255378787124
as(I9
g13
g3
(g5
S'\x07\x00\x00\x00\x00\x00\x00\x00'
tRp814
g2
I0
tp815
(lp816
F-0.0015134030317610824
aF0
aF-0.0014210371512137277
aF0
aF-0.0010447205466919921
aF0
aF-0.0002042513388861833
aF0
aF-0.0039704317233575604
aF-0.00023487128934614535
aF0
aF0.00048325263933508166
aF-8.731390102155955e-05
aF0
aF-0.0054083650864439276
aF-3.1743400074713414e-05
aF0
aF-3.7750316960396633e-08
aF6.0462811052261787e-05
aF0
as(I3
g2
g3
(g5
S'\x00\x00\x00\x00\x00\x00\x00\x00'
tRp817
g2
I2
tp818
(lp819
F0
aF-0.018545587327325544
aF0
aF-0.017410103749760028
aF0
aF-0.012788265476741518
aF0
aF-0.0024925360293375992
aF0
aF0.010285864821427579
aF0.11931818620501049
aF0
aF0.0022543176376985177
aF-0.016853253952868234
aF0
aF0.0056355816909612177
aF0.16110439577263996
aF0
aF1.5973715249492477e-05
aF7.7554095070873953e-05
as(I8
g13
g3
(g5
S'\x00\x00\x00\x00\x00\x00\x00\x00'
tRp820
g2
I0
tp821
(lp822
F-0.088897547257143272
aF0
aF-0.08327600650582484
aF0
aF-0.061318859029347812
aF0
aF-0.013611832215678084
aF0
aF-0.00024518984550286096
aF-0.17053742792021823
aF0
aF-8.9784358335667013e-05
aF-0.07548472250405408
aF0
aF-9.5875989567214954e-05
aF-0.060143592792537871
aF0
aF-1.6952479714917458e-06
aF-0.0035612079087327638
aF0
as.