(lp1
(S'Pt'
p2
(lp3
F0.38783412931496986
aF5.49540973849395
aF0.35513188602636941
aF5.2205138409351202
aF0.23680107832956759
aF4.1653745295803057
aF0.038385383795974164
aF1.7559501992034345
aF0.04211601706006303
aF0.88999271989100248
aF6.0800170111423446
aF0.0030917455713653551
aF0.21403443369143685
aF2.327851497354144
aF0.03406349846778
aF0.54241567092434573
aF3.1999060090444242
aF1.2083109179835673e-06
aF0.0092401383144601491
aF0.35274903804443197
atp4
a(g2
(lp5
F1.0184703689018113
aF5.4862063370967071
aF0.95662318113762679
aF5.195407561440172
aF0.72176563623947931
aF4.0890781439005979
aF0.22060819739318299
aF1.6357323977427298
aF0.26303309465558278
aF1.6097384499392391
aF5.2690238443546145
aF0.039278066750440946
aF0.6537952462125044
aF1.8056453405798125
aF0.17482616948890239
aF0.78309861478009368
aF3.0910364693917769
aF0.00020452815920519389
aF0.089220929242293232
aF0.38369548261583997
atp6
a(g2
(lp7
F0.37530085671649077
aF5.503224141791133
aF0.33828720516490585
aF5.2254647755448529
aF0.20923319848978472
aF4.1575490394819337
aF0.023145700120642418
aF1.7182240022403117
aF0.031576736342825797
aF0.75721924161987986
aF6.0915647558997481
aF0.0039906944604875538
aF0.14495381225412152
aF2.2428061518804392
aF0.022509930831600404
aF0.4999597724520381
aF3.2863602132553495
aF1.6982851066427873e-05
aF0.0041266442369964039
aF0.34496727874093946
atp8
a(g2
(lp9
F0.83798280934617808
aF5.5506860296980571
aF0.77535181230471728
aF5.2540373993100893
aF0.54555527899481271
aF4.1289364055961837
aF0.12376748047333948
aF1.6701158735238844
aF0.14266516110975347
aF1.3065737612215755
aF5.3112693114575844
aF0.022744216563006257
aF0.42117321868531177
aF1.8593933911943672
aF0.096274429094279315
aF0.7132759911250911
aF3.1357176502872481
aF0.00021700997445473519
aF0.045361841607689558
aF0.42005909891671889
atp10
a(g2
(lp11
F0.53094172820637597
aF5.9524258113169406
aF0.48357910748769906
aF5.6660334917065605
aF0.31809239658359845
aF4.5526921888483409
aF0.057786139394285119
aF1.914878775073289
aF0.031804237995326938
aF0.74960258002068336
aF6.5355953150228601
aF0.0025825352463328659
aF0.25081593506397643
aF2.5434414862759529
aF0.025479061422568314
aF0.41274439453108458
aF3.5570013924514345
aF4.670939241485122e-06
aF0.02448891928001528
aF0.53720083866941148
atp12
a(g2
(lp13
F1.3705258718137614
aF5.8616964583120321
aF1.300687548593698
aF5.5664990109767434
aF1.0272978014571361
aF4.4288703305816837
aF0.38577919720782622
aF1.8150482597878803
aF0.42503644154840348
aF2.169079573580055
aF6.0661855629377888
aF0.095395038171042959
aF1.2690234479696705
aF2.3635462382389449
aF0.2538532619572863
aF0.90605133175165364
aF3.29441568892446
aF0.0022711028556339462
aF0.21712250830390104
aF0.46400697891534426
atp14
a(g2
(lp15
F0.50552346470398613
aF5.9209931909223013
aF0.45546591424506683
aF5.6341937830386346
aF0.28145878888884157
aF4.5282441344931925
aF0.031688516464458714
aF1.9463636821280084
aF0.03466056406776679
aF0.74416170073190668
aF6.3268813939747002
aF0.0030112942327438523
aF0.15692225930720061
aF2.6210557347096093
aF0.027359953371736467
aF0.47309411811784807
aF3.3986690879390231
aF1.2801376767677178e-05
aF0.0063641320132971435
aF0.6056119017113637
atp16
a(g2
(lp17
F1.6641849336530297
aF5.4977747129859349
aF1.6030006507035914
aF5.2071789607483812
aF1.3557960989792601
aF4.089486573643482
aF0.68068300759051847
aF1.5494974513297879
aF0.61989095966852559
aF2.0094635766164006
aF5.9694919842620191
aF0.21001787627686058
aF1.670782708621785
aF1.9544673887089639
aF0.26935545841128383
aF0.61781869466893902
aF3.3030470366972011
aF0.0066737310647250817
aF0.4601149002580277
aF0.22863224686176953
atp18
a(S'Cu'
p19
(lp20
F1.1943929909044795
aF3.5192063057374376
aF1.141471649862863
aF3.2979998242923481
aF0.93390065808219969
aF2.4719326340789634
aF0.41742242063136825
aF0.81098329728440821
aF0.063020386942879592
aF1.3846402217187148
aF3.4233385370427709
aF0.028019279420189197
aF0.59157770676637911
aF0.71574696521656
aF0.050674179605211991
aF0.63495858640652025
aF2.0985526564698387
aF0.014695479132568098
aF0.068286309955103347
aF0.016944362722534374
atp21
a(g19
(lp22
F1.1943929909044793
aF3.1715578569191649
aF1.1414716498628628
aF2.9701274813713261
aF0.93390065808219969
aF2.2240676438835165
aF0.41742242063136825
aF0.75086032515581935
aF0.063020386942879522
aF1.3844750274161026
aF2.7985403529332835
aF0.02801927942018919
aF0.58109640353986025
aF0.57104047752076159
aF0.050674179605211922
aF0.60499171475300406
aF1.7510151283426967
aF0.014695479132568089
aF0.050842868564187946
aF0.011878254925722783
atp23
a.