(lp1
(S'Pt'
p2
(lp3
F0.2632347807981264
aF5.8905821137388434
aF0.24215417405377168
aF5.593546957502606
aF0.16487378825982868
aF4.4473951376004814
aF0.028728230761401664
aF1.8185895687140097
aF0.00026130473400001459
aF0.50371076632382039
aF6.6772912164106595
aF9.5736504187536738e-05
aF0.15613233049726211
aF2.3895020889189458
aF0.00010243160352469843
aF0.26706709424427627
aF3.7894650992537584
aF1.8456745382391235e-06
aF0.0081940132385636202
aF0.43181365952005113
atp4
a(g2
(lp5
F0.30894030709289988
aF5.9685610028486735
aF0.28467843088624367
aF5.6676043142733157
aF0.19583760131511396
aF4.509441110143185
aF0.036989784870640405
aF1.8655931973672679
aF0.0024191965894846592
aF0.52644711485496531
aF6.6092950115862772
aF0.00024684711483148603
aF0.1705744074381399
aF2.3964003424705944
aF0.0019962721248852856
aF0.2781937416254619
aF3.8052774178859217
aF5.3047624026135841e-06
aF0.012529509175508559
aF0.50277812069131422
atp6
a(g2
(lp7
F0.25732002243181507
aF5.870014995527038
aF0.23463816934418066
aF5.5813897363510305
aF0.15357716692177539
aF4.4691972528629824
aF0.022915967649273516
aF1.904924017169833
aF0.00079575447646655054
aF0.48414549666278639
aF6.633493398378346
aF0.00024127120374987796
aF0.12940615797360291
aF2.5848842523212698
aF0.00040873005105944671
aF0.27894175015972295
aF3.6419111960700588
aF5.5837677349543637e-06
aF0.0057750999582346155
aF0.48671842595061326
atp8
a(g2
(lp9
F0.2797927328419052
aF5.9176106761187546
aF0.25494450495192311
aF5.6240409550994812
aF0.16656588463636338
aF4.4964271443889965
aF0.025205110825145944
aF1.9174656827070589
aF0.0037220106497416073
aF0.47598183498226876
aF6.5575791626163733
aF0.00037667866216275131
aF0.12682587989389188
aF2.5240247587404494
aF0.0030344100397162537
aF0.27749005450698133
aF3.684083877741283
aF7.4245619119745076e-06
aF0.0073734206141380515
aF0.54018112066217905
atp10
a(g2
(lp11
F0.22838764048044682
aF5.948970873863237
aF0.20114378976772671
aF5.655115655345953
aF0.11165408687801195
aF4.5232297424100878
aF0.0074111808626650911
aF1.9188159729778669
aF0.00060350611305735305
aF0.23028782139922438
aF6.6537578117055878
aF0.00021937738829370343
aF0.048074257670057768
aF2.5560749592563452
aF0.00023858382400370316
aF0.13747962869539085
aF3.7241279261336455
aF4.2189140145710177e-06
aF0.00073757504930923483
aF0.53166861861232939
atp12
a(g2
(lp13
F0.80870626210236718
aF5.9484237551402641
aF0.7539311686325656
aF5.6551394939573871
aF0.54745024932291797
aF4.5255813256072965
aF0.13341595910622051
aF1.929414813347184
aF0.05546138405131195
aF1.0344238201570553
aF6.6534838794762008
aF0.010162920520529525
aF0.4391183281992711
aF2.5946395549290782
aF0.043363268847878764
aF0.49148610269817761
aF3.6951151998172374
aF0.0011086270297351757
aF0.056069388311260591
aF0.53672867771575472
atp14
a(g2
(lp15
F0.34626642121038509
aF5.9323292445480993
aF0.31485455400653667
aF5.6349614098677332
aF0.20294168187640882
aF4.4895929448922196
aF0.027415913516661311
aF1.8648157173794635
aF0.0015426392085031114
aF0.41377307962676063
aF6.637266891105952
aF3.7058780547589491e-05
aF0.12579431558256371
aF2.444807956230473
aF0.0014366862860960925
aF0.21996172238963563
aF3.7592328837652738
aF5.3639150037844e-10
aF0.0059137779403355501
aF0.48183841850728371
atp16
a(g2
(lp17
F0.85965557764222322
aF5.884135056865329
aF0.82231243555619049
aF5.5889356488050819
aF0.67782437219906599
aF4.451026276260917
aF0.3272489744295653
aF1.8407952151601936
aF0.15871256561466729
aF0.70117480211650263
aF6.6323335334518871
aF0.0027789959320911064
aF1.0568033887639352
aF2.415364089836352
aF0.15203090008522852
aF0.077864722810543532
aF3.745996816426465
aF3.6250791797815106e-05
aF0.28099213243544963
aF0.44789148370222803
atp18
a(S'Cu'
p19
(lp20
F0.87394107646135932
aF3.0781725515669849
aF0.83687838215602972
aF2.8638061605497143
aF0.69796630659873682
aF2.0749435654209489
aF0.37434180509308429
aF0.5948577316655993
aF0.011109036030465763
aF0.056000121686839231
aF2.8382754448051521
aF0.0042626676400169521
aF0.20134502627112008
aF0.44717006588790115
aF0.0056555850567256392
aF0.021478646437597667
aF1.9178174551815057
aF0.00025269341606024015
aF0.15187702560133465
aF0.0056934739007177297
atp21
a(g19
(lp22
F0.8739410764613591
aF0.27413119303318434
aF0.83687838215602961
aF0.24485106664942405
aF0.69796630659873671
aF0.14578126598853736
aF0.37434180509308429
aF0.014473390355974509
aF0.011109036030465744
aF0.20990924295187924
aF0.024279855054947529
aF0.0042626676400169504
aF0.0081001041774136952
aF0.0016115353230527901
aF0.0056555850567256245
aF0.18982326101422925
aF0.020082333623535658
aF0.00025269341606023993
aF1.8518567059964141e-05
aF1.2229814275567019e-06
atp23
a.