(lp1
(S'Pt'
p2
(lp3
F0.49091332429149398
aF5.5696409586294902
aF0.44897849033721521
aF5.2827847448698622
aF0.29819391104654347
aF4.1792426361811374
aF0.049242468130399938
aF1.6716366023272033
aF0.067977857963117894
aF1.1562725965856209
aF6.0642304875004962
aF0.0063279206411782501
aF0.26658529213057214
aF2.20139891459073
aF0.052243744210106954
aF0.72703512534452663
aF3.231167534683101
aF1.0833654325814952e-05
aF0.011345088226352886
aF0.31224292728132613
atp4
a(g2
(lp5
F0.97797019097927296
aF5.6560159027437296
aF0.91444914579155379
aF5.3592658536228344
aF0.67135456904141799
aF4.2287320917210609
aF0.16767597384904231
aF1.7186253496999824
aF0.25382966638567162
aF1.871377865189241
aF5.4634085009799911
aF0.039809617734261976
aF0.55000523740378782
aF2.0447338954397059
aF0.16652276292047774
aF1.0798025247662628
aF3.0464750597294805
aF0.00035322243286837183
aF0.053412467419250327
aF0.43132625650695849
atp6
a(g2
(lp7
F0.49948961335668368
aF5.5476441166254142
aF0.45476424107572383
aF5.2653216162154548
aF0.2948260338860561
aF4.178135325031934
aF0.041144262053824231
aF1.6890083604433075
aF0.072191403387977235
aF1.1328812105426036
aF5.9980249901535236
aF0.00754232539924048
aF0.23550688735014111
aF2.2418581252129952
aF0.053966115015137511
aF0.74397988652731306
aF3.1416453248413871
aF2.2279513761201921e-05
aF0.009679564378030199
aF0.318364222033236
atp8
a(g2
(lp9
F0.64472667163594866
aF5.5682807948600255
aF0.5959188096424044
aF5.2698219925918659
aF0.41605450706202302
aF4.129971621719057
aF0.087383933118306695
aF1.6006434813495198
aF0.11436272371739677
aF1.331842287836583
aF5.4997501363825165
aF0.012554219126925448
aF0.35785653464193823
aF1.8656393610806181
aF0.084255961396528023
aF0.79783573784775141
aF3.1166545598463764
aF3.0939399020153876e-05
aF0.024230253645899168
aF0.30886463968548966
atp10
a(g2
(lp11
F0.64226528642966141
aF5.8086889213550599
aF0.58423952806415791
aF5.5187255367352659
aF0.37926681646163507
aF4.4018647077081496
aF0.05801216420598912
aF1.8207973272904461
aF0.072002695496285934
aF0.96740407811886486
aF6.0103435285007967
aF0.007685594298328653
aF0.24733177470203138
aF2.3781092438547375
aF0.053451495664303267
aF0.58311892169546309
aF3.1966287443707548
aF1.4759001070134794e-05
aF0.013768446968780063
aF0.45195708119648398
atp12
a(g2
(lp13
F1.8234492935514415
aF5.5472751408446879
aF1.7556034841087371
aF5.263638436591088
aF1.4852767965196363
aF4.172478385647441
aF0.77843987765564127
aF1.6716054133250948
aF0.71776736696291699
aF2.4959290528109612
aF5.9121920292871968
aF0.26887155037255411
aF2.1104568647704753
aF2.1973094218928817
aF0.36219671204934262
aF0.90704506531892826
aF3.1418435383256096
aF0.016772882289582559
aF0.62223109187379
aF0.31847703685865608
atp14
a(g2
(lp15
F0.63283861618278747
aF5.7778445704694343
aF0.57372449151750848
aF5.4795782063667726
aF0.36529365990614676
aF4.3320898091981173
aF0.048000424636685531
aF1.7165268770990614
aF0.064190220077163906
aF0.90310026410658339
aF5.9483187795463461
aF0.0062696412313098205
aF0.21449723265017939
aF2.1299395117012487
aF0.048754386808622832
aF0.54675994089626179
aF3.2993298817506189
aF1.1434392273523806e-05
aF0.0088628552567802665
aF0.3835688397241675
atp16
a(g2
(lp17
F1.6893592769338022
aF5.7841146149192859
aF1.6219498390763767
aF5.4900173464194211
aF1.3547029948299638
aF4.3537623142075184
aF0.66770916344051967
aF1.7349319390618672
aF0.65910552686796609
aF2.5739430444835154
aF6.1512053438236309
aF0.20636481703956752
aF1.9089948843974889
aF2.298133217646547
aF0.33467634484898368
aF1.0167099051771007
aF3.2803295640084862
aF0.0071974364128653346
aF0.49896714396695502
aF0.36697364728804405
atp18
a(S'Cu'
p19
(lp20
F1.2882503737435078
aF3.7028097802522169
aF1.2352722097198123
aF3.4798189958650472
aF1.024255374990384
aF2.6476785317662359
aF0.46595538512875762
aF0.97429529534944859
aF0.075715158321543546
aF1.7871647461225313
aF3.845735187092878
aF0.036606713539980774
aF0.78590081674677992
aF0.82626896484308865
aF0.071522459896617679
aF0.87671802750055972
aF2.3660750304890072
aF0.031131031965886288
aF0.14059085062245438
aF0.021380720805578759
atp21
a(g19
(lp22
F1.2882503737435078
aF3.6982024931088739
aF1.2352722097198121
aF3.4698090337486303
aF1.024255374990384
aF2.6172907569871859
aF0.4659553851287575
aF0.92331297174096016
aF0.075715158321543463
aF1.8504607382649298
aF3.7109479223244755
aF0.036606713539980767
aF0.73017999226948394
aF0.77904047959985101
aF0.071522459896617596
aF0.9609488437955096
aF2.3238426257421914
aF0.031131031965886305
aF0.12829704749635762
aF0.022759700431562373
atp23
a.