(lp1
(S'Pt'
p2
(lp3
F0.52075910449274931
aF5.3143724861377981
aF0.48319292747882731
aF5.0453805046858031
aF0.34343231457583762
aF4.0153025287214179
aF0.077469188707216613
aF1.6765858910473252
aF0.069446789125251651
aF1.3686819811877518
aF5.6213059555751315
aF0.0054491624059019965
aF0.35422483543757072
aF2.1374837586552196
aF0.055447517232358225
aF0.8183762386924992
aF2.9457341503358383
aF4.3497987973113897e-06
aF0.019026185026203069
aF0.3144226235512213
atp4
a(g2
(lp5
F1.2544534001434644
aF5.4505919115993473
aF1.189539609108311
aF5.1645966463835418
aF0.94065462537705558
aF4.0744148217864735
aF0.36971889005629816
aF1.6427033554336143
aF0.37004486635663791
aF2.3648874123805839
aF5.161948966241293
aF0.069765420786569582
aF1.0287477108267831
aF1.8237303746132154
aF0.22230484486272373
aF1.1596154996014407
aF3.0041386810007324
aF0.00045710794559876932
aF0.17157116220491889
aF0.40204298223371626
atp6
a(g2
(lp7
F0.51363445111396111
aF5.3380378807550057
aF0.46837182394893773
aF5.0649179206371935
aF0.30626508129564789
aF4.0168845510160507
aF0.045498359573860621
aF1.6377029733224979
aF0.047207114247341267
aF1.1943685085697475
aF5.6759952348514142
aF0.0072461736233910713
aF0.23699083675778895
aF2.057233135166042
aF0.031995680715533485
aF0.78208955511084211
aF3.0701953139253551
aF6.7075610354911432e-05
aF0.0084875312891519866
aF0.3091808917470773
atp8
a(g2
(lp9
F1.1649555072092135
aF5.443171294683224
aF1.0884021639355119
aF5.1541793575151109
aF0.80170403537763302
aF4.0604706504554855
aF0.22879764503832034
aF1.6796895313058551
aF0.24489216741250242
aF2.1119964478894779
aF5.067284629127804
aF0.049313626478109003
aF0.66509936889747523
aF1.8898506820018597
aF0.15767962188476456
aF1.2178032770669929
aF2.957175172860572
aF0.0011331762056983152
aF0.09050234581373455
aF0.45244021124961059
atp10
a(g2
(lp11
F0.69666529689384216
aF5.9219757998215741
aF0.64056389747066966
aF5.6318230973818402
aF0.44159727917052494
aF4.50201112365135
aF0.10389864056632725
aF1.8331264624571861
aF0.045609638598726014
aF1.2056161316440173
aF6.3768439272969175
aF0.0030350799630963431
aF0.40561586122029453
aF2.350001328154768
aF0.038177594144252473
aF0.69094774508770174
aF3.5204409568766724
aF8.3807424860460221e-06
aF0.046282265968056867
aF0.4615474392301942
atp12
a(g2
(lp13
F1.6455019954691559
aF5.701635809067656
aF1.5760636766891956
aF5.4067466174033658
aF1.3001730207725037
aF4.271170636900985
aF0.60718434523647913
aF1.6928774051429063
aF0.55326904266513954
aF3.0668406593936681
aF5.6470509413208525
aF0.1625370072152364
aF1.7795174702528234
aF2.0633929757562388
aF0.3030491286942858
aF1.320353905485028
aF3.1706546714780459
aF0.0081392829209469206
aF0.33109257581555401
aF0.39031894022430269
atp14
a(g2
(lp15
F0.62394980583427562
aF5.8404021393544721
aF0.56608884228040068
aF5.5586243635005959
aF0.36151262031261583
aF4.474865976385316
aF0.04797731606065643
aF1.9504093190925842
aF0.042872857436362738
aF1.124539955804613
aF6.0596462477368904
aF0.0043200738360152204
aF0.22110148914551597
aF2.6276076122646472
aF0.033097157184485311
aF0.7420261031807468
aF3.1778794592906969
aF4.1051061296507092e-05
aF0.0099685907835976549
aF0.62089879152050476
atp16
a(g2
(lp17
F1.7876823303267506
aF5.5003447867575632
aF1.7286066931474031
aF5.2111472132123069
aF1.4868651919670297
aF4.0970473468309008
aF0.79466223798046842
aF1.5512531075532707
aF0.62633612991520393
aF2.9270181667847979
aF5.8385625942311306
aF0.27834858274349139
aF1.9293175248850043
aF1.9501954456541333
aF0.22392744203966422
aF1.1568542713629713
aF3.1896113695630959
aF0.016884784043640702
aF0.53126469479845706
aF0.23069116999080772
atp18
a(S'Cu'
p19
(lp20
F1.1354348740863287
aF4.533703546835139
aF1.0827794138318221
aF4.2778638901893826
aF0.87808411499112504
aF3.3107076002817268
aF0.38565305762374164
aF1.2646360057960719
aF0.055285792683154478
aF1.8074305869514828
aF5.0795576500531645
aF0.023518420515212652
aF0.78562761032407202
aF1.3721701722415802
aF0.04036787188798735
aF0.85183100389118149
aF2.8862467494058617
aF0.0089849038562254749
aF0.10313301431583155
aF0.067660368602980692
atp21
a(g19
(lp22
F1.1354348740863289
aF3.6738983446482734
aF1.0827794138318221
aF3.4629657438698742
aF0.87808411499112515
aF2.6714965685671226
aF0.38565305762374164
aF1.0105706174235551
aF0.055285792683154561
aF1.8827619113755412
aF3.6336578073998225
aF0.023518420515212655
aF0.68356735696685678
aF0.90689655084438547
aF0.040367871887987419
aF0.95079721599240286
aF2.1345318008055436
aF0.0089849038562254714
aF0.071373220249011979
aF0.031657894936309459
atp23
a.