(lp1
(S'Pt'
p2
(lp3
F0.48843657603873014
aF5.2962843561323529
aF0.45384455145599645
aF5.0427606107129517
aF0.32436062068508914
aF4.066509062150228
aF0.074208181634111373
aF1.7904618541316022
aF0.051920148985936311
aF1.2899763468840497
aF5.9020146703845295
aF0.0048448125058237583
aF0.36739939574313324
aF2.3185934280154785
aF0.039734019728239735
aF0.69881697720039693
aF3.0317124287612178
aF3.1538076629402517e-06
aF0.016298667210565946
aF0.35328211984340702
atp4
a(g2
(lp5
F1.3025670926251092
aF5.2316457555670253
aF1.2366372972173487
aF4.9419341013614915
aF0.98320001980855642
aF3.8452336949439978
aF0.40929785899290227
aF1.4707903711632546
aF0.27899962659927408
aF2.14340184552881
aF4.4922467904634482
aF0.064423813455767823
aF1.0793900064336377
aF1.5017863796511528
aF0.15512831382939538
aF0.95123946966039508
aF2.6506796757181275
aF0.0013791007021401493
aF0.18005335740400591
aF0.30050650784351046
atp6
a(g2
(lp7
F0.46099650195509645
aF5.3165713817923406
aF0.41806209726314147
aF5.0550323963020842
aF0.26617371285320002
aF4.0525263354909828
aF0.034213177451980478
aF1.7532210295672996
aF0.026470029593531834
aF1.0422920903475299
aF5.9090781216781894
aF0.0046533566162437921
aF0.20072120233805502
aF2.2436522735865885
aF0.017463828338928351
aF0.67814768513899515
aF3.1340335334578131
aF7.3099676725783063e-05
aF0.0055367291646609635
aF0.35462590214102108
atp8
a(g2
(lp9
F1.3635386502044171
aF4.7893570006900923
aF1.2745213563933451
aF4.5195085101412156
aF0.94614406986477573
aF3.5011745322239487
aF0.3169078914575133
aF1.3196000291397376
aF0.14787594852632149
aF1.8170099507842188
aF4.1939975833242222
aF0.030984989108145202
aF0.71278321633183517
aF1.3131352300535266
aF0.10337612744784375
aF0.96510958689587678
aF2.4958845593926746
aF0.0021713253318404826
aF0.14114265532910367
aF0.19742809880141879
atp10
a(g2
(lp11
F0.80276873331652976
aF6.0173135017109853
aF0.74792161807999213
aF5.7314823591171082
aF0.54874413053819593
aF4.6102143627243404
aF0.17131202365203652
aF1.8974954274573568
aF0.038569502676750099
aF1.4501727600742487
aF6.7406538893963601
aF0.0046041647898880239
aF0.68992313497206947
aF2.5250414099581238
aF0.031213026997935992
aF0.68982012441837082
aF3.6409303249805891
aF0.00025310367421788299
aF0.08910213190273869
aF0.48304022943763025
atp12
a(g2
(lp13
F1.441190707831445
aF5.6094701256566299
aF1.3663310167511964
aF5.3115036134763098
aF1.0725317085766295
aF4.1678123265128582
aF0.38292460134505635
aF1.6009438450617195
aF0.33499109574409103
aF2.6252004494463161
aF5.4902140572070683
aF0.10276121282707895
aF1.1538182031791184
aF1.8379164656128189
aF0.17624665960082192
aF1.2390225019926553
aF3.1508358372383918
aF0.0057618748583969205
aF0.13565870219129747
aF0.3307056233201946
atp14
a(g2
(lp15
F0.71041701109109878
aF5.8477647260932688
aF0.65233282012390648
aF5.568681972409304
aF0.44123780421825476
aF4.4939698919491748
aF0.078595727044344435
aF1.9768095086599415
aF0.030569914431754924
aF1.4122553531802575
aF6.2570563696405692
aF0.0057956422627664077
aF0.35959544467196414
aF2.7241124009345161
aF0.021187670067991
aF0.85357379074689421
aF3.2020309621420053
aF0.00028584672262386643
aF0.023924448384180889
aF0.58823623369943601
atp16
a(g2
(lp17
F1.5135115088118369
aF5.7621154195590716
aF1.4530410047284585
aF5.4727936170395868
aF1.2089372463853054
aF4.3533826962498283
aF0.55694590932810406
aF1.7548211517180254
aF0.3910045831641521
aF2.41262148129
aF6.3596821304823123
aF0.15736192318028663
aF1.5913756442686715
aF2.2958296549606172
aF0.15059097513900033
aF0.95294869540529337
aF3.3095397964394486
aF0.0069439460647604907
aF0.42811041015628559
aF0.28922006107707549
atp18
a(S'Cu'
p19
(lp20
F0.92034781310256997
aF4.393071451877006
aF0.86706478606958404
aF4.1228389737830478
aF0.66899478847996907
aF3.1053005675804957
aF0.25688112808087588
aF1.0214970392127134
aF0.026464805996057696
aF1.2081435658224629
aF4.8131652919886436
aF0.0099564784674425807
aF0.4680939413380697
aF1.1315739060373586
aF0.01416222032806822
aF0.57997509754359033
aF2.8625291340819952
aF0.00097831472891179365
aF0.04488833242847326
aF0.038101144067138284
atp21
a(g19
(lp22
F0.92034781310256997
aF3.6903553299972573
aF0.86706478606958404
aF3.4798527882303385
aF0.66899478847996896
aF2.6860287453495117
aF0.25688112808087588
aF1.0029083316933354
aF0.026464805996057748
aF1.191670843336438
aF3.3278215147886487
aF0.0099564784674425963
aF0.4837531784386539
aF0.90140754992230643
aF0.014162220328068255
aF0.58068484973038581
aF1.9243101712403361
aF0.00097831472891179647
aF0.073664585948223615
aF0.046119481414254454
atp23
a.