(lp1
(S'Pt'
p2
(lp3
F0.45316742785622166
aF5.6003654620526735
aF0.41476559880038244
aF5.307769821001215
aF0.27691191344664823
aF4.1820809853648155
aF0.047976681980393961
aF1.637781757452158
aF0.054840200370974597
aF0.99967335997391471
aF6.0316408020085515
aF0.0044335600502900903
aF0.25672700806273119
aF2.10451452190344
aF0.043629477973444228
aF0.59527507590803497
aF3.30850304769797
aF5.7911419576217111e-06
aF0.011837756590429779
aF0.30889401460880617
atp4
a(g2
(lp5
F0.8640803207093426
aF5.7408630678207908
aF0.80416034482323073
aF5.4409207119656005
aF0.57831791794205978
aF4.294036955599597
aF0.13453084216081074
aF1.7271811790837095
aF0.20391201029539471
aF1.5499391275671943
aF5.6743831672250256
aF0.027420167061488043
aF0.46658652003614065
aF2.0878247132277257
aF0.14182475566676844
aF0.878705422434644
aF3.1880516261752425
aF0.00016791718583884096
aF0.045905854510091777
aF0.42866468517155837
atp6
a(g2
(lp7
F0.47043846603470507
aF5.5627509830340385
aF0.42674156397185692
aF5.2828769301071885
aF0.27168280612929047
aF4.2052282667686711
aF0.034081244852835174
aF1.7289278500982843
aF0.0645794388517833
aF0.99290849042637297
aF5.9622931027438799
aF0.0064741047025565915
aF0.20495885517971707
aF2.3102886258806823
aF0.04898735482959396
aF0.64798073431139203
aF3.0991378600797042
aF2.3298719183890341e-05
aF0.007681615339384427
aF0.34232325903605781
atp8
a(g2
(lp9
F0.56735642928114893
aF5.6117291848837105
aF0.52026568702530451
aF5.3166630817527976
aF0.34930943064818137
aF4.1877801198328184
aF0.059360939459985398
aF1.6555121054841695
aF0.092005457067235494
aF1.1199545280502559
aF5.6862293234573213
aF0.0095453352449459336
aF0.27489856494551529
aF2.0128260427391056
aF0.069050467054800058
aF0.69113671729614634
aF3.1648205168213375
aF2.7526940245815109e-05
aF0.015353897249165383
aF0.33478697609589808
atp10
a(g2
(lp11
F0.57805324682999915
aF5.7857595992953934
aF0.52262200865685893
aF5.4924459214287369
aF0.32914409587227444
aF4.3652933338574096
aF0.042647122463456297
aF1.7900809326717029
aF0.051353704104014734
aF0.76913866856911717
aF5.9491594644842589
aF0.0058927826464955872
aF0.19085396151080244
aF2.2998771729832082
aF0.037472670879019246
aF0.45920680851277851
aF3.2150739629652958
aF1.6905355254961307e-05
aF0.0089117363219352458
aF0.43671555485439301
atp12
a(g2
(lp13
F1.7921101362113596
aF5.4663655581226003
aF1.7209652650401279
aF5.1822268826627269
aF1.4367429419046647
aF4.0895575313801258
aF0.69791123532056265
aF1.6059032803770885
aF0.69108100854844867
aF2.2108862897466106
aF5.834160728400537
aF0.23824008056300558
aF1.7965274914605445
aF2.0615675064946211
aF0.38079152244034653
aF0.80074426798083198
aF3.1628205175039064
aF0.016625668969689499
aF0.51554895175763737
aF0.28011163486537677
atp14
a(g2
(lp15
F0.58580133772737664
aF5.7851969701993573
aF0.5307440189157312
aF5.4882885066817257
aF0.33720059347835418
aF4.3466736117972102
aF0.044703417821330166
aF1.7456930346342683
aF0.059977114441780319
aF0.77701553311177807
aF5.9643009269250644
aF0.0047627524360371667
aF0.20239264826145925
aF2.1855471857683066
aF0.047813952467186213
aF0.45243721208038529
aF3.2928675110435206
aF5.3272430408373792e-06
aF0.0095208909596602859
aF0.4073420310975599
atp16
a(g2
(lp17
F1.5357327267456928
aF5.8523966580091074
aF1.4708395497417395
aF5.5574354744976091
aF1.2150635509633252
aF4.4187438646670554
aF0.56869239395149851
aF1.7973199476621111
aF0.5984861624461334
aF2.1921133615405028
aF6.1770969133842257
aF0.14716599641375766
aF1.7324929438732639
aF2.4160283233413291
aF0.32496161592065298
aF0.80539389362646052
aF3.2663379290256458
aF0.0024709079173658157
aF0.43034056100421064
aF0.42065105992101648
atp18
a(S'Cu'
p19
(lp20
F1.285392700249699
aF3.6593009699180588
aF1.2330121496367332
aF3.4321772231039969
aF1.0249468506165988
aF2.5849263223696473
aF0.47855655160768973
aF0.89127796497347656
aF0.074362910037892305
aF1.545327560016126
aF3.6341494085442387
aF0.035913224292350179
aF0.72352376467754165
aF0.77718307194680392
aF0.070040207935563051
aF0.73759545200918497
aF2.255621087331602
aF0.030307198671274037
aF0.14562341804226009
aF0.022858401834121033
atp21
a(g19
(lp22
F1.285392700249699
aF3.1874391214777869
aF1.2330121496367332
aF2.9789268138712348
aF1.0249468506165991
aF2.2094469280151507
aF0.47855655160768973
aF0.73862591303739611
aF0.074362910037892416
aF1.5991777308429764
aF2.9328114771081153
aF0.035913224292350186
aF0.65231069495203875
aF0.52438971855880367
aF0.070040207935563176
aF0.80139248284536202
aF1.9110360798360915
aF0.030307198671274037
aF0.095683635948239434
aF0.0089044498707218003
atp23
a.