(lp1
(S'Pt'
p2
(lp3
F0.19994074076616378
aF5.760474376800941
aF0.18204780542233862
aF5.4624196760520105
aF0.11806608361068807
aF4.3142514265632714
aF0.016248503971627675
aF1.7033926063570854
aF0.00012527289237532172
aF0.33613835541395254
aF6.1689315253819936
aF4.2236010513896144e-05
aF0.092889063546867989
aF2.1854603075743015
aF5.2398003140140161e-05
aF0.18775998084427459
aF3.4216151910850843
aF6.7704552929688052e-07
aF0.0038353575964441577
aF0.35442176100578371
atp4
a(g2
(lp5
F0.21150226726072505
aF5.8178967727080479
aF0.19267299217725339
aF5.5185209824482468
aF0.12533611417685664
aF4.3659071913515772
aF0.017659047448299582
aF1.7440582717818953
aF0.00019652600972867233
aF0.34122778255865549
aF6.2131309162493542
aF6.881429411709851e-05
aF0.094858311958480768
aF2.2341566204352832
aF7.9857740724749974e-05
aF0.19156828119387523
aF3.4539895425067333
aF1.2007711553666953e-06
aF0.0045037987419535635
aF0.38704197855448341
atp6
a(g2
(lp7
F0.19577033519423323
aF5.7438838644533963
aF0.17757490687910507
aF5.453185909839644
aF0.11324548272882975
aF4.3344391836804901
aF0.014609627714215586
aF1.7761194284538158
aF0.00020902969987773997
aF0.33443749980300613
aF6.1471579309543491
aF7.3073902830340947e-05
aF0.084805571392603987
aF2.3427256723066416
aF8.5036639734594106e-05
aF0.1959874277460083
aF3.3105913596959846
aF1.2700573024358125e-06
aF0.0032129514639024008
aF0.39381616987167262
atp8
a(g2
(lp9
F0.20147062516415151
aF5.7873991668409204
aF0.18274311611757785
aF5.4952975617526274
aF0.11657378276186678
aF4.3721604712832844
aF0.015137379706077619
aF1.8069431118138783
aF0.00032096339925330003
aF0.33196585920461463
aF6.1773957287881363
aF9.0157094090462077e-05
aF0.083739746266779561
aF2.3745980640568631
aF0.0001682302374053188
aF0.19620827661450368
aF3.3402356335801677
aF1.616085242491253e-06
aF0.0036150089707191716
aF0.42388756097722319
atp10
a(g2
(lp11
F0.21461012818866546
aF5.7801884810442559
aF0.18833470461221435
aF5.4859617311155002
aF0.10274111961587502
aF4.3537685509781232
aF0.0061934406169750142
aF1.7702393792548681
aF0.00049109521482654651
aF0.18030307087989
aF6.1454575907713798
aF0.00016799281966608086
aF0.039290615751438676
aF2.3052996556683714
aF0.00020326926713617362
aF0.10512208031728634
aF3.349804796562593
aF2.7947232492015757e-06
aF0.00055427135256608034
aF0.40154536312019151
atp12
a(g2
(lp13
F0.78388957189354402
aF5.8026317909902563
aF0.72891725922204498
aF5.5094362027540811
aF0.52311075099135207
aF4.3808687877803756
aF0.12106323752135727
aF1.8031345589758019
aF0.058165382630629488
aF0.83997370792360493
aF6.2262553701565615
aF0.0083941847597132115
aF0.34942908886530905
aF2.3775519798991023
aF0.048431707219711212
aF0.39683088097569347
aF3.3661988007549368
aF0.00090515611754256027
aF0.039174678963546795
aF0.41891700844926938
atp14
a(g2
(lp15
F0.34002128952669558
aF5.7547703717421461
aF0.30813838412794109
aF5.4580999798284404
aF0.19545161707673467
aF4.3166663017838083
aF0.024214677851138885
aF1.7224763574366146
aF0.0025474537754420546
aF0.33368520316404926
aF6.121560495653708
aF5.4028360294073607e-05
aF0.10537303495372742
aF2.211521194029495
aF0.0023920474545377386
aF0.17559609290344902
aF3.3774764006074953
aF5.0206461192541061e-10
aF0.0052901155730046088
aF0.36809031872518289
atp16
a(g2
(lp17
F0.80546035376833758
aF5.7775189931244855
aF0.76900846307154436
aF5.482481660751592
aF0.62743759122615617
aF4.3462657899315085
aF0.28406962850106893
aF1.7558895429080541
aF0.1531505615945887
aF0.55705711160752347
aF6.2152968756396199
aF0.00084809207711663594
aF0.84772191053327872
aF2.2830016621283797
aF0.15128168136027564
aF0.059089001332707676
aF3.4037232363548813
aF1.3012043784264624e-05
aF0.2326552747630414
aF0.38338434372462465
atp18
a(S'Cu'
p19
(lp20
F0.89191275858217456
aF2.6925918065697676
aF0.85890945463955548
aF2.4973049245696752
aF0.73534876708598973
aF1.7843486776693918
aF0.4378115760222539
aF0.48598190966391691
aF0.0074529146828392198
aF0.039222641290924252
aF2.1319493522823647
aF0.0029339544080149303
aF0.20127871015130736
aF0.32311092620086751
aF0.0038998844748339523
aF0.016739999206254925
aF1.4562184931655109
aF0.0002110995689066226
aF0.17083691407061369
aF0.003641835431966198
atp21
a(g19
(lp22
F0.89191275858217445
aF0.2600735051927493
aF0.85890945463955548
aF0.23213270706034497
aF0.73534876708598973
aF0.1376138645189677
aF0.4378115760222539
aF0.013213633666843746
aF0.0074529146828392146
aF0.20421489361693124
aF0.019921150904624121
aF0.0029339544080149299
aF0.0051734840109643951
aF0.001466537524034477
aF0.0038998844748339479
aF0.19105127693254453
aF0.016164660384055403
aF0.00021109956890662224
aF7.258752675881482e-06
aF1.5564907330945945e-06
atp23
a.