(lp1
(S'Pt'
p2
(lp3
F0.359811773683331
aF5.6838438448257609
aF0.32644353674724563
aF5.4033516305282063
aF0.20857404275921598
aF4.3233113566258883
aF0.027824074879316062
aF1.8385447172952489
aF0.041432009070500465
aF0.77808036550691861
aF6.5979275618268556
aF0.0026410829996813628
aF0.17262407307410307
aF2.5302237168956299
aF0.034526532988175339
aF0.49243273160802015
aF3.4437474283770668
aF2.1680221395184369e-06
aF0.0066062472477921436
aF0.37524036987444293
atp4
a(g2
(lp5
F0.88173337376562222
aF5.5706606679009916
aF0.82255546064390594
aF5.2744363996178176
aF0.59792383095059642
aF4.1503458406650591
aF0.14360436757166556
aF1.6781737442361031
aF0.22680140899594092
aF1.3599032190093792
aF5.4121144138170099
aF0.027437767782186574
aF0.46863133093509113
aF1.9065622394455355
aF0.16361283703973895
aF0.69580170886671988
aF3.1344338692916889
aF0.00018316044101464348
aF0.04559247363644979
aF0.40944756303312985
atp6
a(g2
(lp7
F0.34727852893020777
aF5.6803121889162282
aF0.31219467930339695
aF5.3965886195012116
aF0.19077940714110492
aF4.302413186021397
aF0.020147752781453466
aF1.7843153251307409
aF0.034009890269069948
aF0.67832230246491665
aF6.5538948822900389
aF0.003125809863953573
aF0.13572648938382675
aF2.404903626774177
aF0.026512574738805961
aF0.44537173432727523
aF3.5159247355715486
aF8.5731367217110679e-06
aF0.0045578619490288371
aF0.36201268613316301
atp8
a(g2
(lp9
F0.57289628820908289
aF5.5906560304448751
aF0.52535161060497748
aF5.2863143384518914
aF0.35393802522009926
aF4.127454502063383
aF0.064014265478252064
aF1.585196637167575
aF0.079752316060540909
aF0.91524741287917855
aF5.5040019869005841
aF0.0090062247144722107
aF0.27037201898911062
aF1.7539180956821077
aF0.059533480082457665
aF0.50773633067777513
aF3.2558489771847601
aF3.8988415182993603e-05
aF0.018639893363985527
aF0.31558302958351997
atp10
a(g2
(lp11
F0.47612703214146163
aF5.9281023346945636
aF0.42976448654474431
aF5.6426222129817933
aF0.26956232843075933
aF4.538041807997546
aF0.036219684378550381
aF1.9333392453810274
aF0.038622033702545674
aF0.62202723167703511
aF6.5209438006536553
aF0.0040849644145141712
aF0.17171574843177967
aF2.6132807942173852
aF0.029143115407124942
aF0.35366494262625098
aF3.4726652883016831
aF1.1567307601175582e-05
aF0.0093578686984367842
aF0.53080379471491834
atp12
a(g2
(lp13
F1.4051470624383409
aF5.9266327313932585
aF1.3311384692459614
aF5.6400978127243908
aF1.0418960558263723
aF4.5348906821772683
aF0.36990191772215819
aF1.9521207947763819
aF0.46340724457762017
aF1.9207360223782928
aF6.5669441255057182
aF0.09875351297953551
aF1.2211635906756511
aF2.7441735044631868
aF0.29794562041891276
aF0.78322032225406635
aF3.3957895770410191
aF0.0030672394653017271
aF0.25431503203462608
aF0.51428517828036791
atp14
a(g2
(lp15
F0.52086238608374169
aF5.8775019919376508
aF0.47022396544598094
aF5.5814879182520194
aF0.29342344451269531
aF4.4390286826186323
aF0.034647826117423987
aF1.7975631904925327
aF0.050876904052617584
aF0.66860808096240532
aF6.3548545873117916
aF0.0032234094709437445
aF0.16329012095413642
aF2.2954118461813375
aF0.042446608897963402
aF0.39789300349504225
aF3.5511200393424014
aF3.3436840714620296e-06
aF0.0067941841526888373
aF0.43669718700057869
atp16
a(g2
(lp17
F1.5254534884906832
aF5.7430912513808066
aF1.4645878681271434
aF5.4519713559697571
aF1.2236063187130262
aF4.3271432582340887
aF0.59762024304327988
aF1.7282126472633104
aF0.63292629639720921
aF1.6751786799391557
aF6.4731508794184807
aF0.14075561253650393
aF1.70058765846268
aF2.2706219634843952
aF0.35327281517367476
aF0.42668259862448132
aF3.5444807414170336
aF0.0016591789259247426
aF0.46974317748621758
aF0.33063626303095134
atp18
a(S'Cu'
p19
(lp20
F1.2657399364378032
aF2.9969626424321407
aF1.2150532319706571
aF2.799768552937667
aF1.0156610542785862
aF2.0709221222907996
aF0.50695394470760358
aF0.65656720748077946
aF0.068998094322593989
aF1.235850595129405
aF2.8023142913092625
aF0.032836414772220178
aF0.615272165370091
aF0.47834613459260128
aF0.063013434977833405
aF0.50883241229426979
aF1.8351029796720284
aF0.025418853664959322
aF0.080696038782644391
aF0.0058209150136800236
atp21
a(g19
(lp22
F1.2657399364378035
aF3.0923472913103298
aF1.2150532319706571
aF2.8824915237256885
aF1.0156610542785864
aF2.1087813312630694
aF0.50695394470760358
aF0.63741292449132025
aF0.0689980943225941
aF1.287482826718934
aF2.7064062374372986
aF0.032836414772220185
aF0.57510738855724231
aF0.47404050952266741
aF0.063013434977833516
aF0.55872407742989205
aF1.7813546264083178
aF0.025418853664959325
aF0.069107034066585749
aF0.008168164282773626
atp23
a.