(lp1
(S'Pt'
p2
(lp3
F0.21061920000390411
aF5.6849928514440116
aF0.19175430208750674
aF5.3901665588903116
aF0.12440779985226418
aF4.2560430750344826
aF0.017345951649085391
aF1.6822001930225576
aF0.00020933095045937787
aF0.37365682505958492
aF5.8793100118257353
aF7.3665699296228176e-05
aF0.094132987655292238
aF2.1636490586327306
aF8.4720770893106337e-05
aF0.22168738643291871
aF3.1633398020386134
aF1.2993237624448634e-06
aF0.0038701234380955673
aF0.34013485692825052
atp4
a(g2
(lp5
F0.21061920000390411
aF5.6849928514440116
aF0.19175430208750674
aF5.3901665588903107
aF0.12440779985226418
aF4.2560430750344826
aF0.017345951649085391
aF1.6822001930225581
aF0.00020933095045937787
aF0.37365682505958497
aF5.8793100118257362
aF7.3665699296228176e-05
aF0.094132987655292225
aF2.163649058632731
aF8.4720770893106337e-05
aF0.22168738643291866
aF3.1633398020386143
aF1.2993237624448634e-06
aF0.0038701234380955668
aF0.34013485692825052
atp6
a(g2
(lp7
F0.21061920000390411
aF5.6849928514440125
aF0.19175430208750674
aF5.3901665588903116
aF0.12440779985226418
aF4.2560430750344835
aF0.017345951649085391
aF1.6822001930225579
aF0.00020933095045937744
aF0.37365682505958497
aF5.8793100118257344
aF7.3665699296228014e-05
aF0.094132987655292225
aF2.1636490586327319
aF8.4720770893106161e-05
aF0.22168738643291869
aF3.1633398020386139
aF1.2993237624448607e-06
aF0.0038701234380955664
aF0.34013485692825046
atp8
a(g2
(lp9
F0.21061920000390411
aF5.6849928514440116
aF0.19175430208750674
aF5.3901665588903107
aF0.12440779985226418
aF4.2560430750344826
aF0.017345951649085391
aF1.6822001930225576
aF0.00020933095045937744
aF0.37365682505958497
aF5.8793100118257344
aF7.3665699296228014e-05
aF0.094132987655292225
aF2.163649058632731
aF8.4720770893106161e-05
aF0.22168738643291866
aF3.1633398020386143
aF1.2993237624448607e-06
aF0.0038701234380955668
aF0.34013485692825046
atp10
a(g2
(lp11
F0.26057385833339097
aF5.6849928514440116
aF0.22966405101881365
aF5.3901665588903116
aF0.12780810507947324
aF4.2560430750344818
aF0.0084161471895617557
aF1.6822001930225581
aF0.00069677141783172809
aF0.23157430541600507
aF5.8793100118257362
aF0.00024765613874117481
aF0.049840174305484847
aF2.1636490586327319
aF0.00027980492695649445
aF0.13656905473076028
aF3.1633398020386156
aF4.4657091936281233e-06
aF0.00073159449394192254
aF0.34013485692825035
atp12
a(g2
(lp13
F0.82431584790118728
aF5.6849928514440125
aF0.77129831224264433
aF5.3901665588903125
aF0.56968991523821755
aF4.2560430750344835
aF0.14929026171055762
aF1.6822001930225581
aF0.042972315630449752
aF0.9649176279129319
aF5.8793100118257362
aF0.0097258476011463733
aF0.39065795213541282
aF2.1636490586327324
aF0.033556466209027115
aF0.47155438795995869
aF3.1633398020386143
aF0.0014363765227922408
aF0.045209738143517759
aF0.3401348569282503
atp14
a(g2
(lp15
F0.36700459861440349
aF5.6849928514440125
aF0.33419051273280376
aF5.3901665588903116
aF0.21646548578019642
aF4.2560430750344826
aF0.028991313929706674
aF1.6822001930225579
aF0.00061226932021812364
aF0.39237914229068777
aF5.8793100118257362
aF1.784362459321023e-05
aF0.1223541192271215
aF2.1636490586327315
aF0.00056171340444830886
aF0.21126313468167254
aF3.1633398020386156
aF4.0520715521615344e-10
aF0.0063670833134610366
aF0.34013485692825035
atp16
a(g2
(lp17
F0.81391818437673191
aF5.6849928514440125
aF0.78070533822568711
aF5.3901665588903107
aF0.6519559354010992
aF4.2560430750344826
aF0.33004677211841793
aF1.6822001930225581
aF0.11590748447221695
aF0.62592620918468778
aF5.8793100118257335
aF0.00043842096548928446
aF0.95288941086685897
aF2.1636490586327319
aF0.11522593253367505
aF0.06866797352315232
aF3.1633398020386143
aF1.1192868690418053e-05
aF0.26966188359975107
aF0.34013485692825035
atp18
a(S'Cu'
p19
(lp20
F0.79301481604061219
aF2.9157330669115304
aF0.75972017809821635
aF2.7121151409412696
aF0.63340542950821754
aF1.9654199684210791
aF0.32628426333425409
aF0.57810258693146821
aF0.00310628687778903
aF0.038665984280164212
aF2.394869777670197
aF0.0012053192452980597
aF0.15186502781768441
aF0.39472735816689597
aF0.0016454087307005948
aF0.020621525042223296
aF1.5886313803447178
aF0.00010063461564894564
aF0.13299613908229838
aF0.0052930190198941414
atp21
a(g19
(lp22
F0.79301481604061219
aF0.19255622232979935
aF0.75972017809821635
aF0.17076028162870607
aF0.63340542950821754
aF0.09813067248696411
aF0.32628426333425409
aF0.0080257146131172772
aF0.0031062868777890296
aF0.15047011541921607
aF0.010509515684507932
aF0.0012053192452980597
aF0.0025000640223532869
aF0.00074244457774844152
aF0.0016454087307005948
aF0.14397737861731261
aF0.0085852084764697027
aF0.00010063461564894564
aF2.2328239213727338e-06
aF6.2485014907959394e-07
atp23
a.