(lp1
(S'Pt'
p2
(lp3
F0.32583377620341908
aF5.6974640700788122
aF0.2956571656811865
aF5.4212483331049226
aF0.18885683465140002
aF4.3586473939022641
aF0.024776207011579926
aF1.9102527708956836
aF0.033962787618600131
aF0.68651939051519573
aF6.7183181205125049
aF0.0019954443563149262
aF0.15660460373960081
aF2.6539053990845733
aF0.0286436503150455
aF0.42732468030000431
aF3.4895573585721986
aF7.0140046209913722e-07
aF0.0059922315820920644
aF0.41600404004693814
atp4
a(g2
(lp5
F0.88480000673903547
aF5.4776141200349748
aF0.82720399424735214
aF5.1819437764351246
aF0.60864914997662978
aF4.0614326234712994
aF0.1584556270885624
aF1.608413409707945
aF0.22636905418262407
aF1.2292233597774862
aF5.2547965595702157
aF0.026552563943268662
aF0.48132556266923937
aF1.7515580412879581
aF0.1640431197526975
aF0.58708893157611775
aF3.1189464910789173
aF0.00013078521904023502
aF0.053701148539915602
aF0.36258931568436903
atp6
a(g2
(lp7
F0.30344646501019884
aF5.7048269003397243
aF0.27145251198961501
aF5.4232793173833018
aF0.16202530120928918
aF4.3376923947613113
aF0.01509922628918673
aF1.8360530563989401
aF0.023696775850165282
aF0.55496805574552788
aF6.719074350395668
aF0.0024274640586127594
aF0.10635935379676499
aF2.4787069163297355
aF0.018002190384581434
aF0.36820150044174371
aF3.6447947418474578
aF7.4941217327354402e-06
aF0.0030620476479882013
aF0.39725025119417995
atp8
a(g2
(lp9
F0.62386055093028903
aF5.5664932098702149
aF0.5727417628631154
aF5.2610427851945083
aF0.38808938314034497
aF4.1012739211215505
aF0.072552750182004425
aF1.5769640906190558
aF0.086941429403768797
aF0.87341584773612357
aF5.3860194259323722
aF0.011065640322681199
aF0.27576919464873539
aF1.6919086306532791
aF0.063154863435163688
aF0.46754504169029149
aF3.2457075890813432
aF6.9548126955183893e-05
aF0.022015436463137073
aF0.32484850947294108
atp10
a(g2
(lp11
F0.43331373253068578
aF5.9950892184684763
aF0.39173446998284556
aF5.7120630530013434
aF0.2481015416566878
aF4.613058513081393
aF0.036049526272687954
aF1.9916174122719963
aF0.028893030888283485
aF0.54674187916061556
aF6.8036878932148612
aF0.002601124612289648
aF0.17068568560340738
aF2.7306185579967779
aF0.022715254853456063
aF0.2953595690779296
aF3.6464279001650333
aF5.9851160860743625e-06
aF0.011324398889924833
aF0.58431114662957728
atp12
a(g2
(lp13
F1.1805822663399606
aF6.030192588671337
aF1.1108558540427507
aF5.7400009889810706
aF0.84240181473965703
aF4.6203085268805246
aF0.25826771237321416
aF2.0064024698333531
aF0.33747772047533803
aF1.6673102053094138
aF6.6733663007033286
aF0.059472441641190421
aF0.94391662610105664
aF2.8155555541458366
aF0.22488226738601252
aF0.71214336014413671
aF3.4692771803198039
aF0.0010846894671507977
aF0.16543782735248852
aF0.57124500596288941
atp14
a(g2
(lp15
F0.45927125729022922
aF5.9563916996598723
aF0.41311963276409591
aF5.6663516555183104
aF0.25341177397141101
aF4.5443328708508428
aF0.027542339073104362
aF1.9116340110494374
aF0.036377602984095439
aF0.5898317820346819
aF6.6111407311418899
aF0.0023619356351839821
aF0.13600804374089479
aF2.5443300587024567
aF0.0302893663613444
aF0.35981115149937398
aF3.6441527420505224
aF4.0224482824948632e-06
aF0.0055079223159836968
aF0.54071117114650702
atp16
a(g2
(lp17
F1.512721954149443
aF5.6354869130837679
aF1.4523570581720904
aF5.3455278407727214
aF1.2118453197920784
aF4.2272328535087649
aF0.58068281726717519
aF1.6574772189623943
aF0.60583691795668326
aF1.4778335466749926
aF6.4357997412247521
aF0.1403289869334263
aF1.5339153098661118
aF2.1395167702579467
aF0.33041815657634449
aF0.34988678469406703
aF3.580429270548076
aF0.0019267044702099756
aF0.43757502014726685
aF0.27217643964858146
atp18
a(S'Cu'
p19
(lp20
F1.233396059671692
aF2.8756028812750598
aF1.1825126392363705
aF2.6821257284745061
aF0.98318027806642228
aF1.9666615648825685
aF0.48337241858616875
aF0.58500155968049505
aF0.064991767466062361
aF1.1087878892453609
aF2.5583185142756846
aF0.029981314207650735
aF0.51687904255524963
aF0.43476598778786396
aF0.05584408490169656
aF0.46232824801404548
aF1.6767877157911322
aF0.019387708455148003
aF0.056925902493501053
aF0.0055292072501781659
atp21
a(g19
(lp22
F1.2333960596716922
aF2.848227127918201
aF1.1825126392363707
aF2.6529967212685452
aF0.98318027806642228
aF1.9367195542549294
aF0.48337241858616875
aF0.58842464587702015
aF0.064991767466062458
aF1.1036619777191863
aF2.3225193682297549
aF0.029981314207650732
aF0.52339293220525573
aF0.39961035326661942
aF0.055844084901696664
aF0.43242656493173864
aF1.533346021034548
aF0.019387708455147996
aF0.047604359809709555
aF0.0057278692437726809
atp23
a.