(lp1
(S'Pt'
p2
(lp3
F0.54466670367706482
aF4.9718752731480347
aF0.50035201080890046
aF4.7331757541808841
aF0.33963520779788847
aF3.8102419323597929
aF0.06211066987392308
aF1.6401460826669791
aF0.02906715304168098
aF1.3502540556311882
aF5.3658132551462945
aF0.0085282639462694078
aF0.29929799335897733
aF2.000460942957198
aF0.013444647928861825
aF0.81635491204812327
aF2.8019505523874955
aF0.00010052848182553503
aF0.010635727732219911
aF0.28620298699939473
atp4
a(g2
(lp5
F1.5683710323192135
aF4.994973432576546
aF1.4912379042933874
aF4.7109774066600014
aF1.1888317307771261
aF3.6440388375671739
aF0.48024295441475173
aF1.4021422004898183
aF0.10917403790310297
aF3.1037879740586569
aF3.8814211607516245
aF0.090998098509098693
aF1.196364634716242
aF1.342696318857475
aF0.027679237257689181
aF1.6516314701911636
aF2.3454594422576185
aF0.018560048882952658
aF0.18383399715218318
aF0.28468986228591198
atp6
a(g2
(lp7
F0.5198312838136665
aF4.9835071122422976
aF0.47227483870319054
aF4.7399869383326871
aF0.30438641086627
aF3.8054108448139217
aF0.043909845889242648
aF1.6477100602392287
aF0.017814300127731351
aF1.2075096811186949
aF5.411455674785004
aF0.0057320153179609328
aF0.22588906898871608
aF1.9998399733232604
aF0.0080560457878832009
aF0.78480229270907464
aF2.7980497078155762
aF0.00011415325280067516
aF0.0057787661886190295
aF0.27248444883135658
atp8
a(g2
(lp9
F1.7105212513143089
aF3.745773741372235
aF1.6274320728215799
aF3.522900536499824
aF1.3050561549348774
aF2.6926476791732936
aF0.55425061378004981
aF1.0027941936727636
aF0.076422445779532597
aF2.6354765662194626
aF3.0243646227118584
aF0.090450669269556333
aF1.0503979011134787
aF0.81079925917018247
aF0.019729167807027818
aF1.389727720193509
aF1.7792201322156884
aF0.03919618409689668
aF0.14317487255792621
aF0.05071432696078311
atp10
a(g2
(lp11
F1.2412156123911307
aF5.9747629818696613
aF1.1693893003188074
aF5.7085408020521236
aF0.90276373434832602
aF4.6616568036410921
aF0.36075801922596379
aF2.0486247051894146
aF0.059817700622930681
aF2.5986389190516888
aF6.4450078367484762
aF0.036488241573338666
aF1.3956217376422337
aF2.9606797231597706
aF0.01991428777839431
aF1.1686042127324399
aF3.0954663161076548
aF0.0038536860785785203
aF0.2204384038091016
aF0.62440361010059953
atp12
a(g2
(lp13
F1.4048705526610701
aF5.4514842189693198
aF1.3406771768499948
aF5.1702150638920337
aF1.0831065902597483
aF4.0991967136095786
aF0.42751601561028191
aF1.7050640569031517
aF0.12670274459956224
aF2.7365299345341922
aF5.2382488560798777
aF0.1163516084788556
aF1.2904490166370981
aF2.0305647385405465
aF0.018669348336796475
aF1.2417025591349673
aF2.8546100903626828
aF0.013149846059011297
aF0.18919044960242237
aF0.39662802793068208
atp14
a(g2
(lp15
F1.2754190671531989
aF5.7149269286294695
aF1.2087189189008098
aF5.417134849295957
aF0.9502810535888413
aF4.2679780869948312
aF0.35739999189440974
aF1.6356473679234598
aF0.04878719776293227
aF2.8522010645377245
aF5.7604581851981065
aF0.051903374591385901
aF1.0084389350277003
aF1.9830986436788776
aF0.0088175662793444059
aF1.4892786989320441
aF3.214253526169295
aF0.0089385496218200994
aF0.14558244072342891
aF0.3227645605636687
atp16
a(g2
(lp17
F1.5778790143646417
aF5.6409555489813874
aF1.5024777263764271
aF5.3431098197957265
aF1.2037321327455377
aF4.1977968246960611
aF0.46306713427602064
aF1.6155026415106146
aF0.14201248947011968
aF2.8518642024612029
aF5.9235925073108238
aF0.13669991663068476
aF1.2278496176762523
aF1.9840576458017902
aF0.02308192557315851
aF1.4558935434151958
aF3.1820674642167619
aF0.019257692393080363
aF0.23476364631101079
aF0.23110871999089722
atp18
a(S'Cu'
p19
(lp20
F0.70219959563890155
aF4.6986373392490615
aF0.63636576107502629
aF4.4336983727868313
aF0.40543932535374605
aF3.4146588890303291
aF0.056356795112238615
aF1.1718133258141408
aF0.011220755895541838
aF0.93314280210955169
aF5.4787306431983138
aF0.0038286770615209918
aF0.18489468045523944
aF1.4101189908670224
aF0.0049873100089528428
aF0.59780306659568205
aF3.1199589840569648
aF0.00010687724051989614
aF0.0077187509444097057
aF0.066796982174918543
atp21
a(g19
(lp22
F0.70219959563890155
aF5.1441371784452343
aF0.6363657610750264
aF4.8788615762862673
aF0.40543932535374605
aF3.8631341262882866
aF0.056356795112238608
aF1.5774419191505031
aF0.011220755895541827
aF0.96868375107162186
aF4.8320274708216688
aF0.0038286770615209905
aF0.20717928161307284
aF1.7944085464997481
aF0.004987310008952835
aF0.5958361382890407
aF2.7230629897856287
aF0.00010687724051989611
aF0.0062107215694665249
aF0.33761903262942894
atp23
a.