(lp1
(S'O'
(lp2
F0.94520750034831469
aF0
aF0.94138574709790424
aF0
aF0.92386192533116696
aF0
aF0.84678091579621029
aF0
aF0
aF0
aF0
aF0
aF0
aF0
aF0
aF0
aF0
aF0
aF0
aF0
atp3
a(S'H'
(lp4
F0
aF0.94515720427284078
aF0
aF0.94134375299949236
aF0
aF0.92384374762421839
aF0
aF0.84678054286459792
aF0
aF0
aF0
aF0
aF0
aF0
aF0
aF0
aF0
aF0
aF0
aF0
atp5
a(S'H'
(lp6
F0
aF5.0296075473923905e-05
aF0
aF4.1994098411878423e-05
aF0
aF1.8177706948519963e-05
aF0
aF3.7293161232462825e-07
aF0
aF0
aF0
aF0
aF0
aF0
aF0
aF0
aF0
aF0
aF0
aF0
atp7
a.