(lp1
(S'O'
(lp2
F0.96190335749301847
aF0
aF0.95571915704484367
aF0
aF0.93092167213937194
aF0
aF0.84704455472702611
aF0
aF4.2811511857898122e-05
aF0
aF0
aF7.0135669065114067e-05
aF0
aF0
aF2.3313961364775142e-06
aF0
aF0
aF1.6793050351657566e-05
aF0
aF0
atp3
a(S'H'
(lp4
F0.0032922996225032268
aF0.94515720427284078
aF0.0027811757626348028
aF0.94134375299949236
aF0.0012709690331823742
aF0.92384374762421839
aF3.3539835764979479e-05
aF0.84678054286459792
aF0
aF7.8211178812146487e-05
aF0
aF0
aF3.4736002110865709e-05
aF0
aF0
aF2.5968636039144065e-05
aF0
aF0
aF1.0103995469772176e-06
aF0
atp5
a(S'H'
(lp6
F0.0032922996225032268
aF0.01674615322017773
aF0.0027811757626348028
aF0.014375404045351318
aF0.0012709690331823742
aF0.0070779245151535129
aF3.3539835764979479e-05
aF0.00026401186242823113
aF0
aF0.00011230650404817294
aF0
aF0
aF6.4067687483924854e-07
aF0
aF0
aF0.00011040619597639548
aF0
aF0
aF1.1693109231487209e-13
aF0
atp7
a.