(lp1
(S'Pt'
p2
(lp3
F0.5945330256906094
aF5.1757310757273114
aF0.5577768237383407
aF4.9235627533411828
aF0.41745259276399244
aF3.9506039679143581
aF0.12033988646903269
aF1.6810296123485113
aF0.076536929996689249
aF1.7203047075943385
aF5.5967106234338004
aF0.006998451808518138
aF0.5060845274506599
aF2.1197668427392022
aF0.05888976237192723
aF0.91784336498526875
aF2.9140885533613474
aF4.7023977106663308e-06
aF0.023688180326682535
aF0.31130753407545164
atp4
a(g2
(lp5
F1.3578375979599531
aF5.2216756058176843
aF1.2850254922498499
aF4.929558808440853
aF1.0036037088189955
aF3.8256145642385193
aF0.37213485486615749
aF1.4538165094540509
aF0.27742602427615931
aF2.4158121787875859
aF4.3712693487980943
aF0.065595754347056806
aF0.98538517539032167
aF1.4617237963002496
aF0.15538034945294932
aF1.2488250839123809
aF2.5829387152237597
aF0.0020707987756364132
aF0.15772340652847947
aF0.28225553648025786
atp6
a(g2
(lp7
F0.5906917267812023
aF5.176389906512159
aF0.54038255320644446
aF4.9198261893636568
aF0.35827647456009232
aF3.9388250159902309
aF0.055308649010798239
aF1.6969139114641867
aF0.044660468457437229
aF1.4843852717406165
aF5.5501106054006497
aF0.0081405471304253699
aF0.27764376687766257
aF2.1589126666638405
aF0.029557480354217507
aF0.98363394014303673
aF2.8635383845368447
aF0.00018644027831436365
aF0.0083589714402205993
aF0.32216855771718661
atp8
a(g2
(lp9
F1.4463629351580127
aF4.5314536812513637
aF1.3524870773518844
aF4.273249528045274
aF1.0050485837258547
aF3.2998803259644616
aF0.33445046255405853
aF1.2295631120449781
aF0.14220590896323604
aF1.9305229173674605
aF3.9417139047069818
aF0.028768338611939233
aF0.74372702023826143
aF1.1835913169118701
aF0.1034436110656628
aF1.0656044505320019
aF2.3150929827777733
aF0.0024532194265699096
aF0.15591964331051378
aF0.13942727959733545
atp10
a(g2
(lp11
F0.95862813144168668
aF5.9809089659162105
aF0.89607488065090868
aF5.6992836251823045
aF0.66948837481390044
aF4.5948174942003233
aF0.23882160335365374
aF1.9114302046444234
aF0.062107187860255555
aF1.9376170131284813
aF6.5088636793388899
aF0.0070538505700039516
aF0.91222929525634067
aF2.598547178752121
aF0.051642359562744988
aF0.9506360247723995
aF3.3924328727757764
aF0.00044224240052850259
aF0.13553604773785086
aF0.50882397906266963
atp12
a(g2
(lp13
F1.5493091673950614
aF5.5883531022438415
aF1.472302413843894
aF5.2918871448358002
aF1.1691081371051431
aF4.1576276114814101
aF0.44822097596681187
aF1.6254006988044327
aF0.37953652684507544
aF3.0422206388002935
aF5.3683249729799929
aF0.11737162114344676
aF1.3262547254085817
aF1.8938430433389741
aF0.2078837897782016
aF1.4865164423868373
aF2.9989843218853105
aF0.0091527090754137345
aF0.16978894614962814
aF0.35452348245712961
atp14
a(g2
(lp15
F0.85277939107114586
aF5.8145306157151895
aF0.7892055952558692
aF5.5278420200651475
aF0.55436675144765846
aF4.4232642784294063
aF0.11989729702657999
aF1.8596191218072771
aF0.042976470443419602
aF1.8635495450533364
aF6.0385449100893025
aF0.0081216044845197032
aF0.50522546132751855
aF2.4993549393347516
aF0.030987906957844504
aF1.1017610981184462
aF3.1462225407835467
aF0.00061873913623443789
aF0.03691574933129467
aF0.5005997750429918
atp16
a(g2
(lp17
F1.6719270019571666
aF5.6611380032997403
aF1.6142842766681442
aF5.3661615258184785
aF1.379994277168346
aF4.2281216763836103
aF0.72626502498744139
aF1.6300378757553395
aF0.45054817522017182
aF2.8901156338764684
aF5.9957632063701514
aF0.22793840255200956
aF1.9214202878564766
aF2.0665608278007137
aF0.1429805085662397
aF1.1870192226485139
aF3.1728559147912963
aF0.014764922237091051
aF0.56661292249247286
aF0.23995752387151417
atp18
a(S'Cu'
p19
(lp20
F0.91763943685153193
aF5.0905062819878815
aF0.86581389245662399
aF4.8017822115286943
aF0.67316904277804746
aF3.7033075517697163
aF0.26908509098298827
aF1.3624967868171929
aF0.025309145651643619
aF1.3702100725061379
aF6.0558463027633866
aF0.0095380311613347726
aF0.58781894542970703
aF1.7052938303864402
aF0.013483510512866096
aF0.64363016081488345
aF3.4063003833764358
aF0.00090385056185355369
aF0.082249292643456984
aF0.093404899045044287
atp21
a(g19
(lp22
F0.91763943685153204
aF3.9315626954669569
aF0.8658138924566241
aF3.7057569014366409
aF0.67316904277804757
aF2.8540313486342659
aF0.26908509098298827
aF1.0529419674173408
aF0.025309145651643657
aF1.4380108615055103
aF3.4656878090151264
aF0.0095380311613347778
aF0.49593264597937226
aF1.0044211409122492
aF0.013483510512866129
aF0.77877550450473609
aF2.0230197674300836
aF0.00090385056185355369
aF0.077738218665449027
aF0.073866078341330813
atp23
a.