(lp1
(S'O'
(lp2
F1.2581268338614644
aF0
aF1.2332950715872804
aF0
aF1.1352767267259845
aF0
aF0.8940642033076438
aF0
aF0.056010031636225102
aF0
aF0
aF0.091758054613998372
aF0
aF0
aF0.0030501508985272645
aF0
aF0
aF0.021970242129898943
aF0
aF0
atp3
a(S'H'
(lp4
F0.24037119606768803
aF0.94515720427284078
aF0.22151957076575857
aF0.94134375299949236
aF0.15162591853376436
aF0.92384374762421839
aF0.026096874411135638
aF0.84678054286459792
aF0
aF0.10681280624990784
aF0
aF0
aF0.040955280000315654
aF0
aF0
aF0.040341436119946859
aF0
aF0
aF0.00087196218573615768
aF0
atp5
a(S'H'
(lp6
F0.24037119606768803
aF0.31296962958862368
aF0.22151957076575857
aF0.291951318587788
aF0.15162591853376436
aF0.21143297910176601
aF0.026096874411135638
aF0.047283660443045931
aF0
aF0.14602591435008996
aF0
aF0
aF0.0017421719001334982
aF0
aF0
aF0.14092167310544407
aF0
aF0
aF2.8551049181338609e-09
aF0
atp7
a.