(lp1
(S'O'
(lp2
F1.0437277124879007
aF0
aF1.0292412512997109
aF0
aF0.97548091434214368
aF0
aF0.85115264091723875
aF0
aF0.0043782328998421272
aF0
aF0
aF0.0071726103664024677
aF0
aF0
aF0.00023842641439927471
aF0
aF0
aF0.0017173858700056269
aF0
aF0
atp3
a(S'H'
(lp4
F0.05831038425266364
aF0.94515720427284078
aF0.051250325866203497
aF0.94134375299949236
aF0.028153925371625605
aF0.92384374762421839
aF0.0017457979974338025
aF0.84678054286459792
aF0
aF0.0081142302016434641
aF0
aF0
aF0.0034366130646011316
aF0
aF0
aF0.002812860699743468
aF0
aF0
aF9.0506855063932247e-05
aF0
atp5
a(S'H'
(lp6
F0.05831038425266364
aF0.098570508215060026
aF0.051250325866203497
aF0.087897498300218577
aF0.028153925371625605
aF0.051637166717925315
aF0.0017457979974338025
aF0.004372098052640867
aF0
aF0.01146503944313971
aF0
aF0
aF8.5803823104883939e-05
aF0
aF0
aF0.011211433360362989
aF0
aF0
aF3.5171062036200033e-11
aF0
atp7
a.