(lp1
(S'O'
(lp2
F0.95163882153702217
aF0
aF0.94684788372400541
aF0
aF0.92642102285157313
aF0
aF0.84685668544488579
aF0
aF4.0775923846116283e-07
aF0
aF0
aF6.680088080486473e-07
aF0
aF0
aF2.2205436619869973e-08
aF0
aF0
aF1.5994579788633604e-07
aF0
aF0
atp3
a(S'H'
(lp4
F8.0576118775501664e-05
aF0.94515720427284078
aF6.7306022613346453e-05
aF0.94134375299949236
aF2.9194600729791268e-05
aF0.92384374762421839
aF6.047275480713533e-07
aF0.84678054286459792
aF0
aF7.4252919786179918e-07
aF0
aF0
aF3.3323884864801095e-07
aF0
aF0
aF2.4417332769625208e-07
aF0
aF0
aF9.9052759787774608e-09
aF0
atp5
a(S'H'
(lp6
F8.0576118775501664e-05
aF0.0064816172641813663
aF6.7306022613346453e-05
aF0.0055041307245130419
aF2.9194600729791268e-05
aF0.0025772752273546984
aF6.047275480713533e-07
aF7.6142580287887759e-05
aF0
aF1.0700491011519592e-06
aF0
aF0
aF5.7189453578508628e-09
aF0
aF0
aF1.0530740360965348e-06
aF0
aF0
aF8.5922690437250486e-16
aF0
atp7
a.