(lp1
(S'O'
(lp2
F1.0119918027795365
aF0
aF1.0002894335343215
aF0
aF0.95674832353055417
aF0
aF0.84897853441274695
aF0
aF0.0017698800675848717
aF0
aF0
aF0.0028994940220073953
aF0
aF0
aF9.6382757172699254e-05
aF0
aF0
aF0.0006942451644782224
aF0
aF0
atp3
a(S'H'
(lp4
F0.03457179649417997
aF0.94515720427284078
aF0.030038734404537488
aF0.94134375299949236
aF0.015644351948230432
aF0.92384374762421839
aF0.0007573276538264161
aF0.84678054286459792
aF0
aF0.0032645860846256987
aF0
aF0
aF0.0014047880049665687
aF0
aF0
aF0.0011156718958220955
aF0
aF0
aF3.8253145633938287e-05
aF0
atp5
a(S'H'
(lp6
F0.03457179649417997
aF0.066834598506695667
aF0.030038734404537488
aF0.058945680534829077
aF0.015644351948230432
aF0.03290457590633579
aF0.0007573276538264161
aF0.0021979915481490785
aF0
aF0.0046375440411629268
aF0
aF0
aF3.1830048429340946e-05
aF0
aF0
aF0.0045433498582814254
aF0
aF0
aF1.0082615143838556e-11
aF0
atp7
a.