(lp1
(S'Pt'
p2
(lp3
F0.65662425402180691
aF5.0190911765803747
aF0.61030600381346189
aF4.7732164165593103
aF0.43801448480349298
aF3.8235088359596325
aF0.10530605474833195
aF1.6091329031673609
aF0.058444331242710229
aF1.7815395715997131
aF5.35905678158786
aF0.014531684561513752
aF0.44559941500385453
aF1.9403612906039558
aF0.030090766325398213
aF1.0284839248226021
aF2.8762453677530497
aF0.00012093557635502059
aF0.019495791777420831
aF0.28851215991501833
atp4
a(g2
(lp5
F1.569988621941891
aF5.1068606043368332
aF1.4925621413186183
aF4.8196664792625343
aF1.1899973137965247
aF3.738950065350493
aF0.49140957119699036
aF1.4512994247551159
aF0.15142071042109581
aF3.1275969634460221
aF4.129873328052577
aF0.089654364930027042
aF1.2583329112754351
aF1.4175462342839276
aF0.054218875658002312
aF1.7077525723570854
aF2.4580911097044633
aF0.014678979345791255
aF0.24492186545102346
aF0.28186984533866344
atp6
a(g2
(lp7
F0.64121576431928595
aF5.0087694345782143
aF0.58809334815763081
aF4.7639854131804986
aF0.39617325676335297
aF3.827708162906736
aF0.070598963103432624
aF1.6767068186645517
aF0.037844199067485859
aF1.6510948574441873
aF5.3345643063631165
aF0.010847985376128253
aF0.31889626220965661
aF2.0782861717986312
aF0.019020168460723911
aF1.0664884031235793
aF2.6934329574825964
aF0.00022478691905240857
aF0.010009247982214635
aF0.29136406135702508
atp8
a(g2
(lp9
F1.6502845918096434
aF4.0649316860639999
aF1.5636419113704263
aF3.8315759852138593
aF1.2311442584399146
aF2.9563995444259281
aF0.49101167325178235
aF1.1344357291412739
aF0.081546372181597632
aF2.679616752534089
aF3.4425101447877595
aF0.059366390750233637
aF1.0273150566907796
aF0.98557878818587852
aF0.030666031699730263
aF1.4956243681509622
aF2.007441933306227
aF0.017181492352377353
aF0.18139319401646106
aF0.081623076860404445
atp10
a(g2
(lp11
F1.274791517620137
aF5.9178444199457925
aF1.2043837702378841
aF5.6493417143553479
aF0.94413990096784617
aF4.5961962949758917
aF0.41683456360807697
aF1.9992559656486479
aF0.067948392267450128
aF2.7477256355273276
aF6.3321358881754941
aF0.030064798464503072
aF1.534956893569952
aF2.8151466142533343
aF0.03566420077301146
aF1.2449952840626672
aF3.1433525087505019
aF0.0041430933743172747
aF0.25861861371900874
aF0.60872838517623384
atp12
a(g2
(lp13
F1.524416953232052
aF5.5460142687604179
aF1.4582153334554258
aF5.2599427079663661
aF1.1933161576410791
aF4.1694410824958723
aF0.51539042037668648
aF1.734641634935004
aF0.21539161241764776
aF3.1797803119525323
aF5.342380911003862
aF0.15485409018238289
aF1.569805637134158
aF2.0985654399218494
aF0.047932310569057238
aF1.4594409316147841
aF2.8608034680627115
aF0.013850684398435635
aF0.23840039445648542
aF0.39338742015202477
atp14
a(g2
(lp15
F1.2100080791127874
aF5.7685578233266588
aF1.139562543207514
aF5.4703227757096364
aF0.86828432059338001
aF4.3207649077891785
aF0.27230718961054029
aF1.6913656613795152
aF0.042605422078055781
aF2.8619694139120506
aF5.8692002818081885
aF0.033084376868032971
aF0.84302611640473724
aF2.1048152545502661
aF0.014034614188045982
aF1.6023294722017321
aF3.2653889788319188
aF0.0053941123823068871
aF0.079149568674318077
aF0.37328175785471612
atp16
a(g2
(lp17
F1.7053408149605953
aF5.6182519171466367
aF1.6338734258576557
aF5.3183966314487758
aF1.3467970102677698
aF4.1655308997678775
aF0.58961041358519228
aF1.5809230710079092
aF0.2325057926204962
aF3.3012672569959793
aF5.8003789347406567
aF0.20386416577355421
aF1.5065298108712071
aF1.9062433554302431
aF0.047398816385544051
aF1.7187438599296845
aF3.1377294225487233
aF0.029606453905226308
aF0.35587542276599426
aF0.21695153726536742
atp18
a(S'Cu'
p19
(lp20
F0.77893810548016418
aF5.160952285141712
aF0.71536960136735495
aF4.8831258992822777
aF0.48712134357758557
aF3.8110796326575724
aF0.098728796135178043
aF1.4105507999298534
aF0.017386176363500396
aF1.1705165083876059
aF6.4349936497782441
aF0.0061074252399249398
aF0.29612968757160468
aF1.8203871925804154
aF0.0082465476736263803
aF0.70248053783069586
aF3.5600441157210621
aF0.00029299935392439002
aF0.025450564889322569
aF0.10255857672989849
atp21
a(g19
(lp22
F0.77893810548016429
aF5.071718311876487
aF0.71536960136735495
aF4.8075125781363379
aF0.48712134357758546
aF3.7967870706157876
aF0.098728796135178029
aF1.5419180495511802
aF0.017386176363500382
aF1.2002982643322804
aF4.8899205911888544
aF0.0061074252399249363
aF0.30100491811433921
aF1.7722249997383221
aF0.0082465476736263716
aF0.70724701987728189
aF2.8388576587635419
aF0.00029299935392439013
aF0.017764675399653429
aF0.3032629980042979
atp23
a.