(lp1
(S'Pt'
p2
(lp3
F0.34236421121119393
aF5.7253397747669901
aF0.31463115428758104
aF5.4298584132011429
aF0.21420453812465953
aF4.2913394530793525
aF0.039899625528114976
aF1.7039403976548959
aF0.020956105442864425
aF0.70855216047748182
aF6.3595649987664586
aF0.00082910937597313486
aF0.21440857681283076
aF2.1924097006680685
aF0.018791605071395701
aF0.37951181683174395
aF3.5905339226091773
aF7.851613873583766e-07
aF0.010882892448746483
aF0.35210747477978793
atp4
a(g2
(lp5
F0.64754633301595654
aF5.8558396540891779
aF0.59745419403122035
aF5.5550040351374763
aF0.41449630215954475
aF4.4015627778396684
aF0.087216785639176841
aF1.796777041185343
aF0.11303046561828205
aF0.9725560268371265
aF6.1272605921780094
aF0.0097851724625768605
aF0.32750774952358741
aF2.2131147790756103
aF0.0902091263674972
aF0.5001468380777091
aF3.533679105620493
aF4.2195423570909905e-05
aF0.032077873740509182
aF0.47965907914840944
atp6
a(g2
(lp7
F0.36867188444353033
aF5.6816088406951923
aF0.33209119054421676
aF5.4015356818143481
aF0.20484035585302102
aF4.3229863722729442
aF0.022602967467014814
aF1.8335435221686516
aF0.036088249792759403
aF0.6733582036456025
aF6.273529913415981
aF0.0027540769226154296
aF0.14472174898536949
aF2.4839157373164187
aF0.029584495985532741
aF0.42075815885305673
aF3.3266895870307027
aF1.6985480535844363e-05
aF0.0042454359409884448
aF0.41221371288322439
atp8
a(g2
(lp9
F0.45750671620647332
aF5.7718406437947847
aF0.41509052040250394
aF5.4781523135011483
aF0.26460330259421905
aF4.3531459878344752
aF0.033548435871680181
aF1.8028132278131463
aF0.063756115095569638
aF0.75199488382340207
aF6.1586041863686507
aF0.0052382336150327289
aF0.17696773958392559
aF2.281969322475605
aF0.051190610446492701
aF0.45558394671759206
aF3.4468298707949394
aF2.2350640857812677e-05
aF0.0076186126144722859
aF0.44269746771588508
atp10
a(g2
(lp11
F0.39081194175593775
aF5.8549396558432285
aF0.3488904120746657
aF5.5594142599469381
aF0.20707686725278074
aF4.4239255060624378
aF0.020366722776015596
aF1.8349830731230306
aF0.015707152590964883
aF0.42211867058255381
aF6.2462752087814177
aF0.0019855817623660073
aF0.10172090563770048
aF2.3603082458670883
aF0.011362988082545159
aF0.24492866497762683
aF3.4821784831920541
aF1.2830996180847172e-05
aF0.0034161933136344631
aF0.47971930201846152
atp12
a(g2
(lp13
F1.4567852655676281
aF5.6861600827770378
aF1.3797602309315762
aF5.3981310309360477
aF1.0771552908343778
aF4.2886254910352894
aF0.36748567468519533
aF1.7494774068284664
aF0.45295316934631108
aF1.6163635680626558
aF6.3059478647761251
aF0.10108336205572721
aF1.0213490305050483
aF2.2901731574399316
aF0.30459911311861132
aF0.62709250398622807
aF3.4721915760485698
aF0.0060047930977336766
aF0.21688591320298847
aF0.3647006591826335
atp14
a(g2
(lp15
F0.45157872644495545
aF5.880621886949803
aF0.40808952531223708
aF5.5844917392369879
aF0.25677929111757747
aF4.4450894022765306
aF0.033969205007325851
aF1.8366888849360501
aF0.036913929719121809
aF0.52864984113805258
aF6.2981034228168911
aF0.0015528398345687391
aF0.15705255207292479
aF2.3527334498334449
aF0.032657014715145496
aF0.28712892142704943
aF3.5242488740894462
aF6.6478068813339076e-07
aF0.0084591268527856762
aF0.47964066366688657
atp16
a(g2
(lp17
F1.2136869802410115
aF5.947770114756076
aF1.1582910093258452
aF5.653471010288655
aF0.94126246606187647
aF4.5178750117745077
aF0.40659421384553696
aF1.8981634562982337
aF0.44440255847589061
aF1.3628568567825785
aF6.5221615808541751
aF0.05529078360762478
aF1.3636262638563565
aF2.5815882306604685
aF0.31552352139155593
aF0.34072391727519169
aF3.5218744923652592
aF0.00028526941211277928
aF0.32285364784290443
aF0.49943232192901271
atp18
a(S'Cu'
p19
(lp20
F1.2121598188932523
aF3.3960994380989309
aF1.1633747368803018
aF3.1739000293508277
aF0.97426584617975698
aF2.3472971834002565
aF0.51346879328769568
aF0.72306649066119477
aF0.059045489706891642
aF0.76455747530370366
aF3.2798782157187008
aF0.026827111443161907
aF0.61706739068473193
aF0.6161659833074663
aF0.048673922667185385
aF0.24691272704295658
aF2.1104362393657179
aF0.0153718417320216
aF0.15817354716969001
aF0.013006259076616457
atp21
a(g19
(lp22
F1.2121598188932521
aF1.9328526207877565
aF1.1633747368803018
aF1.7803982075590183
aF0.97426584617975698
aF1.2331212305978003
aF0.51346879328769568
aF0.28861714015886586
aF0.05904548970689158
aF1.0190762665819544
aF1.2216148777500557
aF0.026827111443161911
aF0.32395267886610801
aF0.15424331238737635
aF0.048673922667185329
aF0.54502604527665321
aF0.87897346977223789
aF0.015371841732021607
aF0.021295916666857269
aF0.0010098395676440351
atp23
a.