(lp1
(S'O'
(lp2
F0.95301883193256576
aF0
aF0.94803199959762852
aF0
aF0.92700218188580241
aF0
aF0.84687760604475826
aF0
aF1.7806525896137637e-06
aF0
aF0
aF2.917142033190061e-06
aF0
aF0
aF9.6969398829308916e-08
aF0
aF0
aF6.9847074533240922e-07
aF0
aF0
atp3
a(S'H'
(lp4
F0.0002903707196159632
aF0.94515720427284078
aF0.00024301056905243879
aF0.94134375299949236
aF0.00010634130028753415
aF0.92384374762421839
aF2.2947113691232309e-06
aF0.84678054286459792
aF0
aF3.244264919934348e-06
aF0
aF0
aF1.4535297028694773e-06
aF0
aF0
aF1.0685212484609486e-06
aF0
aF0
aF4.3054005763902475e-08
aF0
atp5
a(S'H'
(lp6
F0.0002903707196159632
aF0.0078616276597250276
aF0.00024301056905243879
aF0.0066882465981362047
aF0.00010634130028753415
aF0.0031584342615840321
aF2.2947113691232309e-06
aF9.7063180160287407e-05
aF0
aF4.6725526217732766e-06
aF0
aF0
aF2.5242001030549387e-08
aF0
aF0
aF4.5976374833909586e-06
aF0
aF0
aF3.9157327295657634e-15
aF0
atp7
a.