(lp1
(S'Pt'
p2
(lp3
F0.47758648850659097
aF5.3081453216430381
aF0.44179253909517324
aF5.047766486855549
aF0.30899615896995131
aF4.0491901307618132
aF0.063052445575102797
aF1.7553400588068777
aF0.055280837979396834
aF1.2010622485836051
aF5.7859792636759799
aF0.0054159297319645678
aF0.31945389639501631
aF2.2549579307713885
aF0.041783522692933006
aF0.68664915740815835
aF2.9915677690990319
aF4.4014644532050851e-06
aF0.014866927941918198
aF0.34202157617627382
atp4
a(g2
(lp5
F1.3289624526825268
aF5.2992491715274461
aF1.267141081995891
aF5.0146402620263286
aF1.0313639801798147
aF3.9335552591119765
aF0.49233929608810872
aF1.5576974179701426
aF0.32598686942371868
aF2.2855351710748821
aF4.7774243973590558
aF0.070175258243297872
aF1.3000288570376142
aF1.6639890817539333
aF0.18483734503492513
aF0.92946407475421688
aF2.8030053980036551
aF0.00088985723474764144
aF0.23883173144811426
aF0.36396023144542011
atp6
a(g2
(lp7
F0.45045433403546165
aF5.3378704300837283
aF0.40825783029752588
aF5.0715905083617585
aF0.25943162019229027
aF4.0496921701195765
aF0.033563103713935005
aF1.7127595370078879
aF0.029309782155044827
aF0.98595761291861173
aF5.8465848336765944
aF0.0050356282807537799
aF0.1955011477693111
aF2.1699102535151091
aF0.019199335191601424
aF0.63613364581308662
aF3.1379318705324835
aF5.5070598675133583e-05
aF0.0057989591724762514
aF0.3397500175930917
atp8
a(g2
(lp9
F1.2893657935256544
aF5.1654342279396337
aF1.2077535350788771
aF4.8848944546404152
aF0.90565968955341891
aF3.8251176679109107
aF0.31354366998358107
aF1.5385974146277084
aF0.18628963947795782
aF2.084200165701287
aF4.6468803112435246
aF0.039875512872581814
aF0.7768460260411626
aF1.6449761771371507
aF0.12485012604189206
aF1.1355051046851725
aF2.7386115238686326
aF0.0020924049064850636
aF0.14308375324266939
aF0.33951924432088382
atp10
a(g2
(lp11
F0.75892584689221954
aF5.9752263988154626
aF0.70317258472936428
aF5.684968112303399
aF0.50133225315574548
aF4.5495903291879731
aF0.13281766464976533
aF1.8388196653823083
aF0.034122889347499408
aF1.3001887687027001
aF6.6092177216655053
aF0.0032645105986622617
aF0.52768898870329828
aF2.3668491449989002
aF0.02794539652546944
aF0.68437998103370523
aF3.6591785611591003
aF0.00014616080178691946
aF0.062838489216552745
aF0.44164138008274995
atp12
a(g2
(lp13
F1.5255805239031655
aF5.658080576093611
aF1.4534844370861355
aF5.3594435246065988
aF1.1671156586907425
aF4.2101141300311218
aF0.45869507587802572
aF1.6151426995716502
aF0.39555522498726708
aF2.8780614252491055
aF5.5742913086954813
aF0.13556466095041594
aF1.3321622578483778
aF1.8780711326331199
aF0.19208809103602784
aF1.3620534342236938
aF3.2133196341459591
aF0.007568326504016498
aF0.18392564016959562
aF0.33018463956580529
atp14
a(g2
(lp15
F0.66807859059930685
aF5.8386169712655329
aF0.61020319515393262
aF5.5622372347280304
aF0.40198899843494623
aF4.498733980724003
aF0.061426765239001271
aF2.0040626994297046
aF0.029273200499519734
aF1.2732681922574771
aF6.1821412480889366
aF0.0044261262123017975
aF0.27282641860688156
aF2.7631756998695796
aF0.020922953594489709
aF0.82307218069057908
aF3.1727618738081182
aF0.00014036601760553536
aF0.015430601380101737
aF0.64396157708165369
atp16
a(g2
(lp17
F1.5907375264498456
aF5.6876672656392113
aF1.5284984393081853
aF5.3998869061476
aF1.2762734960769915
aF4.2864474542004309
aF0.5917308111659576
aF1.6989068670132483
aF0.43830034448367394
aF2.6110935567111251
aF6.2295303989052044
aF0.18655579616931112
aF1.5874375070557125
aF2.2010302875735501
aF0.16192227572697504
aF1.0901074081800675
aF3.3015951248654316
aF0.0091323965746433269
aF0.4164986524108879
aF0.28108502814017899
atp18
a(S'Cu'
p19
(lp20
F0.97501687124023473
aF4.1501440335236834
aF0.92139566136830331
aF3.8936416979400152
aF0.7189097596202374
aF2.9304638115559873
aF0.27886292529975126
aF0.9637688701512056
aF0.035651842739955142
aF1.45378730840996
aF4.3381622137187854
aF0.013767810106552827
aF0.48712946777151722
aF1.0133603624544525
aF0.020668276862012981
aF0.75488418388631739
aF2.5813149159484894
aF0.0020904799231093092
aF0.03711346804365543
aF0.03359864157842888
atp21
a(g19
(lp22
F0.97501687124023473
aF3.9395475230710884
aF0.92139566136830331
aF3.7266619448050688
aF0.7189097596202374
aF2.9216980436979139
aF0.27886292529975126
aF1.1833999621422719
aF0.035651842739955142
aF1.3459507406054629
aF4.0018922240162613
aF0.013767810106552827
aF0.60199690603979528
aF1.1122413201385823
aF0.020668276862012988
aF0.61824989898295268
aF2.2694067602752841
aF0.0020904799231093092
aF0.094033115712836429
aF0.05447932483232755
atp23
a.