(lp1
(S'O'
(lp2
F1.034084622299331
aF0
aF1.0203974453009441
aF0
aF0.96962357989364756
aF0
aF0.85040686771905727
aF0
aF0.003455199629266565
aF0
aF0
aF0.0056604573684878598
aF0
aF0
aF0.00018816058384409735
aF0
aF0
aF0.0013553210066931461
aF0
aF0
atp3
a(S'H'
(lp4
F0.050927536228307785
aF0.94515720427284078
aF0.044616934912649502
aF0.94134375299949236
aF0.024144979031399907
aF0.92384374762421839
aF0.001396499810003978
aF0.84678054286459792
aF0
aF0.0063946299539700538
aF0
aF0
aF0.0027210270437843711
aF0
aF0
aF0.002207484917311286
aF0
aF0
aF7.2371488806168707e-05
aF0
atp5
a(S'H'
(lp6
F0.050927536228307785
aF0.088927418026490138
aF0.044616934912649502
aF0.079053692301451678
aF0.024144979031399907
aF0.045779832269429173
aF0.001396499810003978
aF0.0036263248544593095
aF0
aF0.0090496091454492257
aF0
aF0
aF6.6047852305199534e-05
aF0
aF0
aF0.0088543230580908922
aF0
aF0
aF2.5122963921796983e-11
aF0
atp7
a.