(lp1
(S'O'
(lp2
F1.8856283663838305
aF0
aF1.87769001780668
aF0
aF1.8412795525158439
aF0
aF1.6813212184361737
aF0
aF0.58366258569980312
aF0
aF0
aF0.95618127414433152
aF0
aF0
aF0.031784644789552279
aF0
aF0
aF0.22894485068803308
aF0
aF0
atp3
a(S'H'
(lp4
F0.86211808958233072
aF0.94515720427284078
aF0.85313181706843444
aF0.94134375299949236
aF0.81263221957651333
aF0.92384374762421839
aF0.64841630414026741
aF0.84678054286459792
aF0
aF1.3688043825695617
aF0
aF0
aF0.17103947727457253
aF0
aF0
aF0.96146945424231645
aF0
aF0
aF0.00023439880082775242
aF0
atp5
a(S'H'
(lp6
F0.86211808958233072
aF0.94047116211098969
aF0.85313181706843444
aF0.93634626480718752
aF0.81263221957651333
aF0.91743580489162535
aF0.64841630414026741
aF0.83454067557157574
aF0
aF1.3842900707034911
aF0
aF0
aF0.15555378914064349
aF0
aF0
aF1.0057229446882099
aF0
aF0
aF0.00016035862415772907
aF0
atp7
a.