(lp1
(S'O'
(lp2
F0.97688259613896411
aF0
aF0.96886389773650383
aF0
aF0.93806714839304572
aF0
aF0.84744505772290668
aF0
aF0.0002740329711555239
aF0
aF0
aF0.000448932657218179
aF0
aF0
aF1.4923075184544741e-05
aF0
aF0
aF0.00010749093603383368
aF0
aF0
atp3
a(S'H'
(lp4
F0.01118247818970205
aF0.94515720427284078
aF0.0095496558570486514
aF0.94134375299949236
aF0.0045899212515002411
aF0.92384374762421839
aF0.00015308511244632248
aF0.84678054286459792
aF0
aF0.00050233834179022542
aF0
aF0
aF0.00022062728658347761
aF0
aF0
aF0.00016851259233287012
aF0
aF0
aF6.2702368231969258e-06
aF0
atp5
a(S'H'
(lp6
F0.01118247818970205
aF0.031725391866123366
aF0.0095496558570486514
aF0.02752014473701149
aF0.0045899212515002411
aF0.014223400768827329
aF0.00015308511244632248
aF0.00066451485830872515
aF0
aF0.00071858057371156764
aF0
aF0
aF4.3850546621354599e-06
aF0
aF0
aF0.00070558434731822983
aF0
aF0
aF9.7846905415811075e-13
aF0
atp7
a.