(lp1
(S'O'
(lp2
F0.94927750497215724
aF0
aF0.94482978974942033
aF0
aF0.92544834753906036
aF0
aF0.84682432660621521
aF0
aF0
aF0
aF0
aF0
aF0
aF0
aF0
aF0
aF0
aF0
aF0
aF0
atp3
a(S'H'
(lp4
F0
aF0.94515720427284078
aF0
aF0.94134375299949236
aF0
aF0.92384374762421839
aF0
aF0.84678054286459792
aF0
aF0
aF0
aF0
aF0
aF0
aF0
aF0
aF0
aF0
aF0
aF0
atp5
a(S'H'
(lp6
F0
aF0.0041203006993164584
aF0
aF0.0034860367499279835
aF0
aF0.0016045999148419231
aF0
aF4.3783741617283715e-05
aF0
aF0
aF0
aF0
aF0
aF0
aF0
aF0
aF0
aF0
aF0
aF0
atp7
a.