(lp1
(S'O'
(lp2
F0.9663771947592168
aF0
aF0.95962395418671087
aF0
aF0.93299271586552301
aF0
aF0.84714873069803598
aF0
aF8.8885560291532842e-05
aF0
aF0
aF0.00014561616655740916
aF0
aF0
aF4.8404609615319712e-06
aF0
aF0
aF3.4865848570485125e-05
aF0
aF0
atp3
a(S'H'
(lp4
F0.0054039523540276337
aF0.94515720427284078
aF0.0045817564638493992
aF0.94134375299949236
aF0.0021297331352219534
aF0.92384374762421839
aF6.0818675535826543e-05
aF0.84678054286459792
aF0
aF0.00016256406242450843
aF0
aF0
aF7.1937664424433616e-05
aF0
aF0
aF5.4157678398963033e-05
aF0
aF0
aF2.0767642493495997e-06
aF0
atp5
a(S'H'
(lp6
F0.0054039523540276337
aF0.021219990486376052
aF0.0045817564638493992
aF0.018280201187218462
aF0.0021297331352219534
aF0.0091489682413046381
aF6.0818675535826543e-05
aF0.00036818783343810739
aF0
aF0.00023314184360100638
aF0
aF0
aF1.3598832479356423e-06
aF0
aF0
aF0.00022910932724434378
aF0
aF0
aF2.651968491774881e-13
aF0
atp7
a.