(lp1
(S'Pt'
p2
(lp3
F0.33428504087403355
aF5.9394378870304472
aF0.3100696898870845
aF5.6526800635589138
aF0.21986683595626078
aF4.5468430849098223
aF0.047323454500520244
aF1.9884426565184599
aF0.004208166595830465
aF0.75442848700685539
aF6.9644580287064421
aF0.0001523149093085227
aF0.24558182912407198
aF2.7549221313766465
aF0.0039400928459952115
aF0.3962908870175979
aF3.8685656837185158
aF2.9417919060454001e-06
aF0.015540691305198211
aF0.55425469771938785
atp4
a(g2
(lp5
F0.48887915874441101
aF5.9430391712933366
aF0.45245950502814369
aF5.6481439889305332
aF0.31981779817156364
aF4.5191103796949577
aF0.075589374903254333
aF1.9551484965749919
aF0.041162056024222189
aF0.81313422033614469
aF6.52787976103264
aF0.001808672698610942
aF0.28623783870790998
aF2.5143609420443727
aF0.036848534977711483
aF0.41582566763031226
aF3.7868681386803202
aF1.282547115757459e-05
aF0.031038609161440654
aF0.64502966628963121
atp6
a(g2
(lp7
F0.35051151790857954
aF5.9484348006565746
aF0.31930624641613709
aF5.6567507482158259
aF0.20857342638109749
aF4.5301260681876494
aF0.032327282244406036
aF1.9244253056689358
aF0.013937241729344713
aF0.6814703332811457
aF6.9773422968450376
aF0.0010476977940707107
aF0.17946273077012684
aF2.6048100705346005
aF0.011858804156890649
aF0.39574178748962824
aF3.9566930352190681
aF1.9199725306398302e-05
aF0.0083431269053572139
aF0.50868397658655518
atp8
a(g2
(lp9
F0.41437185241560925
aF5.9318551293007209
aF0.37822228024257099
aF5.6295198624244485
aF0.24925504035422974
aF4.468802816412464
aF0.040397562225626196
aF1.8366284716590877
aF0.037113940359580683
aF0.68757917610658525
aF6.6017904644829128
aF0.0023408640299402818
aF0.17944613252732464
aF2.2845237561061449
aF0.031566725385775318
aF0.40122238388894643
aF3.9117745541288995
aF1.8412340600345632e-05
aF0.010043943088371234
aF0.48543532455191074
atp10
a(g2
(lp11
F0.27596315721467241
aF6.0298901674442575
aF0.24551747462839235
aF5.732620714090447
aF0.14328530585633303
aF4.5866456548514769
aF0.012654368770207883
aF1.944905140326066
aF0.002143056274715787
aF0.34001054571044642
aF6.9091155915993339
aF0.0004665473953983962
aF0.072803422276192201
aF2.5654363933445574
aF0.0013391836482308148
aF0.20469322450964358
aF3.9853445821874049
aF9.5320179781673112e-06
aF0.001703125269198805
aF0.57134541099533853
atp12
a(g2
(lp13
F1.0289092852966382
aF5.9914536690311158
aF0.96244668053225679
aF5.6960709713663418
aF0.71060932637962115
aF4.5565067883008563
aF0.19458608549527259
aF1.927264900296479
aF0.15461786130556038
aF1.3920198763411049
aF6.8912336874666682
aF0.024803858571467732
aF0.63020051210998762
aF2.5682342473975019
aF0.11930160594063881
aF0.6271829986110824
aF3.9304742532091388
aF0.0020052018137700334
aF0.086178665795387771
aF0.5339016707637515
atp14
a(g2
(lp15
F0.36022591779474694
aF6.0447109313955627
aF0.32743689323731201
aF5.7512770553812551
aF0.21157030206983476
aF4.6211009972980532
aF0.030811774106171648
aF2.0102120792409059
aF0.007693040573396045
aF0.51240730358217701
aF6.8865747938215831
aF0.00018600739246091532
aF0.14710721217115394
aF2.7083810144632481
aF0.0071615568688357814
aF0.28240241002918914
aF3.9148695894470684
aF2.8731885811373142e-09
aF0.0070551776399044872
aF0.6519061868462207
atp16
a(g2
(lp17
F0.9966478432592395
aF5.96974019783271
aF0.95508884201171218
aF5.6777728895184776
aF0.79265689085341462
aF4.5526128611053647
aF0.39072557932065749
aF1.955638126405536
aF0.27394583599097511
aF0.99312922397058956
aF6.857044673064939
aF0.0108429192274701
aF1.3555804060187377
aF2.637446382623021
aF0.24540737762831885
aF0.1209922984193241
aF3.8724450198917548
aF4.326507381542287e-05
aF0.32305123820479031
aF0.55731685998473579
atp18
a(S'Cu'
p19
(lp20
F1.00905763586731
aF3.5021745887215081
aF0.96580479480221737
aF3.2766591921260955
aF0.8032311886494975
aF2.4358419831392033
aF0.43475020035671846
aF0.77004312157233912
aF0.028799386950969195
aF0.17513047909463583
aF3.7639134950659043
aF0.011465156106790412
aF0.42459477225525666
aF0.64699712270027598
aF0.016570708560548285
aF0.040487922164253017
aF2.465321845854858
aF0.0016236242151045856
aF0.23536662091923258
aF0.0098912516356236477
atp21
a(g19
(lp22
F1.00905763586731
aF0.7476191847864222
aF0.96580479480221748
aF0.67388841985751413
aF0.80323118864949761
aF0.41979294288315133
aF0.43475020035671846
aF0.054372359993777153
aF0.028799386950969189
aF0.50150554978284567
aF0.20597038321340083
aF0.011465156106790433
aF0.051709360611967722
aF0.018418624040695636
aF0.016570708560548274
aF0.39242479603578362
aF0.16115631289855537
aF0.0016236242151045912
aF0.00051177274365276065
aF4.2221170751324756e-05
atp23
a.