(lp1
(S'O'
(lp2
F1.3542453000586827
aF0
aF1.3281893861648524
aF0
aF1.2222747232860816
aF0
aF0.93626871039758019
aF0
aF0.099228344896957615
aF0
aF0
aF0.16256016331943909
aF0
aF0
aF0.0054037003105543487
aF0
aF0
aF0.038922862563164413
aF0
aF0
atp3
a(S'H'
(lp4
F0.328057629209841
aF0.94515720427284078
aF0.30672992446527597
aF0.94134375299949236
aF0.22451720621048052
aF0.92384374762421839
aF0.052757485400593676
aF0.84678054286459792
aF0
aF0.1918724107471034
aF0
aF0
aF0.069916097469293295
aF0
aF0
aF0.075543724674741103
aF0
aF0
aF0.0013318551108290955
aF0
atp5
a(S'H'
(lp6
F0.328057629209841
aF0.40908809578584199
aF0.30672992446527597
aF0.38684563316535997
aF0.22451720621048052
aF0.29843097566186311
aF0.052757485400593676
aF0.089488167532982249
aF0
aF0.25802871126488486
aF0
aF0
aF0.0037597969515118447
aF0
aF0
aF0.24707021787070355
aF0
aF0
aF1.1137964534840161e-08
aF0
atp7
a.