(lp1
(S'O'
(lp2
F0.96880960992473031
aF0
aF0.96175501198740654
aF0
aF0.93414244889179188
aF0
aF0.84721089624227519
aF0
aF0.00012189434141297436
aF0
aF0
aF0.00019969257845009285
aF0
aF0
aF6.6380275840749479e-06
aF0
aF0
aF4.7813724021815352e-05
aF0
aF0
atp3
a(S'H'
(lp4
F0.0066545119748523526
aF0.94515720427284078
aF0.0056523064368048954
aF0.94134375299949236
aF0.0026496047257477577
aF0.92384374762421839
aF7.8684883483570598e-05
aF0.84678054286459792
aF0
aF0.00022306072325098446
aF0
aF0
aF9.8526196612082692e-05
aF0
aF0
aF7.443844562434734e-05
aF0
aF0
aF2.833425149057447e-06
aF0
atp5
a(S'H'
(lp6
F0.0066545119748523526
aF0.023652405651889519
aF0.0056523064368048954
aF0.020411258987914196
aF0.0026496047257477577
aF0.010298701267573502
aF7.8684883483570598e-05
aF0.00043035337767732525
aF0
aF0.00031970114765306087
aF0
aF0
aF1.885772210006329e-06
aF0
aF0
aF0.00031410992056147755
aF0
aF0
aF3.8024349874947715e-13
aF0
atp7
a.