(lp1
(S'O'
(lp2
F1.2658936051487497
aF0
aF1.2408968402171212
aF0
aF1.1419846957105368
aF0
aF0.89683243680502145
aF0
aF0.059031789686681706
aF0
aF0
aF0.096708429254471845
aF0
aF0
aF0.0032147074567630053
aF0
aF0
aF0.023155543299833745
aF0
aF0
atp3
a(S'H'
(lp4
F0.24735442814722128
aF0.94515720427284078
aF0.22824274362277228
aF0.94134375299949236
aF0.15714483698531959
aF0.92384374762421839
aF0.027791573118499925
aF0.84678054286459792
aF0
aF0.11269572625986811
aF0
aF0
aF0.043044492681285455
aF0
aF0
aF0.042699957626731073
aF0
aF0
aF0.00090879940036935807
aF0
atp5
a(S'H'
(lp6
F0.24735442814722128
aF0.32073640087590899
aF0.22824274362277228
aF0.29955308721762891
aF0.15714483698531959
aF0.21814094808631837
aF0.027791573118499925
aF0.050051893940423503
aF0
aF0.15387491076560447
aF0
aF0
aF0.0018653081755490787
aF0
aF0
aF0.14841196445254917
aF0
aF0
aF3.2047933604948944e-09
aF0
atp7
a.