(lp1
(S'O'
(lp2
F1.0294334560696137
aF0
aF1.0161457963584077
aF0
aF0.96684859900332831
aF0
aF0.85007434884124933
aF0
aF0.0030510109100663537
aF0
aF0
aF0.0049982979394125066
aF0
aF0
aF0.00016614958779520827
aF0
aF0
aF0.0011967757645715694
aF0
aF0
atp3
a(S'H'
(lp4
F0.047414483296977054
aF0.94515720427284078
aF0.041471481620857356
aF0.94134375299949236
aF0.022273471875335005
aF0.92384374762421839
aF0.0012437612289073505
aF0.84678054286459792
aF0
aF0.0056427131508805248
aF0
aF0
aF0.0024065956985983351
aF0
aF0
aF0.0019439098436353432
aF0
aF0
aF6.431862776286505e-05
aF0
atp5
a(S'H'
(lp6
F0.047414483296977054
aF0.08427625179677288
aF0.041471481620857356
aF0.074802043358915438
aF0.022273471875335005
aF0.0430048513791099
aF0.0012437612289073505
aF0.0032938059766514059
aF0
aF0.0079917029105677894
aF0
aF0
aF5.7605938911069093e-05
aF0
aF0
aF0.0078213469001818976
aF0
aF0
aF2.111510589089373e-11
aF0
atp7
a.