(lp1
(S'O'
(lp2
F0.95039166017406962
aF0
aF0.945780636071758
aF0
aF0.9259036270002009
aF0
aF0.84683903485377521
aF0
aF3.4265655562653479e-09
aF0
aF0
aF5.6135477925152633e-09
aF0
aF0
aF1.8660125168623688e-10
aF0
aF0
aF1.3440891344976812e-09
aF0
aF0
atp3
a(S'H'
(lp4
F8.3766627095927337e-07
aF0.94515720427284078
aF6.9837612298317173e-07
aF0.94134375299949236
aF3.0025417612225853e-07
aF0.92384374762421839
aF5.9687182159910977e-09
aF0.84678054286459792
aF0
aF6.2365381999174407e-09
aF0
aF0
aF2.8035751488631702e-09
aF0
aF0
aF2.047635826771359e-09
aF0
aF0
aF8.3623276355387819e-11
aF0
atp5
a(S'H'
(lp6
F8.3766627095927337e-07
aF0.0052344559012288353
aF6.9837612298317173e-07
aF0.0044368830722656743
aF3.0025417612225853e-07
aF0.0020598793759824697
aF5.9687182159910977e-09
aF5.849198917724152e-05
aF0
aF8.992561991364232e-09
aF0
aF0
aF4.7551357416379315e-11
aF0
aF0
aF8.8514033956674551e-09
aF0
aF0
aF6.9203816869394744e-18
aF0
atp7
a.