(lp1
(S'O'
(lp2
F0.95453149474871934
aF0
aF0.94933341103971547
aF0
aF0.92764874633156336
aF0
aF0.84690214935822117
aF0
aF4.6048531326218979e-06
aF0
aF0
aF7.5438694264061825e-06
aF0
aF0
aF2.5076752341929923e-07
aF0
aF0
aF1.8062788993479893e-06
aF0
aF0
atp3
a(S'H'
(lp4
F0.00063032051503728286
aF0.94515720427284078
aF0.00052851105075414075
aF0.94134375299949236
aF0.00023331266745220397
aF0.92384374762421839
aF5.2436899263089582e-06
aF0.84678054286459792
aF0
aF8.394262059542345e-06
aF0
aF0
aF3.7544604994857359e-06
aF0
aF0
aF2.7690975195620427e-06
aF0
aF0
aF1.1081493995438706e-07
aF0
atp5
a(S'H'
(lp6
F0.00063032051503728286
aF0.009374290475878613
aF0.00052851105075414075
aF0.0079896580402231028
aF0.00023331266745220397
aF0.0038049987073449556
aF5.2436899263089582e-06
aF0.00012160649362322671
aF0
aF1.2082741808876877e-05
aF0
aF0
aF6.5980750151202746e-08
aF0
aF0
aF1.1886941866685696e-05
aF0
aF0
aF1.0570052705491929e-14
aF0
atp7
a.