(lp1
(S'O'
(lp2
F0.95986283984472931
aF0
aF0.95394509215505296
aF0
aF0.92999719942651193
aF0
aF0.84700144604060279
aF0
aF2.7790443044672723e-05
aF0
aF0
aF4.5527504915584657e-05
aF0
aF0
aF1.5133904114483045e-06
aF0
aF0
aF1.0900953717614711e-05
aF0
aF0
atp3
a(S'H'
(lp4
F0.0024315118348916306
aF0.94515720427284078
aF0.0020502322621879176
aF0.94134375299949236
aF0.00092893461706715797
aF0.92384374762421839
aF2.355720427752676e-05
aF0.84678054286459792
aF0
aF5.0741678999402156e-05
aF0
aF0
aF2.2576268960855227e-05
aF0
aF0
aF1.6820094454082161e-05
aF0
aF0
aF6.5914016676842467e-07
aF0
atp5
a(S'H'
(lp6
F0.0024315118348916306
aF0.014705635571888557
aF0.0020502322621879176
aF0.012601339155560628
aF0.00092893461706715797
aF0.0061534518022935076
aF2.355720427752676e-05
aF0.0002209031760049068
aF0
aF7.2906592989030908e-05
aF0
aF0
aF4.1135497122647344e-07
aF0
aF0
aF7.1686323950849142e-05
aF0
aF0
aF7.2650079942371171e-14
aF0
atp7
a.