(lp1
(S'O'
(lp2
F0.97406287962397153
aF0
aF0.96637494671872992
aF0
aF0.93667813139051959
aF0
aF0.84735839902027987
aF0
aF0.00021327953303200683
aF0
aF0
aF0.00034940374908379372
aF0
aF0
aF1.1614611531379864e-05
aF0
aF0
aF8.3660066691238437e-05
aF0
aF0
atp3
a(S'H'
(lp4
F0.0095440437575091078
aF0.94515720427284078
aF0.0081359167382361562
aF0.94134375299949236
aF0.0038781450602565644
aF0.92384374762421839
aF0.00012446356674211461
aF0.84678054286459792
aF0
aF0.00039074082833539712
aF0
aF0
aF0.00017194245378040338
aF0
aF0
aF0.00013084680882874695
aF0
aF0
aF4.906145738230537e-06
aF0
atp5
a(S'H'
(lp6
F0.0095440437575091078
aF0.028905675351130793
aF0.0081359167382361562
aF0.02503119371923759
aF0.0038781450602565644
aF0.012834383766301147
aF0.00012446356674211461
aF0.00057785615568198918
aF0
aF0.00055930881292144208
aF0
aF0
aF3.3744691943584875e-06
aF0
aF0
aF0.00054930634283328103
aF0
aF0
aF7.2782980327196302e-13
aF0
atp7
a.