(lp1
(S'O'
(lp2
F1.0248974624967118
aF0
aF1.0120085621994681
aF0
aF0.96417469124005939
aF0
aF0.84976668649355824
aF0
aF0.0026823496763076593
aF0
aF0
aF0.0043943411725069189
aF0
aF0
aF0.00014607332001688428
aF0
aF0
aF0.0010521663734862183
aF0
aF0
atp3
a(S'H'
(lp4
F0.044021545710989311
aF0.94515720427284078
aF0.038440657778621483
aF0.94134375299949236
aF0.020488949621414013
aF0.92384374762421839
aF0.0011043520316117324
aF0.84678054286459792
aF0
aF0.004957524040829101
aF0
aF0
aF0.0021191668079854767
aF0
aF0
aF0.0017043886962453301
aF0
aF0
aF5.6907551731669753e-05
aF0
atp5
a(S'H'
(lp6
F0.044021545710989311
aF0.07974025822387093
aF0.038440657778621483
aF0.070664809199975809
aF0.020488949621414013
aF0.040330943615841025
aF0.0011043520316117324
aF0.0029861436289603371
aF0
aF0.0070266633228336008
aF0
aF0
aF5.002752598097856e-05
aF0
aF0
aF0.0068786927311683911
aF0
aF0
aF1.7674430713003328e-11
aF0
atp7
a.