(lp1
(S'O'
(lp2
F0.95795379390714308
aF0
aF0.9522896303021714
aF0
aF0.92914462998690717
aF0
aF0.84696364805717117
aF0
aF1.6931551705073117e-05
aF0
aF0
aF2.7737999795183552e-05
aF0
aF0
aF9.2204532184710293e-07
aF0
aF0
aF6.6414940275586431e-06
aF0
aF0
atp3
a(S'H'
(lp4
F0.0017008886921462355
aF0.94515720427284078
aF0.0014315143009480322
aF0.94134375299949236
aF0.00064303198780578082
aF0.92384374762421839
aF1.5667060163314852e-05
aF0.84678054286459792
aF0
aF3.0897944696880075e-05
aF0
aF0
aF1.3771606803376602e-05
aF0
aF0
aF1.022547732548285e-05
aF0
aF0
aF4.0355588245623978e-07
aF0
atp5
a(S'H'
(lp6
F0.0017008886921462355
aF0.012796589634302276
aF0.0014315143009480322
aF0.010945877302679034
aF0.00064303198780578082
aF0.0053008823626887885
aF1.5667060163314852e-05
aF0.00018310519257323967
aF0
aF4.4421645913756055e-05
aF0
aF0
aF2.4790558650061217e-07
aF0
aF0
aF4.3686153563665603e-05
aF0
aF0
aF4.2375074859334219e-14
aF0
atp7
a.