(lp1
(S'O'
(lp2
F0.95617657390960842
aF0
aF0.95075250551831436
aF0
aF0.92836235259547573
aF0
aF0.84693069444294689
aF0
aF9.4419439615360345e-06
aF0
aF0
aF1.5468200684332388e-05
aF0
aF0
aF5.1418206733339741e-07
aF0
aF0
aF3.7036543089134531e-06
aF0
aF0
atp3
a(S'H'
(lp4
F0.0011004859255096216
aF0.94515720427284078
aF0.0009244702530135405
aF0.94134375299949236
aF0.00041168389893511838
aF0.92384374762421839
aF9.634714351339996e-06
aF0.84678054286459792
aF0
aF1.7221066844897073e-05
aF0
aF0
aF7.6890778009713475e-06
aF0
aF0
aF5.6899894592977555e-06
aF0
aF0
aF2.2613525391182562e-07
aF0
atp5
a(S'H'
(lp6
F0.0011004859255096216
aF0.011019369636767685
aF0.0009244702530135405
aF0.0094087525188220038
aF0.00041168389893511838
aF0.0045186049712573739
aF9.634714351339996e-06
aF0.00015015157834896801
aF0
aF2.4773389255420911e-05
aF0
aF0
aF1.3675539044750884e-07
aF0
aF0
aF2.4367611299355539e-05
aF0
aF0
aF2.2628150945157177e-14
aF0
atp7
a.