(lp1
(S'O'
(lp2
F1.8774011376962956
aF0
aF1.8689215503101724
aF0
aF1.8300671979400094
aF0
aF1.6601453924193337
aF0
aF0.57238292015323178
aF0
aF0
aF0.93770243853195234
aF0
aF0
aF0.03117038550426187
aF0
aF0
aF0.22452034000730381
aF0
aF0
atp3
a(S'H'
(lp4
F0.85262671770043053
aF0.94515720427284078
aF0.84309687347243001
aF0.94134375299949236
aF0.80023907648470027
aF0.92384374762421839
aF0.62813344070343191
aF0.84678054286459792
aF0
aF1.3299168386137039
aF0
aF0
aF0.18016852007148063
aF0
aF0
aF0.9084341437223532
aF0
aF0
aF0.0003059927624849048
aF0
atp5
a(S'H'
(lp6
F0.85262671770043053
aF0.9322439334234548
aF0.84309687347243001
aF0.92757779731067991
aF0.80023907648470027
aF0.90622345031579099
aF0.62813344070343191
aF0.81336484955473576
aF0
aF1.3690750343014553
aF0
aF0
aF0.1410103243837289
aF0
aF0
aF1.0202450902777573
aF0
aF0
aF0.0001148151390748497
aF0
atp7
a.