(lp1
(S'O'
(lp2
F0.94829647356859059
aF0
aF0.94399483867000678
aF0
aF0.92505353435177728
aF0
aF0.84681225679900052
aF0
aF0
aF0
aF0
aF0
aF0
aF0
aF0
aF0
aF0
aF0
aF0
aF0
atp3
a(S'H'
(lp4
F0
aF0.94515720427284078
aF0
aF0.94134375299949236
aF0
aF0.92384374762421839
aF0
aF0.84678054286459792
aF0
aF0
aF0
aF0
aF0
aF0
aF0
aF0
aF0
aF0
aF0
aF0
atp5
a(S'H'
(lp6
F0
aF0.0031392692957498054
aF0
aF0.0026510856705143672
aF0
aF0.0012097867275588524
aF0
aF3.1713934402601666e-05
aF0
aF0
aF0
aF0
aF0
aF0
aF0
aF0
aF0
aF0
aF0
aF0
atp7
a.