(lp1
(S'Pt'
p2
(lp3
F0.35152550028331353
aF5.8312084278948726
aF0.32794820776653621
aF5.5388406190962947
aF0.23852677677237638
aF4.4117079686002949
aF0.056660000072045254
aF1.827863492460726
aF0.0041764971161686185
aF0.82207974617629309
aF6.6447362707507702
aF0.00012097510718711137
aF0.2814123881919835
aF2.4174822348601066
aF0.0038910132150701618
aF0.41306743316591504
aF3.754775049844894
aF8.8211313155461852e-07
aF0.017153654778647481
aF0.43585841655017121
atp4
a(g2
(lp5
F0.54752931028214535
aF5.9346492397817032
aF0.50626237924416584
aF5.6371954562586932
aF0.35665013331848983
aF4.4963669674648417
aF0.08506756961187642
aF1.9039953365621454
aF0.053320003253112667
aF0.89015539088867879
aF6.4520567665461561
aF0.0043479241101759998
aF0.31590854330692636
aF2.4246587643491528
aF0.043003928499049285
aF0.45133552542250055
aF3.741427382345341
aF1.5453578301250101e-05
aF0.036781892791528104
aF0.58713796201367019
atp6
a(g2
(lp7
F0.37600587813079878
aF5.809199099964478
aF0.34121165064379977
aF5.5235312249601671
aF0.21847091841837807
aF4.4227033631678472
aF0.030110046845154823
aF1.8830673724372036
aF0.018041861256898474
aF0.73596722297363981
aF6.5846181109854021
aF0.0019399604962892047
aF0.17283704775679623
aF2.544024013811208
aF0.014057394286392761
aF0.4435952148993117
aF3.624029124563144
aF3.1925774505935511e-05
aF0.006011460300518477
aF0.46803415661288778
atp8
a(g2
(lp9
F0.44419684695289796
aF5.9045250560739957
aF0.4035971234517246
aF5.6078903724914504
aF0.25953067955707204
aF4.4695240731063297
aF0.035745711512966377
aF1.877171062942758
aF0.044060383834943574
aF0.74098770142804726
aF6.5188402778236512
aF0.0043938612561090652
aF0.17133338790543029
aF2.4032578521612509
aF0.033929784256588991
aF0.45461855567599851
aF3.743543116299946
aF3.1331989001163621e-05
aF0.0076317985212126741
aF0.51887677931803844
atp10
a(g2
(lp11
F0.33791367006931622
aF5.9476920107643956
aF0.30224544909269818
aF5.6501132545176862
aF0.18127565652421015
aF4.5052134547177731
aF0.019045223397395394
aF1.8853087495930188
aF0.0049043357137174689
aF0.4121887053970017
aF6.5885009616714694
aF0.00085037318949550747
aF0.095804181849557177
aF2.4445334873925026
aF0.0032484255520263128
aF0.24274716274553743
aF3.770472923713184
aF1.2110543569736627e-05
aF0.0031914764660655594
aF0.52808388555860108
atp12
a(g2
(lp13
F1.2023778922962689
aF5.8770400712982687
aF1.1324000016318065
aF5.5839038680732767
aF0.86240488733693788
aF4.453527987637683
aF0.27019113182596455
aF1.8535944002462696
aF0.23248250474391943
aF1.508803914958937
aF6.6739646801642056
aF0.053783682228996162
aF0.81563801243712242
aF2.4541527938910908
aF0.15072342241308656
aF0.63410350033636398
aF3.7670041128318483
aF0.0034031656808681436
aF0.1507296639660905
aF0.46000297774586374
atp14
a(g2
(lp15
F0.38600547816085556
aF5.9766331423961141
aF0.35110490423325824
aF5.6809796276293811
aF0.2281459524527667
aF4.5431353260754967
aF0.035462466536828968
aF1.9278783039728411
aF0.011605444577771906
aF0.53351620660660848
aF6.616945015772898
aF0.00049997897016163927
aF0.1609880255980855
aF2.5308213343758079
aF0.010240416543940287
aF0.28895360012039828
aF3.7507812113847212
aF2.7138273889893681e-07
aF0.0091605241116661761
aF0.57052664969070777
atp16
a(g2
(lp17
F1.0618199329606606
aF5.9890266324121137
aF1.0135218721768344
aF5.6957493788400253
aF0.82665675065626232
aF4.5646055381186716
aF0.38290596717624509
aF1.9508939279200317
aF0.27229920812555775
aF1.1926401432049847
aF6.7577472740792217
aF0.028942514751434452
aF1.329902904776787
aF2.6547128197580072
aF0.2037934660903504
aF0.24447579670224537
aF3.7475768004677579
aF0.0001945955312957255
aF0.31449676319787384
aF0.55505247640109934
atp18
a(S'Cu'
p19
(lp20
F1.057988819746241
aF3.6695081270816168
aF1.0072315163608845
aF3.4362754588259992
aF0.81263302132555904
aF2.5643079986307051
aF0.36349952883709802
aF0.81994713029080224
aF0.043803675524549057
aF0.35144740563336424
aF3.9248444584390363
aF0.017765796273791899
aF0.41156306134589915
aF0.74022566813820834
aF0.028259490185469104
aF0.090061592135737834
aF2.5108304256812239
aF0.0043006982666911903
aF0.13309229224888891
aF0.014881167723552633
atp21
a(g19
(lp22
F1.057988819746241
aF1.0378663820546399
aF1.0072315163608845
aF0.9420161294148246
aF0.81263302132555915
aF0.60735375640578826
aF0.36349952883709802
aF0.095240986687674695
aF0.043803675524549057
aF0.59901038090105185
aF0.38705078105092688
aF0.017765796273791899
aF0.10951816958356279
aF0.037960854100267678
aF0.028259490185469104
aF0.39574267744170266
aF0.29659271261706227
aF0.0043006982666911912
aF0.0023669025967240562
aF0.00011575308265249708
atp23
a.