(lp1
(S'Pt'
p2
(lp3
F0.31544029010049546
aF5.9830625868072245
aF0.29204033890924841
aF5.6937810222184488
aF0.20507784664366985
aF4.5771706178487861
aF0.041806814930773456
aF1.991422473438158
aF0.00096395436787653928
aF0.68751047104595253
aF7.0545983259213925
aF0.00017276460111102809
aF0.22027379462947619
aF2.76046832992466
aF0.00068517860540850668
aF0.36499772962594879
aF3.9348175246346591
aF3.858609508666249e-06
aF0.013678769211598574
aF0.55887783431370563
atp4
a(g2
(lp5
F0.41062138381507191
aF5.9598212853097579
aF0.38063833000630082
aF5.6615479838199327
aF0.27019393705748324
aF4.5180886586658868
aF0.061968745637140984
aF1.919173238633382
aF0.015715283239415612
aF0.71804031419999514
aF6.5654997939476099
aF0.00068387484313366218
aF0.2451093815224494
aF2.4524590870673504
aF0.014286134943599175
aF0.37498064011892834
aF3.8228243225109901
aF1.1493637824721909e-05
aF0.023537605800307521
aF0.59221490809157762
atp6
a(g2
(lp7
F0.31854113577077398
aF5.9858612986194419
aF0.29130819591235924
aF5.694935507509614
aF0.19363537748890747
aF4.5710872609808009
aF0.031965352648294657
aF1.966902595291949
aF0.0047499934456133475
aF0.63685913520852233
aF7.0558126399667103
aF0.00054474358057454871
aF0.17551811412233892
aF2.7031841554510296
aF0.003818092005976651
aF0.36584277906752866
aF3.9619849297048559
aF1.3262931465331927e-05
aF0.009111498890449805
aF0.53879241227024977
atp8
a(g2
(lp9
F0.35666711141382912
aF5.9282126978651997
aF0.32603952243832129
aF5.6267387779106155
aF0.21664699177044841
aF4.4698149195463976
aF0.03670461573418126
aF1.8450720258920006
aF0.015737634166115469
aF0.61137693034211971
aF6.5854455140355519
aF0.001011269729825174
aF0.16391200645645373
aF2.3139258152944842
aF0.013541704921790753
aF0.35628529514554919
aF3.8753890109988864
aF1.354009073065625e-05
aF0.010324089017282594
aF0.49489337897690583
atp10
a(g2
(lp11
F0.25318311821239642
aF6.0441863931314064
aF0.22449479876260051
aF5.7487856242602939
aF0.12875921448557381
aF4.6097821515917587
aF0.010171853081793645
aF1.9772671792737269
aF0.00088355379905722276
aF0.30396759444825777
aF6.9646207669170792
aF0.00033223831629287801
aF0.062758477909645519
aF2.6519862573140194
aF0.00035310678243441647
aF0.1842788360626495
aF3.9755552672751535
aF7.7548454111239569e-06
aF0.0011776986245352469
aF0.59588826369727665
atp12
a(g2
(lp13
F0.89252493188520965
aF6.0151135687806727
aF0.83348436562970796
aF5.7200472089444947
aF0.61070917716253681
aF4.5821060968630318
aF0.15928151310357219
aF1.9539353278508031
aF0.082875148065248094
aF1.2678392731096799
aF6.8873460745847916
aF0.014020773448039297
aF0.53652465726092735
aF2.6261195975594478
aF0.065119808189428446
aF0.6016989757352037
aF3.9044539906527689
aF0.0014716250730941571
aF0.069555560513802031
aF0.56553078569211856
atp14
a(g2
(lp15
F0.35214150393715493
aF6.0479376122810375
aF0.32066889835471907
aF5.7536139944653284
aF0.20845090302856395
aF4.618949871125051
aF0.03009263559698494
aF1.9952074340533041
aF0.0028764880811214494
aF0.49741069779752306
aF6.9479848865319314
aF6.6195251068318193e-05
aF0.14297025643719183
aF2.6925895344184139
aF0.0026868678261014025
aF0.27264251247338828
aF3.9507542991412063
aF8.6088608068558427e-10
aF0.0063528388236371207
aF0.61960725214812951
atp16
a(g2
(lp17
F0.93919951645296218
aF5.9339902405243068
aF0.9007779173511794
aF5.6400490788752116
aF0.75140140810037015
aF4.5072237213948902
aF0.38335096495780924
aF1.8982201379102923
aF0.21169350502681128
aF0.86840102638258165
aF6.8244493190337199
aF0.0047522075896437995
aF1.2859956526823191
aF2.5199206843232664
aF0.19947548093228071
aF0.091425838612422372
aF3.8913533984931652
aF3.62074197983896e-05
aF0.32485589129573683
aF0.50070551829446175
atp18
a(S'Cu'
p19
(lp20
F0.91307586216075143
aF3.4099945345560352
aF0.87339682392628815
aF3.1857565421703575
aF0.72492693437687972
aF2.3528993724041567
aF0.38581432327789578
aF0.72966771765555238
aF0.016632336105242469
aF0.086758881298287405
aF3.549159558632657
aF0.006411274860333529
aF0.29325874883894382
aF0.59141544766898724
aF0.008655432820078534
aF0.027428938065297309
aF2.3481825029072341
aF0.00046681132411722132
aF0.20472334406708953
aF0.0083561867480283249
atp21
a(g19
(lp22
F0.91307586216075143
aF0.42832445703185862
aF0.87339682392628815
aF0.38369582519407908
aF0.72492693437687983
aF0.2319754833333974
aF0.38581432327789578
aF0.025674778034997962
aF0.016632336105242469
aF0.31691902008436945
aF0.066621905087832056
aF0.0064112748603335342
aF0.017222604880295131
aF0.0050369803882419359
aF0.0086554328200785357
aF0.27637513750323162
aF0.053836092794238552
aF0.00046681132411722251
aF6.7164406846614106e-05
aF5.9336990525879594e-06
atp23
a.