(lp1
(S'O'
(lp2
F0.98943359641439477
aF0
aF0.98001181038766239
aF0
aF0.94446593360923148
aF0
aF0.84789509143645381
aF0
aF0.00064824966014627504
aF0
aF0
aF0.0010619906109950678
aF0
aF0
aF3.530187763876107e-05
aF0
aF0
aF0.00025427948490618345
aF0
aF0
atp3
a(S'H'
(lp4
F0.019019264111246017
aF0.94515720427284078
aF0.016356900824127815
aF0.94134375299949236
aF0.008122895893817525
aF0.92384374762421839
aF0.00031529252827274033
aF0.84678054286459792
aF0
aF0.001191182039162947
aF0
aF0
aF0.00051905823197839545
aF0
aF0
aF0.00040247708601582596
aF0
aF0
aF1.4510853137188719e-05
aF0
atp5
a(S'H'
(lp6
F0.019019264111246017
aF0.044276392141553961
aF0.016356900824127815
aF0.038668057388170057
aF0.008122895893817525
aF0.020622185985013135
aF0.00031529252827274033
aF0.0011145485718558493
aF0
aF0.0016993796211440359
aF0
aF0
aF1.0860649997306717e-05
aF0
aF0
aF0.001667209736568971
aF0
aF0
aF2.7813259413530827e-12
aF0
atp7
a.