(lp1
(S'O'
(lp2
F1.8970286235677782
aF0
aF1.8898519554078197
aF0
aF1.8568962000094698
aF0
aF1.711326676500502
aF0
aF0.59963072351676761
aF0
aF0
aF0.98234096766868317
aF0
aF0
aF0.032654225264467068
aF0
aF0
aF0.23520844033356025
aF0
aF0
atp3
a(S'H'
(lp4
F0.87551225231631669
aF0.94515720427284078
aF0.86730997926791431
aF0.94134375299949236
aF0.83023313661191744
aF0.92384374762421839
aF0.67784321875093745
aF0.84678054286459792
aF0
aF1.4267193301506498
aF0
aF0
aF0.15525236103480125
aF0
aF0
aF1.0465453647759531
aF0
aF0
aF0.00014674277616520754
aF0
atp5
a(S'H'
(lp6
F0.87551225231631669
aF0.95187141929493746
aF0.86730997926791431
aF0.94850820240832745
aF0.83023313661191744
aF0.93305245238525136
aF0.67784321875093745
aF0.86454613363590405
aF0
aF1.4014420999992012
aF0
aF0
aF0.1805295911862497
aF0
aF0
aF0.97432650279561117
aF0
aF0
aF0.00026828566718342905
aF0
atp7
a.