(lp1
(S'O'
(lp2
F1.0487171696844739
aF0
aF1.0338319326540981
aF0
aF0.9785652390827293
aF0
aF0.85156914159104813
aF0
aF0.0049011783846633593
aF0
aF0
aF0.0080293222616576038
aF0
aF0
aF0.00026690457436118827
aF0
aF0
aF0.0019225141048347079
aF0
aF0
atp3
a(S'H'
(lp4
F0.062178287191834096
aF0.94515720427284078
aF0.054737455896501183
aF0.94134375299949236
aF0.030293776806062024
aF0.92384374762421839
aF0.0019443949890199338
aF0.84678054286459792
aF0
aF0.0090898604612700065
aF0
aF0
aF0.0038406401850509548
aF0
aF0
aF0.0031577870882790898
aF0
aF0
aF0.00010063949890798355
aF0
atp5
a(S'H'
(lp6
F0.062178287191834096
aF0.10355996541163312
aF0.054737455896501183
aF0.092488179654605734
aF0.030293776806062024
aF0.054721491458510935
aF0.0019443949890199338
aF0.0047885987264501837
aF0
aF0.012833232813651148
aF0
aF0
aF9.7267832669813378e-05
aF0
aF0
aF0.012545797440863404
aF0
aF0
aF4.1402916526566379e-11
aF0
atp7
a.