(lp1
(S'O'
(lp2
F1.3624841628598199
aF0
aF1.3364018424426118
aF0
aF1.2301242054262318
aF0
aF0.94075943030549947
aF0
aF0.10352655037735667
aF0
aF0
aF0.16960166930847625
aF0
aF0
aF0.0056377686537619053
aF0
aF0
aF0.040608857238935134
aF0
aF0
atp3
a(S'H'
(lp4
F0.3356937175594506
aF0.94515720427284078
aF0.31422677708194191
aF0.94134375299949236
aF0.23122217750010401
aF0.92384374762421839
aF0.055680899773206803
aF0.84678054286459792
aF0
aF0.20043722631590227
aF0
aF0
aF0.072690993369930595
aF0
aF0
aF0.079216165335444788
aF0
aF0
aF0.0013703221999886788
aF0
atp5
a(S'H'
(lp6
F0.3356937175594506
aF0.41732695858697916
aF0.31422677708194191
aF0.39505808944311943
aF0.23122217750010401
aF0.30628045780201335
aF0.055680899773206803
aF0.09397888744090159
aF0
aF0.26913703118130966
aF0
aF0
aF0.0039911885045232666
aF0
aF0
aF0.25751000550002784
aF0
aF0
aF1.245401081782653e-08
aF0
atp7
a.