(lp1
(S'O'
(lp2
F1.9005734468012014
aF0
aF1.893636373395851
aF0
aF1.861770978480614
aF0
aF1.7208153850009469
aF0
aF0.60468529748906308
aF0
aF0
aF0.99062158921184995
aF0
aF0
aF0.032929483336867418
aF0
aF0
aF0.23719112469903367
aF0
aF0
atp3
a(S'H'
(lp4
F0.87974692770437757
aF0.94515720427284078
aF0.8717966153476141
aF0.94134375299949236
aF0.83582497128453637
aF0.92384374762421839
aF0.68734539167492437
aF0.84678054286459792
aF0
aF1.4458582236814561
aF0
aF0
aF0.14944866301945678
aF0
aF0
aF1.0763911491312543
aF0
aF0
aF0.00012286704591391381
aF0
atp5
a(S'H'
(lp6
F0.87974692770437757
aF0.95541624252836055
aF0.8717966153476141
aF0.95229262039635876
aF0.83582497128453637
aF0.93792723085639562
aF0.68734539167492437
aF0.87403484213634897
aF0
aF1.4055050986847915
aF0
aF0
aF0.18980178801612116
aF0
aF0
aF0.96116286154781228
aF0
aF0
aF0.00031964541366457034
aF0
atp7
a.