(lp1
(S'O'
(lp2
F0.9453895280153034
aF0
aF0.94153810205636568
aF0
aF0.92392862804304809
aF0
aF0.84678235787971212
aF0
aF0
aF0
aF0
aF0
aF0
aF0
aF0
aF0
aF0
aF0
aF0
aF0
atp3
a(S'H'
(lp4
F0
aF0.94515720427284078
aF0
aF0.94134375299949236
aF0
aF0.92384374762421839
aF0
aF0.84678054286459792
aF0
aF0
aF0
aF0
aF0
aF0
aF0
aF0
aF0
aF0
aF0
aF0
atp5
a(S'H'
(lp6
F0
aF0.00023232374246266141
aF0
aF0.00019434905687334915
aF0
aF8.4880418829750789e-05
aF0
aF1.8150151142391845e-06
aF0
aF0
aF0
aF0
aF0
aF0
aF0
aF0
aF0
aF0
aF0
aF0
atp7
a.