(lp1
(S'Pt'
p2
(lp3
F0.6909624713375403
aF5.0745629085160928
aF0.64678859772322017
aF4.8221141979143578
aF0.47927033851743522
aF3.847631903943376
aF0.13209708324460845
aF1.5866683476001628
aF0.097799861325075746
aF1.9432790235534241
aF5.3813380351572961
aF0.015786077429834011
aF0.53904486634017668
aF1.9185648448559356
aF0.062541749786506007
aF1.0686309511779535
aF2.913322701810054
aF4.8790850633225213e-05
aF0.025477833541077164
aF0.28308682003768582
atp4
a(g2
(lp5
F1.4652230996885285
aF5.2006379606422151
aF1.3877177975908663
aF4.9089837408167778
aF1.0866022554478498
aF3.8087984262863888
aF0.40781867718018161
aF1.4613327850655242
aF0.22936121927119457
aF2.8176809518869419
aF4.3257092061297628
aF0.071167075020462905
aF1.0702136528070176
aF1.4497856791773724
aF0.11550928102056851
aF1.5599502429895304
aF2.5721910971204083
aF0.0051640211809239212
aF0.19748973942538384
aF0.27565648563092343
atp6
a(g2
(lp7
F0.69224893999068038
aF5.0534001080979136
aF0.63664439722235078
aF4.8044824795862242
aF0.43334272784643951
aF3.8540724825212109
aF0.078007195219306033
aF1.6818086220111506
aF0.065161801858874616
aF1.8121297971110029
aF5.3129297993666871
aF0.014597307110169707
aF0.35167150772919714
aF2.1184440907135498
aF0.038334981967722948
aF1.1810351855879564
aF2.6702422868146636
aF0.00027142009054643523
aF0.011983184489208513
aF0.30166514544118211
atp8
a(g2
(lp9
F1.5211632660863499
aF4.3628520124745291
aF1.4290589494751371
aF4.1169539673650783
aF1.0842561758470741
aF3.1902258317604217
aF0.38407300874721345
aF1.2270778647501046
aF0.10823101663428127
aF2.3157249295415063
aF3.8244122835458447
aF0.0319626820130339
aF0.87639068616251226
aF1.1466067106584903
aF0.066351590034556138
aF1.3105968100580454
aF2.2202438720312028
aF0.0028634138003148096
aF0.17190261873072221
aF0.11706919823079263
atp10
a(g2
(lp11
F1.1516332735955124
aF5.9268790361660049
aF1.0817075475046409
aF5.6512651170134589
aF0.82702010075692978
aF4.5727718478938337
aF0.3350295674196247
aF1.9503822983772778
aF0.089530658730637661
aF2.4013727789593005
aF6.3162915243565534
aF0.013500106737260433
aF1.2517606151727296
aF2.6926112440775638
aF0.067671044617871601
aF1.1423811187947972
aF3.2148698950838237
aF0.00097434874822341724
aF0.21291497790066694
aF0.56266937598867128
atp12
a(g2
(lp13
F1.6454229674825052
aF5.5884009565525803
aF1.5738931599304966
aF5.2958843319158255
aF1.2885499944491219
aF4.1803415397313302
aF0.56507634919490879
aF1.7013677754253249
aF0.37195420684681724
aF3.412265612668028
aF5.3442673484287857
aF0.17744837107743555
aF1.6913268392461758
aF2.0435319126142018
aF0.14667066582149102
aF1.5899212586475768
aF2.8868641222827449
aF0.015399973815410471
aF0.25735908623213188
aF0.3864551292095435
atp14
a(g2
(lp15
F1.0487416705658701
aF5.8017599673959035
aF0.97685226793831337
aF5.5078819470734288
aF0.70578203451796717
aF4.3749201691003927
aF0.16805023081030657
aF1.7701360635497567
aF0.051855828793017623
aF2.3911366511874594
aF5.9335188942797306
aF0.014473204096421707
aF0.63082474207882
aF2.2910526349118769
aF0.032066019776543685
aF1.3974470594717865
aF3.212222570315646
aF0.0014608629516080307
aF0.042066505249422216
aF0.43682991313844866
atp16
a(g2
(lp17
F1.7990154751124563
aF5.605976561186492
aF1.7348151938048744
aF5.3064374379189729
aF1.472939031020134
aF4.1545048156940574
aF0.73926336561273021
aF1.5721012815636524
aF0.40485972186498093
aF3.406217197722853
aF5.7443200792576965
aF0.28105445858810146
aF1.8849040582442433
aF1.9113201066378094
aF0.10216575523043792
aF1.650850657807541
aF3.1025441809663197
aF0.030373809276691664
aF0.5526980167434965
aF0.22482233150311087
atp18
a(S'Cu'
p19
(lp20
F0.9057297268772041
aF5.2636356284091148
aF0.84886570873639622
aF4.9747678698599875
aF0.63688632120079336
aF3.8661213835705466
aF0.20531799364037751
aF1.4255963478228735
aF0.030046637140287099
aF1.5258520746957687
aF6.4261667757982464
aF0.011200992482860557
aF0.51274570943412534
aF1.8735394819614228
aF0.01622977743166077
aF0.84094414944807527
aF3.5587206890565235
aF0.0011984507593306266
aF0.067461782839787307
aF0.1140079629549056
atp21
a(g19
(lp22
F0.90572972687720399
aF4.7507755354503285
aF0.848865708736396
aF4.4927100413299126
aF0.63688632120079325
aF3.5116412748324053
aF0.20531799364037751
aF1.3838191296060065
aF0.030046637140287068
aF1.5419623038929224
aF4.5752298833819065
aF0.011200992482860555
aF0.49692710677238239
aF1.5230358140641194
aF0.01622977743166075
aF0.82799042278787771
aF2.7007401296908333
aF0.0011984507593306266
aF0.055441764881979175
aF0.20183347701742435
atp23
a.