(lp1
(S'O'
(lp2
F0.97137168809174979
aF0
aF0.96400532344665624
aF0
aF0.93537040651038728
aF0
aF0.84728057202575735
aF0
aF0.00016297413252000138
aF0
aF0
aF0.00026699126773510888
aF0
aF0
aF8.875119013878248e-06
aF0
aF0
aF6.3927497410283318e-05
aF0
aF0
atp3
a(S'H'
(lp4
F0.0080346256171619588
aF0.94515720427284078
aF0.0068369068196921555
aF0.94134375299949236
aF0.0032318895299365503
aF0.92384374762421839
aF9.9785827870967642e-05
aF0.84678054286459792
aF0
aF0.00029840561227261706
aF0
aF0
aF0.00013155978798249317
aF0
aF0
aF9.9753334258916693e-05
aF0
aF0
aF3.7687049062071129e-06
aF0
atp5
a(S'H'
(lp6
F0.0080346256171619588
aF0.026214483818909014
aF0.0068369068196921555
aF0.022661570447163919
aF0.0032318895299365503
aF0.011526658886168838
aF9.9785827870967642e-05
aF0.00050002916115946731
aF0
aF0.00042741571702746025
aF0
aF0
aF2.5496832276500509e-06
aF0
aF0
aF0.00041985702655868292
aF0
aF0
aF5.3167272537546129e-13
aF0
atp7
a.