(lp1
(S'O'
(lp2
F1.0001618204294149
aF0
aF0.98962012661688226
aF0
aF0.9501901509197449
aF0
aF0.84836515040965121
aF0
aF0.0011079333462864381
aF0
aF0
aF0.0018150642934375719
aF0
aF0
aF6.0334975592091218e-05
aF0
aF0
aF0.00043459293220536306
aF0
aF0
atp3
a(S'H'
(lp4
F0.02623167260232926
aF0.94515720427284078
aF0.022676686485607764
aF0.94134375299949236
aF0.011534954081489216
aF0.92384374762421839
aF0.00050051115188215521
aF0.84678054286459792
aF0
aF0.0020396727073537617
aF0
aF0
aF0.0008833249323702485
aF0
aF0
aF0.00069303719674064187
aF0
aF0
aF2.4377915161211902e-05
aF0
atp5
a(S'H'
(lp6
F0.02623167260232926
aF0.05500461615657419
aF0.022676686485607764
aF0.048276373617389894
aF0.011534954081489216
aF0.026346403295526549
aF0.00050051115188215521
aF0.0015846075450532771
aF0
aF0.0029037718805632788
aF0
aF0
aF1.9225759160731196e-05
aF0
aF0
aF0.0028468500159568432
aF0
aF0
aF5.470771761579814e-12
aF0
atp7
a.