(lp1
(S'Pt'
p2
(lp3
F0.56845938812494357
aF4.870499965062006
aF0.52116761653170562
aF4.6354426797825869
aF0.35054439606162235
aF3.72699791231706
aF0.061649490526028729
aF1.5897597488529596
aF0.024693226326865624
aF1.4267400198395379
aF5.2552983666175255
aF0.0085379676585024631
aF0.28925222061453443
aF1.9186509200986765
aF0.010156233715561349
aF0.89827291811456789
aF2.7346979205030211
aF0.00014742546138435912
aF0.0098789350583067728
aF0.25456155466919178
atp4
a(g2
(lp5
F1.5931904860325035
aF4.9227331229402775
aF1.5154708861807293
aF4.6376994005051175
aF1.208251488821972
aF3.5702423425835752
aF0.4664138532502492
aF1.3537157205229675
aF0.092242817232934621
aF3.2818962571609145
aF3.8295419122554022
aF0.094699213139905855
aF1.1283682042782264
aF1.2677867385073907
aF0.018812740423797821
aF1.7700295690941128
aF2.3353571357180614
aF0.023492599951480321
aF0.1394289471416037
aF0.25722070082469239
atp6
a(g2
(lp7
F0.55345182561303807
aF4.9023909818899361
aF0.50355282351536568
aF4.6587540988561029
aF0.3267552955542955
aF3.7215888463156173
aF0.048612319681827575
aF1.5665465982318707
aF0.017588639553034021
aF1.304773236181227
aF5.3607303721752837
aF0.0063973263472845293
aF0.24139531119791635
aF1.8319278808645956
aF0.0071668530992980593
aF0.85912499259453767
aF2.8690377811089482
aF0.00014747767198189526
aF0.0069137003833758407
aF0.23695772269878621
atp8
a(g2
(lp9
F1.7070902499261007
aF3.6818887917892873
aF1.6277582432338966
aF3.4624804039201966
aF1.3177016242885127
aF2.6473180486702894
aF0.56934048476818588
aF0.99597231922757623
aF0.069648136213739151
aF2.8124901843745738
aF3.0595272319671913
aF0.11152979072382291
aF1.0871894811829685
aF0.8058395825246546
aF0.014793165190712106
aF1.4351772978047763
aF1.7890866186002385
aF0.057799214327310028
aF0.11293706035997329
aF0.042280855366386247
atp10
a(g2
(lp11
F1.3226480560469049
aF6.0567990332488559
aF1.2480454104582808
aF5.7919259853284819
aF0.97187848487702211
aF4.7476971208889553
aF0.41447662354835341
aF2.1146973329451515
aF0.06846316010850037
aF2.9376365815344516
aF6.5653173633381341
aF0.046451614767400257
aF1.6022982070725342
aF3.1858478000054817
aF0.019270258003330466
aF1.307807900900958
aF3.0584767421565093
aF0.0052309384943445584
aF0.28197186303757255
aF0.66817979920451531
atp12
a(g2
(lp13
F1.4998974932732643
aF5.3176662155949668
aF1.4354538108968407
aF5.0352274889533923
aF1.1756370922460277
aF3.9639356273355273
aF0.4949776369045058
aF1.608544334115636
aF0.096935731149999746
aF2.9197807198016794
aF5.0223010447631928
aF0.132505030617803
aF1.3500905364438931
aF1.8420130537151393
aF0.008539179307934016
aF1.3210506162997211
aF2.8304659035649138
aF0.026785861106965979
aF0.20373471587391351
aF0.35369659748185139
atp14
a(g2
(lp15
F1.4403283668377462
aF5.7003616417344753
aF1.3715505029980877
aF5.4075559882701345
aF1.102686083883391
aF4.2738862034257803
aF0.45889107741598389
aF1.6479575965617108
aF0.059411643184743963
aF3.2512122862616279
aF5.812848379332701
aF0.082511946212105308
aF1.2805586395956423
aF2.0069487835198192
aF0.0083075524131217496
aF1.6557495272308194
aF3.2048418999975676
aF0.019686735242546091
aF0.23275239296002911
aF0.31456995201801236
atp16
a(g2
(lp17
F1.5983416349350468
aF5.688686481912737
aF1.5214012355964097
aF5.3940354906301327
aF1.2157862164419946
aF4.2633273166114414
aF0.45833215680503464
aF1.710441569386485
aF0.11346270092909057
aF3.1005870373717221
aF6.0015372889923251
aF0.12905513961512846
aF1.282013094435194
aF2.1928080755409933
aF0.014459604133993574
aF1.6031337105057519
aF3.138811983811034
aF0.021902940408931218
aF0.23038257754108679
aF0.30168113322382373
atp18
a(S'Cu'
p19
(lp20
F0.66757861526157281
aF4.9539573405172304
aF0.60133786437124415
aF4.6926567701517152
aF0.37145570745414597
aF3.6813105455939819
aF0.042401343113203864
aF1.3806868669843266
aF0.0097764580129398263
aF0.95982154568948552
aF6.0815509510078432
aF0.0033015132045773172
aF0.17128107115489033
aF1.7442426234029702
aF0.0042497986421202623
aF0.64206245960842911
aF3.3501919382813936
aF7.4072550384319004e-05
aF0.0058554838875989968
aF0.11891592176033546
atp21
a(g19
(lp22
F0.66757861526157281
aF5.3294501602723194
aF0.60133786437124404
aF5.0517437592596011
aF0.37145570745414586
aF3.9879301365808555
aF0.042401343113203871
aF1.5920067759158425
aF0.0097764580129398263
aF1.0068826205455153
aF5.0440970647587013
aF0.0033015132045773163
aF0.17028293017183121
aF1.7782503695038065
aF0.0042497986421202606
aF0.67675859351969281
aF2.8425057826550644
aF7.4072550384318963e-05
aF0.00367094320746136
aF0.32771971463970201
atp23
a.