(lp1
(S'O'
(lp2
F0.96407495335768378
aF0
aF0.9576120498675964
aF0
aF0.9319196483336285
aF0
aF0.84709347238689814
aF0
aF6.2862658178348298e-05
aF0
aF0
aF0.00010298432358997948
aF0
aF0
aF3.4233259243954965e-06
aF0
aF0
aF2.4658222478384338e-05
aF0
aF0
atp3
a(S'H'
(lp4
F0.0042831575543476642
aF0.94515720427284078
aF0.0036248586155025746
aF0.94134375299949236
aF0.0016707109002085502
aF0.92384374762421839
aF4.5868899979436992e-05
aF0.84678054286459792
aF0
aF0.00011490589724335329
aF0
aF0
aF5.0941084524974475e-05
aF0
aF0
aF3.8216116868495121e-05
aF0
aF0
aF1.4762164153218402e-06
aF0
atp5
a(S'H'
(lp6
F0.0042831575543476642
aF0.018917749084842984
aF0.0036248586155025746
aF0.01626829686810409
aF0.0016707109002085502
aF0.0080759007094100901
aF4.5868899979436992e-05
aF0.00031292952230022416
aF0
aF0.00016489582045786826
aF0
aF0
aF9.5116131045949985e-07
aF0
aF0
aF0.00016207494201682501
aF0
aF0
aF1.7942955890451681e-13
aF0
atp7
a.