(lp1
(S'O'
(lp2
F0.94744864411394214
aF0
aF0.94327523791386825
aF0
aF0.92471753521975497
aF0
aF0.84680254404987554
aF0
aF0
aF0
aF0
aF0
aF0
aF0
aF0
aF0
aF0
aF0
aF0
aF0
atp3
a(S'H'
(lp4
F0
aF0.94515720427284078
aF0
aF0.94134375299949236
aF0
aF0.92384374762421839
aF0
aF0.84678054286459792
aF0
aF0
aF0
aF0
aF0
aF0
aF0
aF0
aF0
aF0
aF0
aF0
atp5
a(S'H'
(lp6
F0
aF0.0022914398411013853
aF0
aF0.001931484914375935
aF0
aF0.000873787595536585
aF0
aF2.2001185277666281e-05
aF0
aF0
aF0
aF0
aF0
aF0
aF0
aF0
aF0
aF0
aF0
aF0
atp7
a.