(lp1
(S'O'
(lp2
F0.94570455707692713
aF0
aF0.94180251390302283
aF0
aF0.92404589353847888
aF0
aF0.84678504713055303
aF0
aF0
aF0
aF0
aF0
aF0
aF0
aF0
aF0
aF0
aF0
aF0
aF0
atp3
a(S'H'
(lp4
F0
aF0.94515720427284078
aF0
aF0.94134375299949236
aF0
aF0.92384374762421839
aF0
aF0.84678054286459792
aF0
aF0
aF0
aF0
aF0
aF0
aF0
aF0
aF0
aF0
aF0
aF0
atp5
a(S'H'
(lp6
F0
aF0.00054735280408636149
aF0
aF0.00045876090353051522
aF0
aF0.00020214591426049049
aF0
aF4.5042659551137409e-06
aF0
aF0
aF0
aF0
aF0
aF0
aF0
aF0
aF0
aF0
aF0
aF0
atp7
a.